
/home/cindy/Documents/Projects/benchmark/coreutils-build/src/sha512sum:     file format elf64-x86-64


Disassembly of section .init:

0000000000001580 <_init>:
    1580:	48 83 ec 08          	sub    rsp,0x8
    1584:	48 8b 05 45 ca 20 00 	mov    rax,QWORD PTR [rip+0x20ca45]        # 20dfd0 <__gmon_start__>
    158b:	48 85 c0             	test   rax,rax
    158e:	74 02                	je     1592 <_init+0x12>
    1590:	ff d0                	call   rax
    1592:	48 83 c4 08          	add    rsp,0x8
    1596:	c3                   	ret    

Disassembly of section .plt:

00000000000015a0 <.plt>:
    15a0:	ff 35 6a c8 20 00    	push   QWORD PTR [rip+0x20c86a]        # 20de10 <_GLOBAL_OFFSET_TABLE_+0x8>
    15a6:	ff 25 6c c8 20 00    	jmp    QWORD PTR [rip+0x20c86c]        # 20de18 <_GLOBAL_OFFSET_TABLE_+0x10>
    15ac:	0f 1f 40 00          	nop    DWORD PTR [rax+0x0]

00000000000015b0 <free@plt>:
    15b0:	ff 25 6a c8 20 00    	jmp    QWORD PTR [rip+0x20c86a]        # 20de20 <free@GLIBC_2.2.5>
    15b6:	68 00 00 00 00       	push   0x0
    15bb:	e9 e0 ff ff ff       	jmp    15a0 <.plt>

00000000000015c0 <abort@plt>:
    15c0:	ff 25 62 c8 20 00    	jmp    QWORD PTR [rip+0x20c862]        # 20de28 <abort@GLIBC_2.2.5>
    15c6:	68 01 00 00 00       	push   0x1
    15cb:	e9 d0 ff ff ff       	jmp    15a0 <.plt>

00000000000015d0 <__errno_location@plt>:
    15d0:	ff 25 5a c8 20 00    	jmp    QWORD PTR [rip+0x20c85a]        # 20de30 <__errno_location@GLIBC_2.2.5>
    15d6:	68 02 00 00 00       	push   0x2
    15db:	e9 c0 ff ff ff       	jmp    15a0 <.plt>

00000000000015e0 <strncmp@plt>:
    15e0:	ff 25 52 c8 20 00    	jmp    QWORD PTR [rip+0x20c852]        # 20de38 <strncmp@GLIBC_2.2.5>
    15e6:	68 03 00 00 00       	push   0x3
    15eb:	e9 b0 ff ff ff       	jmp    15a0 <.plt>

00000000000015f0 <_exit@plt>:
    15f0:	ff 25 4a c8 20 00    	jmp    QWORD PTR [rip+0x20c84a]        # 20de40 <_exit@GLIBC_2.2.5>
    15f6:	68 04 00 00 00       	push   0x4
    15fb:	e9 a0 ff ff ff       	jmp    15a0 <.plt>

0000000000001600 <__fpending@plt>:
    1600:	ff 25 42 c8 20 00    	jmp    QWORD PTR [rip+0x20c842]        # 20de48 <__fpending@GLIBC_2.2.5>
    1606:	68 05 00 00 00       	push   0x5
    160b:	e9 90 ff ff ff       	jmp    15a0 <.plt>

0000000000001610 <fcntl@plt>:
    1610:	ff 25 3a c8 20 00    	jmp    QWORD PTR [rip+0x20c83a]        # 20de50 <fcntl@GLIBC_2.2.5>
    1616:	68 06 00 00 00       	push   0x6
    161b:	e9 80 ff ff ff       	jmp    15a0 <.plt>

0000000000001620 <fread_unlocked@plt>:
    1620:	ff 25 32 c8 20 00    	jmp    QWORD PTR [rip+0x20c832]        # 20de58 <fread_unlocked@GLIBC_2.2.5>
    1626:	68 07 00 00 00       	push   0x7
    162b:	e9 70 ff ff ff       	jmp    15a0 <.plt>

0000000000001630 <textdomain@plt>:
    1630:	ff 25 2a c8 20 00    	jmp    QWORD PTR [rip+0x20c82a]        # 20de60 <textdomain@GLIBC_2.2.5>
    1636:	68 08 00 00 00       	push   0x8
    163b:	e9 60 ff ff ff       	jmp    15a0 <.plt>

0000000000001640 <fclose@plt>:
    1640:	ff 25 22 c8 20 00    	jmp    QWORD PTR [rip+0x20c822]        # 20de68 <fclose@GLIBC_2.2.5>
    1646:	68 09 00 00 00       	push   0x9
    164b:	e9 50 ff ff ff       	jmp    15a0 <.plt>

0000000000001650 <bindtextdomain@plt>:
    1650:	ff 25 1a c8 20 00    	jmp    QWORD PTR [rip+0x20c81a]        # 20de70 <bindtextdomain@GLIBC_2.2.5>
    1656:	68 0a 00 00 00       	push   0xa
    165b:	e9 40 ff ff ff       	jmp    15a0 <.plt>

0000000000001660 <dcgettext@plt>:
    1660:	ff 25 12 c8 20 00    	jmp    QWORD PTR [rip+0x20c812]        # 20de78 <dcgettext@GLIBC_2.2.5>
    1666:	68 0b 00 00 00       	push   0xb
    166b:	e9 30 ff ff ff       	jmp    15a0 <.plt>

0000000000001670 <__ctype_get_mb_cur_max@plt>:
    1670:	ff 25 0a c8 20 00    	jmp    QWORD PTR [rip+0x20c80a]        # 20de80 <__ctype_get_mb_cur_max@GLIBC_2.2.5>
    1676:	68 0c 00 00 00       	push   0xc
    167b:	e9 20 ff ff ff       	jmp    15a0 <.plt>

0000000000001680 <strlen@plt>:
    1680:	ff 25 02 c8 20 00    	jmp    QWORD PTR [rip+0x20c802]        # 20de88 <strlen@GLIBC_2.2.5>
    1686:	68 0d 00 00 00       	push   0xd
    168b:	e9 10 ff ff ff       	jmp    15a0 <.plt>

0000000000001690 <__stack_chk_fail@plt>:
    1690:	ff 25 fa c7 20 00    	jmp    QWORD PTR [rip+0x20c7fa]        # 20de90 <__stack_chk_fail@GLIBC_2.4>
    1696:	68 0e 00 00 00       	push   0xe
    169b:	e9 00 ff ff ff       	jmp    15a0 <.plt>

00000000000016a0 <getopt_long@plt>:
    16a0:	ff 25 f2 c7 20 00    	jmp    QWORD PTR [rip+0x20c7f2]        # 20de98 <getopt_long@GLIBC_2.2.5>
    16a6:	68 0f 00 00 00       	push   0xf
    16ab:	e9 f0 fe ff ff       	jmp    15a0 <.plt>

00000000000016b0 <mbrtowc@plt>:
    16b0:	ff 25 ea c7 20 00    	jmp    QWORD PTR [rip+0x20c7ea]        # 20dea0 <mbrtowc@GLIBC_2.2.5>
    16b6:	68 10 00 00 00       	push   0x10
    16bb:	e9 e0 fe ff ff       	jmp    15a0 <.plt>

00000000000016c0 <strchr@plt>:
    16c0:	ff 25 e2 c7 20 00    	jmp    QWORD PTR [rip+0x20c7e2]        # 20dea8 <strchr@GLIBC_2.2.5>
    16c6:	68 11 00 00 00       	push   0x11
    16cb:	e9 d0 fe ff ff       	jmp    15a0 <.plt>

00000000000016d0 <__overflow@plt>:
    16d0:	ff 25 da c7 20 00    	jmp    QWORD PTR [rip+0x20c7da]        # 20deb0 <__overflow@GLIBC_2.2.5>
    16d6:	68 12 00 00 00       	push   0x12
    16db:	e9 c0 fe ff ff       	jmp    15a0 <.plt>

00000000000016e0 <strrchr@plt>:
    16e0:	ff 25 d2 c7 20 00    	jmp    QWORD PTR [rip+0x20c7d2]        # 20deb8 <strrchr@GLIBC_2.2.5>
    16e6:	68 13 00 00 00       	push   0x13
    16eb:	e9 b0 fe ff ff       	jmp    15a0 <.plt>

00000000000016f0 <lseek@plt>:
    16f0:	ff 25 ca c7 20 00    	jmp    QWORD PTR [rip+0x20c7ca]        # 20dec0 <lseek@GLIBC_2.2.5>
    16f6:	68 14 00 00 00       	push   0x14
    16fb:	e9 a0 fe ff ff       	jmp    15a0 <.plt>

0000000000001700 <memset@plt>:
    1700:	ff 25 c2 c7 20 00    	jmp    QWORD PTR [rip+0x20c7c2]        # 20dec8 <memset@GLIBC_2.2.5>
    1706:	68 15 00 00 00       	push   0x15
    170b:	e9 90 fe ff ff       	jmp    15a0 <.plt>

0000000000001710 <close@plt>:
    1710:	ff 25 ba c7 20 00    	jmp    QWORD PTR [rip+0x20c7ba]        # 20ded0 <close@GLIBC_2.2.5>
    1716:	68 16 00 00 00       	push   0x16
    171b:	e9 80 fe ff ff       	jmp    15a0 <.plt>

0000000000001720 <posix_fadvise@plt>:
    1720:	ff 25 b2 c7 20 00    	jmp    QWORD PTR [rip+0x20c7b2]        # 20ded8 <posix_fadvise@GLIBC_2.2.5>
    1726:	68 17 00 00 00       	push   0x17
    172b:	e9 70 fe ff ff       	jmp    15a0 <.plt>

0000000000001730 <memcmp@plt>:
    1730:	ff 25 aa c7 20 00    	jmp    QWORD PTR [rip+0x20c7aa]        # 20dee0 <memcmp@GLIBC_2.2.5>
    1736:	68 18 00 00 00       	push   0x18
    173b:	e9 60 fe ff ff       	jmp    15a0 <.plt>

0000000000001740 <fputs_unlocked@plt>:
    1740:	ff 25 a2 c7 20 00    	jmp    QWORD PTR [rip+0x20c7a2]        # 20dee8 <fputs_unlocked@GLIBC_2.2.5>
    1746:	68 19 00 00 00       	push   0x19
    174b:	e9 50 fe ff ff       	jmp    15a0 <.plt>

0000000000001750 <calloc@plt>:
    1750:	ff 25 9a c7 20 00    	jmp    QWORD PTR [rip+0x20c79a]        # 20def0 <calloc@GLIBC_2.2.5>
    1756:	68 1a 00 00 00       	push   0x1a
    175b:	e9 40 fe ff ff       	jmp    15a0 <.plt>

0000000000001760 <__getdelim@plt>:
    1760:	ff 25 92 c7 20 00    	jmp    QWORD PTR [rip+0x20c792]        # 20def8 <__getdelim@GLIBC_2.2.5>
    1766:	68 1b 00 00 00       	push   0x1b
    176b:	e9 30 fe ff ff       	jmp    15a0 <.plt>

0000000000001770 <memcpy@plt>:
    1770:	ff 25 8a c7 20 00    	jmp    QWORD PTR [rip+0x20c78a]        # 20df00 <memcpy@GLIBC_2.14>
    1776:	68 1c 00 00 00       	push   0x1c
    177b:	e9 20 fe ff ff       	jmp    15a0 <.plt>

0000000000001780 <fileno@plt>:
    1780:	ff 25 82 c7 20 00    	jmp    QWORD PTR [rip+0x20c782]        # 20df08 <fileno@GLIBC_2.2.5>
    1786:	68 1d 00 00 00       	push   0x1d
    178b:	e9 10 fe ff ff       	jmp    15a0 <.plt>

0000000000001790 <malloc@plt>:
    1790:	ff 25 7a c7 20 00    	jmp    QWORD PTR [rip+0x20c77a]        # 20df10 <malloc@GLIBC_2.2.5>
    1796:	68 1e 00 00 00       	push   0x1e
    179b:	e9 00 fe ff ff       	jmp    15a0 <.plt>

00000000000017a0 <fflush@plt>:
    17a0:	ff 25 72 c7 20 00    	jmp    QWORD PTR [rip+0x20c772]        # 20df18 <fflush@GLIBC_2.2.5>
    17a6:	68 1f 00 00 00       	push   0x1f
    17ab:	e9 f0 fd ff ff       	jmp    15a0 <.plt>

00000000000017b0 <nl_langinfo@plt>:
    17b0:	ff 25 6a c7 20 00    	jmp    QWORD PTR [rip+0x20c76a]        # 20df20 <nl_langinfo@GLIBC_2.2.5>
    17b6:	68 20 00 00 00       	push   0x20
    17bb:	e9 e0 fd ff ff       	jmp    15a0 <.plt>

00000000000017c0 <__freading@plt>:
    17c0:	ff 25 62 c7 20 00    	jmp    QWORD PTR [rip+0x20c762]        # 20df28 <__freading@GLIBC_2.2.5>
    17c6:	68 21 00 00 00       	push   0x21
    17cb:	e9 d0 fd ff ff       	jmp    15a0 <.plt>

00000000000017d0 <fwrite_unlocked@plt>:
    17d0:	ff 25 5a c7 20 00    	jmp    QWORD PTR [rip+0x20c75a]        # 20df30 <fwrite_unlocked@GLIBC_2.2.5>
    17d6:	68 22 00 00 00       	push   0x22
    17db:	e9 c0 fd ff ff       	jmp    15a0 <.plt>

00000000000017e0 <realloc@plt>:
    17e0:	ff 25 52 c7 20 00    	jmp    QWORD PTR [rip+0x20c752]        # 20df38 <realloc@GLIBC_2.2.5>
    17e6:	68 23 00 00 00       	push   0x23
    17eb:	e9 b0 fd ff ff       	jmp    15a0 <.plt>

00000000000017f0 <fdopen@plt>:
    17f0:	ff 25 4a c7 20 00    	jmp    QWORD PTR [rip+0x20c74a]        # 20df40 <fdopen@GLIBC_2.2.5>
    17f6:	68 24 00 00 00       	push   0x24
    17fb:	e9 a0 fd ff ff       	jmp    15a0 <.plt>

0000000000001800 <setlocale@plt>:
    1800:	ff 25 42 c7 20 00    	jmp    QWORD PTR [rip+0x20c742]        # 20df48 <setlocale@GLIBC_2.2.5>
    1806:	68 25 00 00 00       	push   0x25
    180b:	e9 90 fd ff ff       	jmp    15a0 <.plt>

0000000000001810 <__printf_chk@plt>:
    1810:	ff 25 3a c7 20 00    	jmp    QWORD PTR [rip+0x20c73a]        # 20df50 <__printf_chk@GLIBC_2.3.4>
    1816:	68 26 00 00 00       	push   0x26
    181b:	e9 80 fd ff ff       	jmp    15a0 <.plt>

0000000000001820 <setvbuf@plt>:
    1820:	ff 25 32 c7 20 00    	jmp    QWORD PTR [rip+0x20c732]        # 20df58 <setvbuf@GLIBC_2.2.5>
    1826:	68 27 00 00 00       	push   0x27
    182b:	e9 70 fd ff ff       	jmp    15a0 <.plt>

0000000000001830 <error@plt>:
    1830:	ff 25 2a c7 20 00    	jmp    QWORD PTR [rip+0x20c72a]        # 20df60 <error@GLIBC_2.2.5>
    1836:	68 28 00 00 00       	push   0x28
    183b:	e9 60 fd ff ff       	jmp    15a0 <.plt>

0000000000001840 <fseeko@plt>:
    1840:	ff 25 22 c7 20 00    	jmp    QWORD PTR [rip+0x20c722]        # 20df68 <fseeko@GLIBC_2.2.5>
    1846:	68 29 00 00 00       	push   0x29
    184b:	e9 50 fd ff ff       	jmp    15a0 <.plt>

0000000000001850 <fopen@plt>:
    1850:	ff 25 1a c7 20 00    	jmp    QWORD PTR [rip+0x20c71a]        # 20df70 <fopen@GLIBC_2.2.5>
    1856:	68 2a 00 00 00       	push   0x2a
    185b:	e9 40 fd ff ff       	jmp    15a0 <.plt>

0000000000001860 <dcngettext@plt>:
    1860:	ff 25 12 c7 20 00    	jmp    QWORD PTR [rip+0x20c712]        # 20df78 <dcngettext@GLIBC_2.2.5>
    1866:	68 2b 00 00 00       	push   0x2b
    186b:	e9 30 fd ff ff       	jmp    15a0 <.plt>

0000000000001870 <__cxa_atexit@plt>:
    1870:	ff 25 0a c7 20 00    	jmp    QWORD PTR [rip+0x20c70a]        # 20df80 <__cxa_atexit@GLIBC_2.2.5>
    1876:	68 2c 00 00 00       	push   0x2c
    187b:	e9 20 fd ff ff       	jmp    15a0 <.plt>

0000000000001880 <exit@plt>:
    1880:	ff 25 02 c7 20 00    	jmp    QWORD PTR [rip+0x20c702]        # 20df88 <exit@GLIBC_2.2.5>
    1886:	68 2d 00 00 00       	push   0x2d
    188b:	e9 10 fd ff ff       	jmp    15a0 <.plt>

0000000000001890 <fwrite@plt>:
    1890:	ff 25 fa c6 20 00    	jmp    QWORD PTR [rip+0x20c6fa]        # 20df90 <fwrite@GLIBC_2.2.5>
    1896:	68 2e 00 00 00       	push   0x2e
    189b:	e9 00 fd ff ff       	jmp    15a0 <.plt>

00000000000018a0 <__fprintf_chk@plt>:
    18a0:	ff 25 f2 c6 20 00    	jmp    QWORD PTR [rip+0x20c6f2]        # 20df98 <__fprintf_chk@GLIBC_2.3.4>
    18a6:	68 2f 00 00 00       	push   0x2f
    18ab:	e9 f0 fc ff ff       	jmp    15a0 <.plt>

00000000000018b0 <mbsinit@plt>:
    18b0:	ff 25 ea c6 20 00    	jmp    QWORD PTR [rip+0x20c6ea]        # 20dfa0 <mbsinit@GLIBC_2.2.5>
    18b6:	68 30 00 00 00       	push   0x30
    18bb:	e9 e0 fc ff ff       	jmp    15a0 <.plt>

00000000000018c0 <iswprint@plt>:
    18c0:	ff 25 e2 c6 20 00    	jmp    QWORD PTR [rip+0x20c6e2]        # 20dfa8 <iswprint@GLIBC_2.2.5>
    18c6:	68 31 00 00 00       	push   0x31
    18cb:	e9 d0 fc ff ff       	jmp    15a0 <.plt>

00000000000018d0 <__ctype_tolower_loc@plt>:
    18d0:	ff 25 da c6 20 00    	jmp    QWORD PTR [rip+0x20c6da]        # 20dfb0 <__ctype_tolower_loc@GLIBC_2.3>
    18d6:	68 32 00 00 00       	push   0x32
    18db:	e9 c0 fc ff ff       	jmp    15a0 <.plt>

00000000000018e0 <__ctype_b_loc@plt>:
    18e0:	ff 25 d2 c6 20 00    	jmp    QWORD PTR [rip+0x20c6d2]        # 20dfb8 <__ctype_b_loc@GLIBC_2.3>
    18e6:	68 33 00 00 00       	push   0x33
    18eb:	e9 b0 fc ff ff       	jmp    15a0 <.plt>

Disassembly of section .plt.got:

00000000000018f0 <__cxa_finalize@plt>:
    18f0:	ff 25 ea c6 20 00    	jmp    QWORD PTR [rip+0x20c6ea]        # 20dfe0 <__cxa_finalize@GLIBC_2.2.5>
    18f6:	66 90                	xchg   ax,ax

Disassembly of section .text:

0000000000001900 <main>:
    1900:	41 57                	push   r15
    1902:	41 56                	push   r14
    1904:	41 55                	push   r13
    1906:	41 54                	push   r12
    1908:	41 89 fc             	mov    r12d,edi
    190b:	55                   	push   rbp
    190c:	53                   	push   rbx
    190d:	48 89 f3             	mov    rbx,rsi
    1910:	bd ff ff ff ff       	mov    ebp,0xffffffff
    1915:	48 81 ec 48 01 00 00 	sub    rsp,0x148
    191c:	48 8b 3e             	mov    rdi,QWORD PTR [rsi]
    191f:	64 48 8b 04 25 28 00 	mov    rax,QWORD PTR fs:0x28
    1926:	00 00 
    1928:	48 89 84 24 38 01 00 	mov    QWORD PTR [rsp+0x138],rax
    192f:	00 
    1930:	31 c0                	xor    eax,eax
    1932:	e8 59 61 00 00       	call   7a90 <set_program_name>
    1937:	48 8d 35 23 9f 00 00 	lea    rsi,[rip+0x9f23]        # b861 <quoting_style_vals+0x81>
    193e:	bf 06 00 00 00       	mov    edi,0x6
    1943:	e8 b8 fe ff ff       	call   1800 <setlocale@plt>
    1948:	48 8d 35 f0 8d 00 00 	lea    rsi,[rip+0x8df0]        # a73f <_IO_stdin_used+0xbf>
    194f:	48 8d 3d c0 8d 00 00 	lea    rdi,[rip+0x8dc0]        # a716 <_IO_stdin_used+0x96>
    1956:	e8 f5 fc ff ff       	call   1650 <bindtextdomain@plt>
    195b:	48 8d 3d b4 8d 00 00 	lea    rdi,[rip+0x8db4]        # a716 <_IO_stdin_used+0x96>
    1962:	e8 c9 fc ff ff       	call   1630 <textdomain@plt>
    1967:	48 8d 3d b2 19 00 00 	lea    rdi,[rip+0x19b2]        # 3320 <close_stdout>
    196e:	e8 dd 8c 00 00       	call   a650 <atexit>
    1973:	48 8b 3d 2e c7 20 00 	mov    rdi,QWORD PTR [rip+0x20c72e]        # 20e0a8 <stdout@@GLIBC_2.2.5>
    197a:	31 c9                	xor    ecx,ecx
    197c:	ba 01 00 00 00       	mov    edx,0x1
    1981:	31 f6                	xor    esi,esi
    1983:	e8 98 fe ff ff       	call   1820 <setvbuf@plt>
    1988:	c6 44 24 78 00       	mov    BYTE PTR [rsp+0x78],0x0
    198d:	c6 44 24 2b 00       	mov    BYTE PTR [rsp+0x2b],0x0
    1992:	66 0f 1f 44 00 00    	nop    WORD PTR [rax+rax*1+0x0]
    1998:	48 8d 0d 81 c0 20 00 	lea    rcx,[rip+0x20c081]        # 20da20 <long_options>
    199f:	48 8d 15 da 8d 00 00 	lea    rdx,[rip+0x8dda]        # a780 <_IO_stdin_used+0x100>
    19a6:	45 31 c0             	xor    r8d,r8d
    19a9:	48 89 de             	mov    rsi,rbx
    19ac:	44 89 e7             	mov    edi,r12d
    19af:	e8 ec fc ff ff       	call   16a0 <getopt_long@plt>
    19b4:	83 f8 ff             	cmp    eax,0xffffffff
    19b7:	0f 84 7f 01 00 00    	je     1b3c <main+0x23c>
    19bd:	83 f8 77             	cmp    eax,0x77
    19c0:	0f 84 da 00 00 00    	je     1aa0 <main+0x1a0>
    19c6:	7e 38                	jle    1a00 <main+0x100>
    19c8:	3d 81 00 00 00       	cmp    eax,0x81
    19cd:	0f 84 1d 01 00 00    	je     1af0 <main+0x1f0>
    19d3:	7e 53                	jle    1a28 <main+0x128>
    19d5:	3d 83 00 00 00       	cmp    eax,0x83
    19da:	0f 84 00 01 00 00    	je     1ae0 <main+0x1e0>
    19e0:	0f 8c da 00 00 00    	jl     1ac0 <main+0x1c0>
    19e6:	3d 84 00 00 00       	cmp    eax,0x84
    19eb:	0f 85 df 01 00 00    	jne    1bd0 <main+0x2d0>
    19f1:	c6 44 24 78 01       	mov    BYTE PTR [rsp+0x78],0x1
    19f6:	bd 01 00 00 00       	mov    ebp,0x1
    19fb:	eb 9b                	jmp    1998 <main+0x98>
    19fd:	0f 1f 00             	nop    DWORD PTR [rax]
    1a00:	83 f8 62             	cmp    eax,0x62
    1a03:	0f 84 17 01 00 00    	je     1b20 <main+0x220>
    1a09:	7e 45                	jle    1a50 <main+0x150>
    1a0b:	83 f8 63             	cmp    eax,0x63
    1a0e:	0f 84 fc 00 00 00    	je     1b10 <main+0x210>
    1a14:	83 f8 74             	cmp    eax,0x74
    1a17:	0f 85 b3 01 00 00    	jne    1bd0 <main+0x2d0>
    1a1d:	31 ed                	xor    ebp,ebp
    1a1f:	e9 74 ff ff ff       	jmp    1998 <main+0x98>
    1a24:	0f 1f 40 00          	nop    DWORD PTR [rax+0x0]
    1a28:	83 f8 7a             	cmp    eax,0x7a
    1a2b:	0f 84 ff 00 00 00    	je     1b30 <main+0x230>
    1a31:	83 c0 80             	add    eax,0xffffff80
    1a34:	0f 85 96 01 00 00    	jne    1bd0 <main+0x2d0>
    1a3a:	c6 05 b1 c6 20 00 01 	mov    BYTE PTR [rip+0x20c6b1],0x1        # 20e0f2 <ignore_missing>
    1a41:	e9 52 ff ff ff       	jmp    1998 <main+0x98>
    1a46:	66 2e 0f 1f 84 00 00 	nop    WORD PTR cs:[rax+rax*1+0x0]
    1a4d:	00 00 00 
    1a50:	3d 7d ff ff ff       	cmp    eax,0xffffff7d
    1a55:	0f 85 76 0f 00 00    	jne    29d1 <main+0x10d1>
    1a5b:	48 8d 05 11 8d 00 00 	lea    rax,[rip+0x8d11]        # a773 <_IO_stdin_used+0xf3>
    1a62:	48 8b 3d 3f c6 20 00 	mov    rdi,QWORD PTR [rip+0x20c63f]        # 20e0a8 <stdout@@GLIBC_2.2.5>
    1a69:	48 8b 0d a8 c5 20 00 	mov    rcx,QWORD PTR [rip+0x20c5a8]        # 20e018 <Version>
    1a70:	6a 00                	push   0x0
    1a72:	4c 8d 0d de 8c 00 00 	lea    r9,[rip+0x8cde]        # a757 <_IO_stdin_used+0xd7>
    1a79:	4c 8d 05 e4 8c 00 00 	lea    r8,[rip+0x8ce4]        # a764 <_IO_stdin_used+0xe4>
    1a80:	50                   	push   rax
    1a81:	48 8d 15 8a 8c 00 00 	lea    rdx,[rip+0x8c8a]        # a712 <_IO_stdin_used+0x92>
    1a88:	48 8d 35 fb 8b 00 00 	lea    rsi,[rip+0x8bfb]        # a68a <_IO_stdin_used+0xa>
    1a8f:	31 c0                	xor    eax,eax
    1a91:	e8 fa 81 00 00       	call   9c90 <version_etc>
    1a96:	31 ff                	xor    edi,edi
    1a98:	e8 e3 fd ff ff       	call   1880 <exit@plt>
    1a9d:	0f 1f 00             	nop    DWORD PTR [rax]
    1aa0:	c6 05 4d c6 20 00 00 	mov    BYTE PTR [rip+0x20c64d],0x0        # 20e0f4 <status_only>
    1aa7:	c6 05 45 c6 20 00 01 	mov    BYTE PTR [rip+0x20c645],0x1        # 20e0f3 <warn>
    1aae:	c6 05 3c c6 20 00 00 	mov    BYTE PTR [rip+0x20c63c],0x0        # 20e0f1 <quiet>
    1ab5:	e9 de fe ff ff       	jmp    1998 <main+0x98>
    1aba:	66 0f 1f 44 00 00    	nop    WORD PTR [rax+rax*1+0x0]
    1ac0:	c6 05 2d c6 20 00 00 	mov    BYTE PTR [rip+0x20c62d],0x0        # 20e0f4 <status_only>
    1ac7:	c6 05 25 c6 20 00 00 	mov    BYTE PTR [rip+0x20c625],0x0        # 20e0f3 <warn>
    1ace:	c6 05 1c c6 20 00 01 	mov    BYTE PTR [rip+0x20c61c],0x1        # 20e0f1 <quiet>
    1ad5:	e9 be fe ff ff       	jmp    1998 <main+0x98>
    1ada:	66 0f 1f 44 00 00    	nop    WORD PTR [rax+rax*1+0x0]
    1ae0:	c6 05 09 c6 20 00 01 	mov    BYTE PTR [rip+0x20c609],0x1        # 20e0f0 <strict>
    1ae7:	e9 ac fe ff ff       	jmp    1998 <main+0x98>
    1aec:	0f 1f 40 00          	nop    DWORD PTR [rax+0x0]
    1af0:	c6 05 fd c5 20 00 01 	mov    BYTE PTR [rip+0x20c5fd],0x1        # 20e0f4 <status_only>
    1af7:	c6 05 f5 c5 20 00 00 	mov    BYTE PTR [rip+0x20c5f5],0x0        # 20e0f3 <warn>
    1afe:	c6 05 ec c5 20 00 00 	mov    BYTE PTR [rip+0x20c5ec],0x0        # 20e0f1 <quiet>
    1b05:	e9 8e fe ff ff       	jmp    1998 <main+0x98>
    1b0a:	66 0f 1f 44 00 00    	nop    WORD PTR [rax+rax*1+0x0]
    1b10:	c6 44 24 2b 01       	mov    BYTE PTR [rsp+0x2b],0x1
    1b15:	e9 7e fe ff ff       	jmp    1998 <main+0x98>
    1b1a:	66 0f 1f 44 00 00    	nop    WORD PTR [rax+rax*1+0x0]
    1b20:	bd 01 00 00 00       	mov    ebp,0x1
    1b25:	e9 6e fe ff ff       	jmp    1998 <main+0x98>
    1b2a:	66 0f 1f 44 00 00    	nop    WORD PTR [rax+rax*1+0x0]
    1b30:	c6 05 d9 c4 20 00 00 	mov    BYTE PTR [rip+0x20c4d9],0x0        # 20e010 <delim>
    1b37:	e9 5c fe ff ff       	jmp    1998 <main+0x98>
    1b3c:	85 ed                	test   ebp,ebp
    1b3e:	48 c7 05 b7 c5 20 00 	mov    QWORD PTR [rip+0x20c5b7],0x82        # 20e100 <min_digest_line_length>
    1b45:	82 00 00 00 
    1b49:	48 c7 05 a4 c5 20 00 	mov    QWORD PTR [rip+0x20c5a4],0x80        # 20e0f8 <digest_hex_bytes>
    1b50:	80 00 00 00 
    1b54:	0f 94 c0             	sete   al
    1b57:	84 44 24 78          	test   BYTE PTR [rsp+0x78],al
    1b5b:	0f 85 ba 0e 00 00    	jne    2a1b <main+0x111b>
    1b61:	80 3d a8 c4 20 00 0a 	cmp    BYTE PTR [rip+0x20c4a8],0xa        # 20e010 <delim>
    1b68:	74 70                	je     1bda <main+0x2da>
    1b6a:	80 7c 24 2b 00       	cmp    BYTE PTR [rsp+0x2b],0x0
    1b6f:	ba 05 00 00 00       	mov    edx,0x5
    1b74:	48 8d 35 0d 93 00 00 	lea    rsi,[rip+0x930d]        # ae88 <_IO_stdin_used+0x808>
    1b7b:	75 3e                	jne    1bbb <main+0x2bb>
    1b7d:	80 3d 6e c5 20 00 00 	cmp    BYTE PTR [rip+0x20c56e],0x0        # 20e0f2 <ignore_missing>
    1b84:	0f 85 a2 0e 00 00    	jne    2a2c <main+0x112c>
    1b8a:	80 3d 63 c5 20 00 00 	cmp    BYTE PTR [rip+0x20c563],0x0        # 20e0f4 <status_only>
    1b91:	0f 85 69 0e 00 00    	jne    2a00 <main+0x1100>
    1b97:	80 3d 55 c5 20 00 00 	cmp    BYTE PTR [rip+0x20c555],0x0        # 20e0f3 <warn>
    1b9e:	0f 84 01 03 00 00    	je     1ea5 <main+0x5a5>
    1ba4:	80 7c 24 2b 00       	cmp    BYTE PTR [rsp+0x2b],0x0
    1ba9:	ba 05 00 00 00       	mov    edx,0x5
    1bae:	48 8d 35 2b 94 00 00 	lea    rsi,[rip+0x942b]        # afe0 <_IO_stdin_used+0x960>
    1bb5:	0f 85 82 00 00 00    	jne    1c3d <main+0x33d>
    1bbb:	31 ff                	xor    edi,edi
    1bbd:	e8 9e fa ff ff       	call   1660 <dcgettext@plt>
    1bc2:	31 f6                	xor    esi,esi
    1bc4:	48 89 c2             	mov    rdx,rax
    1bc7:	31 ff                	xor    edi,edi
    1bc9:	31 c0                	xor    eax,eax
    1bcb:	e8 60 fc ff ff       	call   1830 <error@plt>
    1bd0:	bf 01 00 00 00       	mov    edi,0x1
    1bd5:	e8 c6 12 00 00       	call   2ea0 <usage>
    1bda:	80 7c 24 2b 00       	cmp    BYTE PTR [rsp+0x2b],0x0
    1bdf:	74 13                	je     1bf4 <main+0x2f4>
    1be1:	80 7c 24 78 00       	cmp    BYTE PTR [rsp+0x78],0x0
    1be6:	ba 05 00 00 00       	mov    edx,0x5
    1beb:	48 8d 35 d6 92 00 00 	lea    rsi,[rip+0x92d6]        # aec8 <_IO_stdin_used+0x848>
    1bf2:	75 c7                	jne    1bbb <main+0x2bb>
    1bf4:	85 ed                	test   ebp,ebp
    1bf6:	78 13                	js     1c0b <main+0x30b>
    1bf8:	80 7c 24 2b 00       	cmp    BYTE PTR [rsp+0x2b],0x0
    1bfd:	ba 05 00 00 00       	mov    edx,0x5
    1c02:	48 8d 35 ff 92 00 00 	lea    rsi,[rip+0x92ff]        # af08 <_IO_stdin_used+0x888>
    1c09:	75 b0                	jne    1bbb <main+0x2bb>
    1c0b:	80 3d e0 c4 20 00 00 	cmp    BYTE PTR [rip+0x20c4e0],0x0        # 20e0f2 <ignore_missing>
    1c12:	0f 84 d0 0d 00 00    	je     29e8 <main+0x10e8>
    1c18:	80 7c 24 2b 00       	cmp    BYTE PTR [rsp+0x2b],0x0
    1c1d:	0f 84 09 0e 00 00    	je     2a2c <main+0x112c>
    1c23:	80 3d ca c4 20 00 00 	cmp    BYTE PTR [rip+0x20c4ca],0x0        # 20e0f4 <status_only>
    1c2a:	0f 84 7d 09 00 00    	je     25ad <main+0xcad>
    1c30:	80 3d bc c4 20 00 00 	cmp    BYTE PTR [rip+0x20c4bc],0x0        # 20e0f3 <warn>
    1c37:	0f 84 68 02 00 00    	je     1ea5 <main+0x5a5>
    1c3d:	83 fd ff             	cmp    ebp,0xffffffff
    1c40:	75 02                	jne    1c44 <main+0x344>
    1c42:	31 ed                	xor    ebp,ebp
    1c44:	49 63 c4             	movsxd rax,r12d
    1c47:	48 8d 04 c3          	lea    rax,[rbx+rax*8]
    1c4b:	48 89 44 24 48       	mov    QWORD PTR [rsp+0x48],rax
    1c50:	48 63 05 61 c4 20 00 	movsxd rax,DWORD PTR [rip+0x20c461]        # 20e0b8 <optind@@GLIBC_2.2.5>
    1c57:	44 39 e0             	cmp    eax,r12d
    1c5a:	75 19                	jne    1c75 <main+0x375>
    1c5c:	48 8b 7c 24 48       	mov    rdi,QWORD PTR [rsp+0x48]
    1c61:	48 8d 35 ba 96 00 00 	lea    rsi,[rip+0x96ba]        # b322 <fillbuf+0xc2>
    1c68:	48 83 c7 08          	add    rdi,0x8
    1c6c:	48 89 77 f8          	mov    QWORD PTR [rdi-0x8],rsi
    1c70:	48 89 7c 24 48       	mov    QWORD PTR [rsp+0x48],rdi
    1c75:	48 8d 04 c3          	lea    rax,[rbx+rax*8]
    1c79:	48 39 44 24 48       	cmp    QWORD PTR [rsp+0x48],rax
    1c7e:	48 89 44 24 18       	mov    QWORD PTR [rsp+0x18],rax
    1c83:	0f 86 ab 0c 00 00    	jbe    2934 <main+0x1034>
    1c89:	83 fd 01             	cmp    ebp,0x1
    1c8c:	4c 8d 35 9d 95 00 00 	lea    r14,[rip+0x959d]        # b230 <bin2hex.7156>
    1c93:	c6 44 24 79 01       	mov    BYTE PTR [rsp+0x79],0x1
    1c98:	19 c0                	sbb    eax,eax
    1c9a:	83 e0 f6             	and    eax,0xfffffff6
    1c9d:	83 c0 2a             	add    eax,0x2a
    1ca0:	89 44 24 7c          	mov    DWORD PTR [rsp+0x7c],eax
    1ca4:	88 44 24 7b          	mov    BYTE PTR [rsp+0x7b],al
    1ca8:	0f 1f 84 00 00 00 00 	nop    DWORD PTR [rax+rax*1+0x0]
    1caf:	00 
    1cb0:	48 8b 44 24 18       	mov    rax,QWORD PTR [rsp+0x18]
    1cb5:	80 7c 24 2b 00       	cmp    BYTE PTR [rsp+0x2b],0x0
    1cba:	48 8b 30             	mov    rsi,QWORD PTR [rax]
    1cbd:	48 89 74 24 20       	mov    QWORD PTR [rsp+0x20],rsi
    1cc2:	0f 84 78 06 00 00    	je     2340 <main+0xa40>
    1cc8:	48 8d 3d 53 96 00 00 	lea    rdi,[rip+0x9653]        # b322 <fillbuf+0xc2>
    1ccf:	b9 02 00 00 00       	mov    ecx,0x2
    1cd4:	f3 a6                	repz cmps BYTE PTR ds:[rsi],BYTE PTR es:[rdi]
    1cd6:	0f 97 c0             	seta   al
    1cd9:	1c 00                	sbb    al,0x0
    1cdb:	0f be c0             	movsx  eax,al
    1cde:	85 c0                	test   eax,eax
    1ce0:	89 44 24 2c          	mov    DWORD PTR [rsp+0x2c],eax
    1ce4:	0f 85 2b 07 00 00    	jne    2415 <main+0xb15>
    1cea:	48 8d 35 95 8a 00 00 	lea    rsi,[rip+0x8a95]        # a786 <_IO_stdin_used+0x106>
    1cf1:	ba 05 00 00 00       	mov    edx,0x5
    1cf6:	31 ff                	xor    edi,edi
    1cf8:	c6 05 09 c4 20 00 01 	mov    BYTE PTR [rip+0x20c409],0x1        # 20e108 <have_read_stdin>
    1cff:	e8 5c f9 ff ff       	call   1660 <dcgettext@plt>
    1d04:	4c 8b 25 a5 c3 20 00 	mov    r12,QWORD PTR [rip+0x20c3a5]        # 20e0b0 <stdin@@GLIBC_2.2.5>
    1d0b:	48 89 44 24 20       	mov    QWORD PTR [rsp+0x20],rax
    1d10:	48 8d 84 24 98 00 00 	lea    rax,[rsp+0x98]
    1d17:	00 
    1d18:	48 c7 84 24 90 00 00 	mov    QWORD PTR [rsp+0x90],0x0
    1d1f:	00 00 00 00 00 
    1d24:	48 c7 84 24 98 00 00 	mov    QWORD PTR [rsp+0x98],0x0
    1d2b:	00 00 00 00 00 
    1d30:	c6 44 24 7a 00       	mov    BYTE PTR [rsp+0x7a],0x0
    1d35:	c6 44 24 30 00       	mov    BYTE PTR [rsp+0x30],0x0
    1d3a:	45 31 ed             	xor    r13d,r13d
    1d3d:	48 89 44 24 08       	mov    QWORD PTR [rsp+0x8],rax
    1d42:	48 8d 84 24 90 00 00 	lea    rax,[rsp+0x90]
    1d49:	00 
    1d4a:	48 c7 44 24 58 00 00 	mov    QWORD PTR [rsp+0x58],0x0
    1d51:	00 00 
    1d53:	48 c7 44 24 50 00 00 	mov    QWORD PTR [rsp+0x50],0x0
    1d5a:	00 00 
    1d5c:	bd 01 00 00 00       	mov    ebp,0x1
    1d61:	48 89 44 24 10       	mov    QWORD PTR [rsp+0x10],rax
    1d66:	48 8d 84 24 8f 00 00 	lea    rax,[rsp+0x8f]
    1d6d:	00 
    1d6e:	48 89 44 24 40       	mov    QWORD PTR [rsp+0x40],rax
    1d73:	48 8d 84 24 f0 00 00 	lea    rax,[rsp+0xf0]
    1d7a:	00 
    1d7b:	48 89 44 24 38       	mov    QWORD PTR [rsp+0x38],rax
    1d80:	48 8b 74 24 08       	mov    rsi,QWORD PTR [rsp+0x8]
    1d85:	48 8b 7c 24 10       	mov    rdi,QWORD PTR [rsp+0x10]
    1d8a:	4c 89 e1             	mov    rcx,r12
    1d8d:	ba 0a 00 00 00       	mov    edx,0xa
    1d92:	e8 c9 f9 ff ff       	call   1760 <__getdelim@plt>
    1d97:	48 85 c0             	test   rax,rax
    1d9a:	0f 8e fc 02 00 00    	jle    209c <main+0x79c>
    1da0:	48 8b 9c 24 90 00 00 	mov    rbx,QWORD PTR [rsp+0x90]
    1da7:	00 
    1da8:	0f b6 0b             	movzx  ecx,BYTE PTR [rbx]
    1dab:	80 f9 23             	cmp    cl,0x23
    1dae:	0f 84 a1 00 00 00    	je     1e55 <main+0x555>
    1db4:	80 7c 03 ff 0a       	cmp    BYTE PTR [rbx+rax*1-0x1],0xa
    1db9:	49 89 c7             	mov    r15,rax
    1dbc:	75 14                	jne    1dd2 <main+0x4d2>
    1dbe:	49 83 ef 01          	sub    r15,0x1
    1dc2:	42 c6 04 3b 00       	mov    BYTE PTR [rbx+r15*1],0x0
    1dc7:	48 8b 9c 24 90 00 00 	mov    rbx,QWORD PTR [rsp+0x90]
    1dce:	00 
    1dcf:	0f b6 0b             	movzx  ecx,BYTE PTR [rbx]
    1dd2:	80 f9 09             	cmp    cl,0x9
    1dd5:	74 07                	je     1dde <main+0x4de>
    1dd7:	31 d2                	xor    edx,edx
    1dd9:	80 f9 20             	cmp    cl,0x20
    1ddc:	75 14                	jne    1df2 <main+0x4f2>
    1dde:	31 d2                	xor    edx,edx
    1de0:	48 83 c2 01          	add    rdx,0x1
    1de4:	0f b6 0c 13          	movzx  ecx,BYTE PTR [rbx+rdx*1]
    1de8:	80 f9 20             	cmp    cl,0x20
    1deb:	74 f3                	je     1de0 <main+0x4e0>
    1ded:	80 f9 09             	cmp    cl,0x9
    1df0:	74 ee                	je     1de0 <main+0x4e0>
    1df2:	45 31 c9             	xor    r9d,r9d
    1df5:	80 f9 5c             	cmp    cl,0x5c
    1df8:	75 0a                	jne    1e04 <main+0x504>
    1dfa:	44 0f b6 4c 24 2b    	movzx  r9d,BYTE PTR [rsp+0x2b]
    1e00:	48 83 c2 01          	add    rdx,0x1
    1e04:	4c 8d 04 13          	lea    r8,[rbx+rdx*1]
    1e08:	48 8d 3d 85 88 00 00 	lea    rdi,[rip+0x8885]        # a694 <_IO_stdin_used+0x14>
    1e0f:	b9 06 00 00 00       	mov    ecx,0x6
    1e14:	4c 89 c6             	mov    rsi,r8
    1e17:	f3 a6                	repz cmps BYTE PTR ds:[rsi],BYTE PTR es:[rdi]
    1e19:	0f 97 c0             	seta   al
    1e1c:	1c 00                	sbb    al,0x0
    1e1e:	84 c0                	test   al,al
    1e20:	0f 85 ca 00 00 00    	jne    1ef0 <main+0x5f0>
    1e26:	0f b6 44 13 06       	movzx  eax,BYTE PTR [rbx+rdx*1+0x6]
    1e2b:	48 8d 4a 06          	lea    rcx,[rdx+0x6]
    1e2f:	3c 20                	cmp    al,0x20
    1e31:	75 09                	jne    1e3c <main+0x53c>
    1e33:	0f b6 44 13 07       	movzx  eax,BYTE PTR [rbx+rdx*1+0x7]
    1e38:	48 8d 4a 07          	lea    rcx,[rdx+0x7]
    1e3c:	3c 28                	cmp    al,0x28
    1e3e:	0f 84 80 05 00 00    	je     23c4 <main+0xac4>
    1e44:	49 83 c5 01          	add    r13,0x1
    1e48:	80 3d a4 c2 20 00 00 	cmp    BYTE PTR [rip+0x20c2a4],0x0        # 20e0f3 <warn>
    1e4f:	0f 85 7b 03 00 00    	jne    21d0 <main+0x8d0>
    1e55:	41 f6 04 24 30       	test   BYTE PTR [r12],0x30
    1e5a:	0f 85 3c 02 00 00    	jne    209c <main+0x79c>
    1e60:	48 83 c5 01          	add    rbp,0x1
    1e64:	0f 85 16 ff ff ff    	jne    1d80 <main+0x480>
    1e6a:	48 8b 54 24 20       	mov    rdx,QWORD PTR [rsp+0x20]
    1e6f:	be 03 00 00 00       	mov    esi,0x3
    1e74:	31 ff                	xor    edi,edi
    1e76:	e8 55 77 00 00       	call   95d0 <quotearg_n_style_colon>
    1e7b:	48 8d 35 13 89 00 00 	lea    rsi,[rip+0x8913]        # a795 <_IO_stdin_used+0x115>
    1e82:	48 89 c3             	mov    rbx,rax
    1e85:	ba 05 00 00 00       	mov    edx,0x5
    1e8a:	31 ff                	xor    edi,edi
    1e8c:	e8 cf f7 ff ff       	call   1660 <dcgettext@plt>
    1e91:	48 89 d9             	mov    rcx,rbx
    1e94:	48 89 c2             	mov    rdx,rax
    1e97:	31 f6                	xor    esi,esi
    1e99:	bf 01 00 00 00       	mov    edi,0x1
    1e9e:	31 c0                	xor    eax,eax
    1ea0:	e8 8b f9 ff ff       	call   1830 <error@plt>
    1ea5:	80 3d 45 c2 20 00 01 	cmp    BYTE PTR [rip+0x20c245],0x1        # 20e0f1 <quiet>
    1eac:	75 17                	jne    1ec5 <main+0x5c5>
    1eae:	80 7c 24 2b 00       	cmp    BYTE PTR [rsp+0x2b],0x0
    1eb3:	ba 05 00 00 00       	mov    edx,0x5
    1eb8:	48 8d 35 61 91 00 00 	lea    rsi,[rip+0x9161]        # b020 <_IO_stdin_used+0x9a0>
    1ebf:	0f 84 f6 fc ff ff    	je     1bbb <main+0x2bb>
    1ec5:	80 3d 24 c2 20 00 00 	cmp    BYTE PTR [rip+0x20c224],0x0        # 20e0f0 <strict>
    1ecc:	0f 84 6b fd ff ff    	je     1c3d <main+0x33d>
    1ed2:	80 7c 24 2b 00       	cmp    BYTE PTR [rsp+0x2b],0x0
    1ed7:	ba 05 00 00 00       	mov    edx,0x5
    1edc:	48 8d 35 7d 91 00 00 	lea    rsi,[rip+0x917d]        # b060 <_IO_stdin_used+0x9e0>
    1ee3:	0f 85 54 fd ff ff    	jne    1c3d <main+0x33d>
    1ee9:	e9 cd fc ff ff       	jmp    1bbb <main+0x2bb>
    1eee:	66 90                	xchg   ax,ax
    1ef0:	4c 89 f9             	mov    rcx,r15
    1ef3:	31 c0                	xor    eax,eax
    1ef5:	48 29 d1             	sub    rcx,rdx
    1ef8:	41 80 38 5c          	cmp    BYTE PTR [r8],0x5c
    1efc:	0f 94 c0             	sete   al
    1eff:	48 03 05 fa c1 20 00 	add    rax,QWORD PTR [rip+0x20c1fa]        # 20e100 <min_digest_line_length>
    1f06:	48 39 c1             	cmp    rcx,rax
    1f09:	0f 82 35 ff ff ff    	jb     1e44 <main+0x544>
    1f0f:	48 03 15 e2 c1 20 00 	add    rdx,QWORD PTR [rip+0x20c1e2]        # 20e0f8 <digest_hex_bytes>
    1f16:	48 8d 0c 13          	lea    rcx,[rbx+rdx*1]
    1f1a:	0f b6 01             	movzx  eax,BYTE PTR [rcx]
    1f1d:	3c 20                	cmp    al,0x20
    1f1f:	74 08                	je     1f29 <main+0x629>
    1f21:	3c 09                	cmp    al,0x9
    1f23:	0f 85 1b ff ff ff    	jne    1e44 <main+0x544>
    1f29:	c6 01 00             	mov    BYTE PTR [rcx],0x0
    1f2c:	4c 89 c7             	mov    rdi,r8
    1f2f:	48 89 54 24 70       	mov    QWORD PTR [rsp+0x70],rdx
    1f34:	44 88 4c 24 68       	mov    BYTE PTR [rsp+0x68],r9b
    1f39:	4c 89 44 24 60       	mov    QWORD PTR [rsp+0x60],r8
    1f3e:	e8 8d 0c 00 00       	call   2bd0 <hex_digits>
    1f43:	84 c0                	test   al,al
    1f45:	0f 84 f9 fe ff ff    	je     1e44 <main+0x544>
    1f4b:	48 8b 54 24 70       	mov    rdx,QWORD PTR [rsp+0x70]
    1f50:	4c 89 f9             	mov    rcx,r15
    1f53:	8b 35 bb c0 20 00    	mov    esi,DWORD PTR [rip+0x20c0bb]        # 20e014 <bsd_reversed>
    1f59:	4c 8b 44 24 60       	mov    r8,QWORD PTR [rsp+0x60]
    1f5e:	44 0f b6 4c 24 68    	movzx  r9d,BYTE PTR [rsp+0x68]
    1f64:	48 8d 42 01          	lea    rax,[rdx+0x1]
    1f68:	48 29 c1             	sub    rcx,rax
    1f6b:	48 83 e9 01          	sub    rcx,0x1
    1f6f:	74 17                	je     1f88 <main+0x688>
    1f71:	0f b6 4c 13 01       	movzx  ecx,BYTE PTR [rbx+rdx*1+0x1]
    1f76:	80 f9 20             	cmp    cl,0x20
    1f79:	0f 84 65 07 00 00    	je     26e4 <main+0xde4>
    1f7f:	80 f9 2a             	cmp    cl,0x2a
    1f82:	0f 84 5c 07 00 00    	je     26e4 <main+0xde4>
    1f88:	85 f6                	test   esi,esi
    1f8a:	0f 84 b4 fe ff ff    	je     1e44 <main+0x544>
    1f90:	c7 05 7a c0 20 00 01 	mov    DWORD PTR [rip+0x20c07a],0x1        # 20e014 <bsd_reversed>
    1f97:	00 00 00 
    1f9a:	48 01 c3             	add    rbx,rax
    1f9d:	45 84 c9             	test   r9b,r9b
    1fa0:	0f 85 9b 07 00 00    	jne    2741 <main+0xe41>
    1fa6:	8b 44 24 2c          	mov    eax,DWORD PTR [rsp+0x2c]
    1faa:	85 c0                	test   eax,eax
    1fac:	75 1e                	jne    1fcc <main+0x6cc>
    1fae:	48 8d 3d 6d 93 00 00 	lea    rdi,[rip+0x936d]        # b322 <fillbuf+0xc2>
    1fb5:	b9 02 00 00 00       	mov    ecx,0x2
    1fba:	48 89 de             	mov    rsi,rbx
    1fbd:	f3 a6                	repz cmps BYTE PTR ds:[rsi],BYTE PTR es:[rdi]
    1fbf:	0f 97 c0             	seta   al
    1fc2:	1c 00                	sbb    al,0x0
    1fc4:	84 c0                	test   al,al
    1fc6:	0f 84 78 fe ff ff    	je     1e44 <main+0x544>
    1fcc:	45 31 ff             	xor    r15d,r15d
    1fcf:	80 3d 1e c1 20 00 00 	cmp    BYTE PTR [rip+0x20c11e],0x0        # 20e0f4 <status_only>
    1fd6:	75 21                	jne    1ff9 <main+0x6f9>
    1fd8:	be 0a 00 00 00       	mov    esi,0xa
    1fdd:	48 89 df             	mov    rdi,rbx
    1fe0:	4c 89 44 24 30       	mov    QWORD PTR [rsp+0x30],r8
    1fe5:	e8 d6 f6 ff ff       	call   16c0 <strchr@plt>
    1fea:	4c 8b 44 24 30       	mov    r8,QWORD PTR [rsp+0x30]
    1fef:	45 31 ff             	xor    r15d,r15d
    1ff2:	48 85 c0             	test   rax,rax
    1ff5:	41 0f 95 c7          	setne  r15b
    1ff9:	48 8b 54 24 40       	mov    rdx,QWORD PTR [rsp+0x40]
    1ffe:	48 8b 74 24 38       	mov    rsi,QWORD PTR [rsp+0x38]
    2003:	48 89 df             	mov    rdi,rbx
    2006:	4c 89 44 24 30       	mov    QWORD PTR [rsp+0x30],r8
    200b:	e8 f0 0c 00 00       	call   2d00 <digest_file.isra.1>
    2010:	84 c0                	test   al,al
    2012:	41 89 c1             	mov    r9d,eax
    2015:	4c 8b 44 24 30       	mov    r8,QWORD PTR [rsp+0x30]
    201a:	0f 85 00 02 00 00    	jne    2220 <main+0x920>
    2020:	48 83 44 24 50 01    	add    QWORD PTR [rsp+0x50],0x1
    2026:	80 3d c7 c0 20 00 00 	cmp    BYTE PTR [rip+0x20c0c7],0x0        # 20e0f4 <status_only>
    202d:	75 59                	jne    2088 <main+0x788>
    202f:	45 85 ff             	test   r15d,r15d
    2032:	74 20                	je     2054 <main+0x754>
    2034:	48 8b 3d 6d c0 20 00 	mov    rdi,QWORD PTR [rip+0x20c06d]        # 20e0a8 <stdout@@GLIBC_2.2.5>
    203b:	48 8b 47 28          	mov    rax,QWORD PTR [rdi+0x28]
    203f:	48 3b 47 30          	cmp    rax,QWORD PTR [rdi+0x30]
    2043:	0f 83 1b 09 00 00    	jae    2964 <main+0x1064>
    2049:	48 8d 50 01          	lea    rdx,[rax+0x1]
    204d:	48 89 57 28          	mov    QWORD PTR [rdi+0x28],rdx
    2051:	c6 00 5c             	mov    BYTE PTR [rax],0x5c
    2054:	44 89 fe             	mov    esi,r15d
    2057:	48 89 df             	mov    rdi,rbx
    205a:	e8 d1 0b 00 00       	call   2c30 <print_filename>
    205f:	48 8d 35 4b 87 00 00 	lea    rsi,[rip+0x874b]        # a7b1 <_IO_stdin_used+0x131>
    2066:	ba 05 00 00 00       	mov    edx,0x5
    206b:	31 ff                	xor    edi,edi
    206d:	e8 ee f5 ff ff       	call   1660 <dcgettext@plt>
    2072:	48 8d 35 f8 97 00 00 	lea    rsi,[rip+0x97f8]        # b871 <quoting_style_vals+0x91>
    2079:	48 89 c2             	mov    rdx,rax
    207c:	bf 01 00 00 00       	mov    edi,0x1
    2081:	31 c0                	xor    eax,eax
    2083:	e8 88 f7 ff ff       	call   1810 <__printf_chk@plt>
    2088:	0f b6 44 24 2b       	movzx  eax,BYTE PTR [rsp+0x2b]
    208d:	41 f6 04 24 30       	test   BYTE PTR [r12],0x30
    2092:	88 44 24 30          	mov    BYTE PTR [rsp+0x30],al
    2096:	0f 84 c4 fd ff ff    	je     1e60 <main+0x560>
    209c:	48 8b bc 24 90 00 00 	mov    rdi,QWORD PTR [rsp+0x90]
    20a3:	00 
    20a4:	e8 07 f5 ff ff       	call   15b0 <free@plt>
    20a9:	41 8b 1c 24          	mov    ebx,DWORD PTR [r12]
    20ad:	83 e3 20             	and    ebx,0x20
    20b0:	0f 85 b8 04 00 00    	jne    256e <main+0xc6e>
    20b6:	83 7c 24 2c 00       	cmp    DWORD PTR [rsp+0x2c],0x0
    20bb:	0f 85 67 05 00 00    	jne    2628 <main+0xd28>
    20c1:	80 7c 24 30 00       	cmp    BYTE PTR [rsp+0x30],0x0
    20c6:	0f 84 79 05 00 00    	je     2645 <main+0xd45>
    20cc:	80 3d 21 c0 20 00 00 	cmp    BYTE PTR [rip+0x20c021],0x0        # 20e0f4 <status_only>
    20d3:	0f 85 85 04 00 00    	jne    255e <main+0xc5e>
    20d9:	4d 85 ed             	test   r13,r13
    20dc:	74 2f                	je     210d <main+0x80d>
    20de:	48 8d 15 23 90 00 00 	lea    rdx,[rip+0x9023]        # b108 <_IO_stdin_used+0xa88>
    20e5:	48 8d 35 4c 90 00 00 	lea    rsi,[rip+0x904c]        # b138 <_IO_stdin_used+0xab8>
    20ec:	4c 89 e9             	mov    rcx,r13
    20ef:	31 ff                	xor    edi,edi
    20f1:	41 b8 05 00 00 00    	mov    r8d,0x5
    20f7:	e8 64 f7 ff ff       	call   1860 <dcngettext@plt>
    20fc:	4c 89 e9             	mov    rcx,r13
    20ff:	48 89 c2             	mov    rdx,rax
    2102:	31 f6                	xor    esi,esi
    2104:	31 ff                	xor    edi,edi
    2106:	31 c0                	xor    eax,eax
    2108:	e8 23 f7 ff ff       	call   1830 <error@plt>
    210d:	48 83 7c 24 50 00    	cmp    QWORD PTR [rsp+0x50],0x0
    2113:	74 34                	je     2149 <main+0x849>
    2115:	4c 8b 7c 24 50       	mov    r15,QWORD PTR [rsp+0x50]
    211a:	48 8d 15 47 90 00 00 	lea    rdx,[rip+0x9047]        # b168 <_IO_stdin_used+0xae8>
    2121:	48 8d 35 70 90 00 00 	lea    rsi,[rip+0x9070]        # b198 <_IO_stdin_used+0xb18>
    2128:	31 ff                	xor    edi,edi
    212a:	41 b8 05 00 00 00    	mov    r8d,0x5
    2130:	4c 89 f9             	mov    rcx,r15
    2133:	e8 28 f7 ff ff       	call   1860 <dcngettext@plt>
    2138:	4c 89 f9             	mov    rcx,r15
    213b:	48 89 c2             	mov    rdx,rax
    213e:	31 f6                	xor    esi,esi
    2140:	31 ff                	xor    edi,edi
    2142:	31 c0                	xor    eax,eax
    2144:	e8 e7 f6 ff ff       	call   1830 <error@plt>
    2149:	48 83 7c 24 58 00    	cmp    QWORD PTR [rsp+0x58],0x0
    214f:	74 34                	je     2185 <main+0x885>
    2151:	4c 8b 7c 24 58       	mov    r15,QWORD PTR [rsp+0x58]
    2156:	48 8d 15 6b 90 00 00 	lea    rdx,[rip+0x906b]        # b1c8 <_IO_stdin_used+0xb48>
    215d:	48 8d 35 94 90 00 00 	lea    rsi,[rip+0x9094]        # b1f8 <_IO_stdin_used+0xb78>
    2164:	31 ff                	xor    edi,edi
    2166:	41 b8 05 00 00 00    	mov    r8d,0x5
    216c:	4c 89 f9             	mov    rcx,r15
    216f:	e8 ec f6 ff ff       	call   1860 <dcngettext@plt>
    2174:	4c 89 f9             	mov    rcx,r15
    2177:	48 89 c2             	mov    rdx,rax
    217a:	31 f6                	xor    esi,esi
    217c:	31 ff                	xor    edi,edi
    217e:	31 c0                	xor    eax,eax
    2180:	e8 ab f6 ff ff       	call   1830 <error@plt>
    2185:	80 3d 66 bf 20 00 00 	cmp    BYTE PTR [rip+0x20bf66],0x0        # 20e0f2 <ignore_missing>
    218c:	0f 84 cc 03 00 00    	je     255e <main+0xc5e>
    2192:	80 7c 24 7a 00       	cmp    BYTE PTR [rsp+0x7a],0x0
    2197:	0f 84 5a 07 00 00    	je     28f7 <main+0xff7>
    219d:	48 8b 44 24 50       	mov    rax,QWORD PTR [rsp+0x50]
    21a2:	48 0b 44 24 58       	or     rax,QWORD PTR [rsp+0x58]
    21a7:	75 15                	jne    21be <main+0x8be>
    21a9:	0f b6 05 40 bf 20 00 	movzx  eax,BYTE PTR [rip+0x20bf40]        # 20e0f0 <strict>
    21b0:	83 f0 01             	xor    eax,0x1
    21b3:	4d 85 ed             	test   r13,r13
    21b6:	0f 94 c3             	sete   bl
    21b9:	09 d8                	or     eax,ebx
    21bb:	0f b6 d8             	movzx  ebx,al
    21be:	89 d8                	mov    eax,ebx
    21c0:	83 e0 01             	and    eax,0x1
    21c3:	20 44 24 79          	and    BYTE PTR [rsp+0x79],al
    21c7:	e9 a1 01 00 00       	jmp    236d <main+0xa6d>
    21cc:	0f 1f 40 00          	nop    DWORD PTR [rax+0x0]
    21d0:	48 8b 54 24 20       	mov    rdx,QWORD PTR [rsp+0x20]
    21d5:	31 ff                	xor    edi,edi
    21d7:	be 03 00 00 00       	mov    esi,0x3
    21dc:	e8 ef 73 00 00       	call   95d0 <quotearg_n_style_colon>
    21e1:	48 8d 35 b8 8e 00 00 	lea    rsi,[rip+0x8eb8]        # b0a0 <_IO_stdin_used+0xa20>
    21e8:	31 ff                	xor    edi,edi
    21ea:	ba 05 00 00 00       	mov    edx,0x5
    21ef:	48 89 c3             	mov    rbx,rax
    21f2:	e8 69 f4 ff ff       	call   1660 <dcgettext@plt>
    21f7:	4c 8d 0d 96 84 00 00 	lea    r9,[rip+0x8496]        # a694 <_IO_stdin_used+0x14>
    21fe:	48 89 c2             	mov    rdx,rax
    2201:	49 89 e8             	mov    r8,rbp
    2204:	48 89 d9             	mov    rcx,rbx
    2207:	31 f6                	xor    esi,esi
    2209:	31 ff                	xor    edi,edi
    220b:	31 c0                	xor    eax,eax
    220d:	e8 1e f6 ff ff       	call   1830 <error@plt>
    2212:	e9 3e fc ff ff       	jmp    1e55 <main+0x555>
    2217:	66 0f 1f 84 00 00 00 	nop    WORD PTR [rax+rax*1+0x0]
    221e:	00 00 
    2220:	80 3d cb be 20 00 00 	cmp    BYTE PTR [rip+0x20becb],0x0        # 20e0f2 <ignore_missing>
    2227:	74 0e                	je     2237 <main+0x937>
    2229:	80 bc 24 8f 00 00 00 	cmp    BYTE PTR [rsp+0x8f],0x0
    2230:	00 
    2231:	0f 85 51 fe ff ff    	jne    2088 <main+0x788>
    2237:	48 8b 0d ba be 20 00 	mov    rcx,QWORD PTR [rip+0x20beba]        # 20e0f8 <digest_hex_bytes>
    223e:	4c 89 44 24 68       	mov    QWORD PTR [rsp+0x68],r8
    2243:	48 d1 e9             	shr    rcx,1
    2246:	0f 84 73 03 00 00    	je     25bf <main+0xcbf>
    224c:	48 89 4c 24 60       	mov    QWORD PTR [rsp+0x60],rcx
    2251:	44 88 4c 24 30       	mov    BYTE PTR [rsp+0x30],r9b
    2256:	e8 75 f6 ff ff       	call   18d0 <__ctype_tolower_loc@plt>
    225b:	31 d2                	xor    edx,edx
    225d:	48 8b 38             	mov    rdi,QWORD PTR [rax]
    2260:	44 0f b6 4c 24 30    	movzx  r9d,BYTE PTR [rsp+0x30]
    2266:	48 8b 4c 24 60       	mov    rcx,QWORD PTR [rsp+0x60]
    226b:	4c 8b 44 24 68       	mov    r8,QWORD PTR [rsp+0x68]
    2270:	4c 8b 54 24 38       	mov    r10,QWORD PTR [rsp+0x38]
    2275:	eb 29                	jmp    22a0 <main+0x9a0>
    2277:	66 0f 1f 84 00 00 00 	nop    WORD PTR [rax+rax*1+0x0]
    227e:	00 00 
    2280:	41 0f b6 74 50 01    	movzx  esi,BYTE PTR [r8+rdx*2+0x1]
    2286:	83 e0 0f             	and    eax,0xf
    2289:	41 0f be 04 06       	movsx  eax,BYTE PTR [r14+rax*1]
    228e:	39 04 b7             	cmp    DWORD PTR [rdi+rsi*4],eax
    2291:	75 2b                	jne    22be <main+0x9be>
    2293:	48 83 c2 01          	add    rdx,0x1
    2297:	48 39 d1             	cmp    rcx,rdx
    229a:	0f 84 9d 03 00 00    	je     263d <main+0xd3d>
    22a0:	41 0f b6 04 12       	movzx  eax,BYTE PTR [r10+rdx*1]
    22a5:	45 0f b6 1c 50       	movzx  r11d,BYTE PTR [r8+rdx*2]
    22aa:	89 c6                	mov    esi,eax
    22ac:	40 c0 ee 04          	shr    sil,0x4
    22b0:	83 e6 0f             	and    esi,0xf
    22b3:	41 0f be 34 36       	movsx  esi,BYTE PTR [r14+rsi*1]
    22b8:	42 39 34 9f          	cmp    DWORD PTR [rdi+r11*4],esi
    22bc:	74 c2                	je     2280 <main+0x980>
    22be:	48 39 d1             	cmp    rcx,rdx
    22c1:	0f 84 fa 02 00 00    	je     25c1 <main+0xcc1>
    22c7:	48 83 44 24 58 01    	add    QWORD PTR [rsp+0x58],0x1
    22cd:	80 3d 20 be 20 00 00 	cmp    BYTE PTR [rip+0x20be20],0x0        # 20e0f4 <status_only>
    22d4:	0f 85 ae fd ff ff    	jne    2088 <main+0x788>
    22da:	45 85 ff             	test   r15d,r15d
    22dd:	0f 84 05 06 00 00    	je     28e8 <main+0xfe8>
    22e3:	48 8b 3d be bd 20 00 	mov    rdi,QWORD PTR [rip+0x20bdbe]        # 20e0a8 <stdout@@GLIBC_2.2.5>
    22ea:	48 8b 47 28          	mov    rax,QWORD PTR [rdi+0x28]
    22ee:	48 3b 47 30          	cmp    rax,QWORD PTR [rdi+0x30]
    22f2:	0f 83 a7 06 00 00    	jae    299f <main+0x109f>
    22f8:	48 8d 70 01          	lea    rsi,[rax+0x1]
    22fc:	48 89 77 28          	mov    QWORD PTR [rdi+0x28],rsi
    2300:	c6 00 5c             	mov    BYTE PTR [rax],0x5c
    2303:	be 01 00 00 00       	mov    esi,0x1
    2308:	48 89 df             	mov    rdi,rbx
    230b:	48 89 4c 24 60       	mov    QWORD PTR [rsp+0x60],rcx
    2310:	48 89 54 24 30       	mov    QWORD PTR [rsp+0x30],rdx
    2315:	e8 16 09 00 00       	call   2c30 <print_filename>
    231a:	48 8b 54 24 30       	mov    rdx,QWORD PTR [rsp+0x30]
    231f:	48 8b 4c 24 60       	mov    rcx,QWORD PTR [rsp+0x60]
    2324:	48 39 ca             	cmp    rdx,rcx
    2327:	0f 84 dd 02 00 00    	je     260a <main+0xd0a>
    232d:	ba 05 00 00 00       	mov    edx,0x5
    2332:	48 8d 35 8c 84 00 00 	lea    rsi,[rip+0x848c]        # a7c5 <_IO_stdin_used+0x145>
    2339:	e9 2d fd ff ff       	jmp    206b <main+0x76b>
    233e:	66 90                	xchg   ax,ax
    2340:	48 8d 84 24 98 00 00 	lea    rax,[rsp+0x98]
    2347:	00 
    2348:	48 8d 9c 24 a0 00 00 	lea    rbx,[rsp+0xa0]
    234f:	00 
    2350:	48 8b 7c 24 20       	mov    rdi,QWORD PTR [rsp+0x20]
    2355:	48 89 c2             	mov    rdx,rax
    2358:	48 89 de             	mov    rsi,rbx
    235b:	e8 a0 09 00 00       	call   2d00 <digest_file.isra.1>
    2360:	84 c0                	test   al,al
    2362:	0f 85 ff 00 00 00    	jne    2467 <main+0xb67>
    2368:	c6 44 24 79 00       	mov    BYTE PTR [rsp+0x79],0x0
    236d:	48 83 44 24 18 08    	add    QWORD PTR [rsp+0x18],0x8
    2373:	48 8b 44 24 18       	mov    rax,QWORD PTR [rsp+0x18]
    2378:	48 39 44 24 48       	cmp    QWORD PTR [rsp+0x48],rax
    237d:	0f 87 2d f9 ff ff    	ja     1cb0 <main+0x3b0>
    2383:	80 3d 7e bd 20 00 00 	cmp    BYTE PTR [rip+0x20bd7e],0x0        # 20e108 <have_read_stdin>
    238a:	0f 85 70 03 00 00    	jne    2700 <main+0xe00>
    2390:	0f b6 44 24 79       	movzx  eax,BYTE PTR [rsp+0x79]
    2395:	83 f0 01             	xor    eax,0x1
    2398:	48 8b bc 24 38 01 00 	mov    rdi,QWORD PTR [rsp+0x138]
    239f:	00 
    23a0:	64 48 33 3c 25 28 00 	xor    rdi,QWORD PTR fs:0x28
    23a7:	00 00 
    23a9:	0f b6 c0             	movzx  eax,al
    23ac:	0f 85 31 06 00 00    	jne    29e3 <main+0x10e3>
    23b2:	48 81 c4 48 01 00 00 	add    rsp,0x148
    23b9:	5b                   	pop    rbx
    23ba:	5d                   	pop    rbp
    23bb:	41 5c                	pop    r12
    23bd:	41 5d                	pop    r13
    23bf:	41 5e                	pop    r14
    23c1:	41 5f                	pop    r15
    23c3:	c3                   	ret    
    23c4:	48 83 c1 01          	add    rcx,0x1
    23c8:	49 29 cf             	sub    r15,rcx
    23cb:	0f 84 73 fa ff ff    	je     1e44 <main+0x544>
    23d1:	4d 89 fa             	mov    r10,r15
    23d4:	48 01 cb             	add    rbx,rcx
    23d7:	49 83 ea 01          	sub    r10,0x1
    23db:	74 24                	je     2401 <main+0xb01>
    23dd:	42 80 7c 3b ff 29    	cmp    BYTE PTR [rbx+r15*1-0x1],0x29
    23e3:	75 16                	jne    23fb <main+0xafb>
    23e5:	e9 9f 02 00 00       	jmp    2689 <main+0xd89>
    23ea:	66 0f 1f 44 00 00    	nop    WORD PTR [rax+rax*1+0x0]
    23f0:	42 80 3c 13 29       	cmp    BYTE PTR [rbx+r10*1],0x29
    23f5:	0f 84 8e 02 00 00    	je     2689 <main+0xd89>
    23fb:	49 83 ea 01          	sub    r10,0x1
    23ff:	75 ef                	jne    23f0 <main+0xaf0>
    2401:	80 3b 29             	cmp    BYTE PTR [rbx],0x29
    2404:	0f 85 3a fa ff ff    	jne    1e44 <main+0x544>
    240a:	49 89 db             	mov    r11,rbx
    240d:	45 31 d2             	xor    r10d,r10d
    2410:	e9 78 02 00 00       	jmp    268d <main+0xd8d>
    2415:	48 8b 7c 24 20       	mov    rdi,QWORD PTR [rsp+0x20]
    241a:	48 8d 35 41 83 00 00 	lea    rsi,[rip+0x8341]        # a762 <_IO_stdin_used+0xe2>
    2421:	e8 ca 55 00 00       	call   79f0 <fopen_safer>
    2426:	48 85 c0             	test   rax,rax
    2429:	49 89 c4             	mov    r12,rax
    242c:	0f 85 de f8 ff ff    	jne    1d10 <main+0x410>
    2432:	48 8b 54 24 20       	mov    rdx,QWORD PTR [rsp+0x20]
    2437:	be 03 00 00 00       	mov    esi,0x3
    243c:	31 ff                	xor    edi,edi
    243e:	e8 8d 71 00 00       	call   95d0 <quotearg_n_style_colon>
    2443:	48 89 c3             	mov    rbx,rax
    2446:	e8 85 f1 ff ff       	call   15d0 <__errno_location@plt>
    244b:	8b 30                	mov    esi,DWORD PTR [rax]
    244d:	48 8d 15 01 8e 00 00 	lea    rdx,[rip+0x8e01]        # b255 <bin2hex.7156+0x25>
    2454:	31 c0                	xor    eax,eax
    2456:	48 89 d9             	mov    rcx,rbx
    2459:	31 ff                	xor    edi,edi
    245b:	e8 d0 f3 ff ff       	call   1830 <error@plt>
    2460:	31 c0                	xor    eax,eax
    2462:	e9 5c fd ff ff       	jmp    21c3 <main+0x8c3>
    2467:	48 8b 7c 24 20       	mov    rdi,QWORD PTR [rsp+0x20]
    246c:	be 5c 00 00 00       	mov    esi,0x5c
    2471:	e8 4a f2 ff ff       	call   16c0 <strchr@plt>
    2476:	48 85 c0             	test   rax,rax
    2479:	0f 84 d2 03 00 00    	je     2851 <main+0xf51>
    247f:	80 3d 8a bb 20 00 0a 	cmp    BYTE PTR [rip+0x20bb8a],0xa        # 20e010 <delim>
    2486:	0f 84 e0 02 00 00    	je     276c <main+0xe6c>
    248c:	80 7c 24 78 00       	cmp    BYTE PTR [rsp+0x78],0x0
    2491:	0f 85 d7 03 00 00    	jne    286e <main+0xf6e>
    2497:	48 8b 05 5a bc 20 00 	mov    rax,QWORD PTR [rip+0x20bc5a]        # 20e0f8 <digest_hex_bytes>
    249e:	31 ed                	xor    ebp,ebp
    24a0:	48 d1 e8             	shr    rax,1
    24a3:	74 3d                	je     24e2 <main+0xbe2>
    24a5:	45 31 e4             	xor    r12d,r12d
    24a8:	0f 1f 84 00 00 00 00 	nop    DWORD PTR [rax+rax*1+0x0]
    24af:	00 
    24b0:	42 0f b6 14 23       	movzx  edx,BYTE PTR [rbx+r12*1]
    24b5:	48 8d 35 3b 83 00 00 	lea    rsi,[rip+0x833b]        # a7f7 <_IO_stdin_used+0x177>
    24bc:	31 c0                	xor    eax,eax
    24be:	bf 01 00 00 00       	mov    edi,0x1
    24c3:	49 83 c4 01          	add    r12,0x1
    24c7:	e8 44 f3 ff ff       	call   1810 <__printf_chk@plt>
    24cc:	48 8b 05 25 bc 20 00 	mov    rax,QWORD PTR [rip+0x20bc25]        # 20e0f8 <digest_hex_bytes>
    24d3:	48 d1 e8             	shr    rax,1
    24d6:	4c 39 e0             	cmp    rax,r12
    24d9:	77 d5                	ja     24b0 <main+0xbb0>
    24db:	80 7c 24 78 00       	cmp    BYTE PTR [rsp+0x78],0x0
    24e0:	75 51                	jne    2533 <main+0xc33>
    24e2:	48 8b 3d bf bb 20 00 	mov    rdi,QWORD PTR [rip+0x20bbbf]        # 20e0a8 <stdout@@GLIBC_2.2.5>
    24e9:	48 8b 47 28          	mov    rax,QWORD PTR [rdi+0x28]
    24ed:	48 39 47 30          	cmp    QWORD PTR [rdi+0x30],rax
    24f1:	0f 86 99 04 00 00    	jbe    2990 <main+0x1090>
    24f7:	48 8d 50 01          	lea    rdx,[rax+0x1]
    24fb:	48 89 57 28          	mov    QWORD PTR [rdi+0x28],rdx
    24ff:	c6 00 20             	mov    BYTE PTR [rax],0x20
    2502:	48 8b 3d 9f bb 20 00 	mov    rdi,QWORD PTR [rip+0x20bb9f]        # 20e0a8 <stdout@@GLIBC_2.2.5>
    2509:	48 8b 47 28          	mov    rax,QWORD PTR [rdi+0x28]
    250d:	48 3b 47 30          	cmp    rax,QWORD PTR [rdi+0x30]
    2511:	0f 83 6b 04 00 00    	jae    2982 <main+0x1082>
    2517:	48 8d 50 01          	lea    rdx,[rax+0x1]
    251b:	48 89 57 28          	mov    QWORD PTR [rdi+0x28],rdx
    251f:	0f b6 7c 24 7b       	movzx  edi,BYTE PTR [rsp+0x7b]
    2524:	40 88 38             	mov    BYTE PTR [rax],dil
    2527:	48 8b 7c 24 20       	mov    rdi,QWORD PTR [rsp+0x20]
    252c:	89 ee                	mov    esi,ebp
    252e:	e8 fd 06 00 00       	call   2c30 <print_filename>
    2533:	48 8b 3d 6e bb 20 00 	mov    rdi,QWORD PTR [rip+0x20bb6e]        # 20e0a8 <stdout@@GLIBC_2.2.5>
    253a:	0f b6 15 cf ba 20 00 	movzx  edx,BYTE PTR [rip+0x20bacf]        # 20e010 <delim>
    2541:	48 8b 47 28          	mov    rax,QWORD PTR [rdi+0x28]
    2545:	48 3b 47 30          	cmp    rax,QWORD PTR [rdi+0x30]
    2549:	0f 83 08 04 00 00    	jae    2957 <main+0x1057>
    254f:	48 8d 48 01          	lea    rcx,[rax+0x1]
    2553:	48 89 4f 28          	mov    QWORD PTR [rdi+0x28],rcx
    2557:	88 10                	mov    BYTE PTR [rax],dl
    2559:	e9 0f fe ff ff       	jmp    236d <main+0xa6d>
    255e:	80 7c 24 7a 00       	cmp    BYTE PTR [rsp+0x7a],0x0
    2563:	0f 85 34 fc ff ff    	jne    219d <main+0x89d>
    2569:	e9 50 fc ff ff       	jmp    21be <main+0x8be>
    256e:	48 8b 54 24 20       	mov    rdx,QWORD PTR [rsp+0x20]
    2573:	be 03 00 00 00       	mov    esi,0x3
    2578:	31 ff                	xor    edi,edi
    257a:	e8 51 70 00 00       	call   95d0 <quotearg_n_style_colon>
    257f:	48 8d 35 49 82 00 00 	lea    rsi,[rip+0x8249]        # a7cf <_IO_stdin_used+0x14f>
    2586:	48 89 c3             	mov    rbx,rax
    2589:	ba 05 00 00 00       	mov    edx,0x5
    258e:	31 ff                	xor    edi,edi
    2590:	e8 cb f0 ff ff       	call   1660 <dcgettext@plt>
    2595:	48 89 d9             	mov    rcx,rbx
    2598:	48 89 c2             	mov    rdx,rax
    259b:	31 f6                	xor    esi,esi
    259d:	31 c0                	xor    eax,eax
    259f:	31 ff                	xor    edi,edi
    25a1:	e8 8a f2 ff ff       	call   1830 <error@plt>
    25a6:	31 c0                	xor    eax,eax
    25a8:	e9 16 fc ff ff       	jmp    21c3 <main+0x8c3>
    25ad:	80 3d 3f bb 20 00 00 	cmp    BYTE PTR [rip+0x20bb3f],0x0        # 20e0f3 <warn>
    25b4:	0f 85 83 f6 ff ff    	jne    1c3d <main+0x33d>
    25ba:	e9 06 f9 ff ff       	jmp    1ec5 <main+0x5c5>
    25bf:	31 d2                	xor    edx,edx
    25c1:	0f b6 05 2c bb 20 00 	movzx  eax,BYTE PTR [rip+0x20bb2c]        # 20e0f4 <status_only>
    25c8:	84 c0                	test   al,al
    25ca:	88 44 24 7a          	mov    BYTE PTR [rsp+0x7a],al
    25ce:	0f 85 b4 fa ff ff    	jne    2088 <main+0x788>
    25d4:	0f b6 05 16 bb 20 00 	movzx  eax,BYTE PTR [rip+0x20bb16]        # 20e0f1 <quiet>
    25db:	84 c0                	test   al,al
    25dd:	88 44 24 7a          	mov    BYTE PTR [rsp+0x7a],al
    25e1:	0f 85 a1 fa ff ff    	jne    2088 <main+0x788>
    25e7:	45 85 ff             	test   r15d,r15d
    25ea:	0f 85 21 04 00 00    	jne    2a11 <main+0x1111>
    25f0:	31 f6                	xor    esi,esi
    25f2:	48 89 df             	mov    rdi,rbx
    25f5:	44 88 4c 24 30       	mov    BYTE PTR [rsp+0x30],r9b
    25fa:	e8 31 06 00 00       	call   2c30 <print_filename>
    25ff:	44 0f b6 4c 24 30    	movzx  r9d,BYTE PTR [rsp+0x30]
    2605:	44 88 4c 24 7a       	mov    BYTE PTR [rsp+0x7a],r9b
    260a:	80 3d e0 ba 20 00 00 	cmp    BYTE PTR [rip+0x20bae0],0x0        # 20e0f1 <quiet>
    2611:	0f 85 71 fa ff ff    	jne    2088 <main+0x788>
    2617:	ba 05 00 00 00       	mov    edx,0x5
    261c:	48 8d 35 a9 81 00 00 	lea    rsi,[rip+0x81a9]        # a7cc <_IO_stdin_used+0x14c>
    2623:	e9 43 fa ff ff       	jmp    206b <main+0x76b>
    2628:	4c 89 e7             	mov    rdi,r12
    262b:	e8 50 7a 00 00       	call   a080 <rpl_fclose>
    2630:	85 c0                	test   eax,eax
    2632:	0f 84 89 fa ff ff    	je     20c1 <main+0x7c1>
    2638:	e9 f5 fd ff ff       	jmp    2432 <main+0xb32>
    263d:	48 89 ca             	mov    rdx,rcx
    2640:	e9 7c ff ff ff       	jmp    25c1 <main+0xcc1>
    2645:	48 8b 54 24 20       	mov    rdx,QWORD PTR [rsp+0x20]
    264a:	31 ff                	xor    edi,edi
    264c:	be 03 00 00 00       	mov    esi,0x3
    2651:	e8 7a 6f 00 00       	call   95d0 <quotearg_n_style_colon>
    2656:	48 8d 35 73 8a 00 00 	lea    rsi,[rip+0x8a73]        # b0d0 <_IO_stdin_used+0xa50>
    265d:	31 ff                	xor    edi,edi
    265f:	ba 05 00 00 00       	mov    edx,0x5
    2664:	48 89 c5             	mov    rbp,rax
    2667:	e8 f4 ef ff ff       	call   1660 <dcgettext@plt>
    266c:	4c 8d 05 21 80 00 00 	lea    r8,[rip+0x8021]        # a694 <_IO_stdin_used+0x14>
    2673:	48 89 c2             	mov    rdx,rax
    2676:	48 89 e9             	mov    rcx,rbp
    2679:	31 f6                	xor    esi,esi
    267b:	31 ff                	xor    edi,edi
    267d:	31 c0                	xor    eax,eax
    267f:	e8 ac f1 ff ff       	call   1830 <error@plt>
    2684:	e9 35 fb ff ff       	jmp    21be <main+0x8be>
    2689:	4e 8d 1c 13          	lea    r11,[rbx+r10*1]
    268d:	45 84 c9             	test   r9b,r9b
    2690:	0f 85 a8 02 00 00    	jne    293e <main+0x103e>
    2696:	49 83 c2 01          	add    r10,0x1
    269a:	41 c6 03 00          	mov    BYTE PTR [r11],0x0
    269e:	eb 04                	jmp    26a4 <main+0xda4>
    26a0:	49 83 c2 01          	add    r10,0x1
    26a4:	42 0f b6 04 13       	movzx  eax,BYTE PTR [rbx+r10*1]
    26a9:	3c 20                	cmp    al,0x20
    26ab:	74 f3                	je     26a0 <main+0xda0>
    26ad:	3c 09                	cmp    al,0x9
    26af:	74 ef                	je     26a0 <main+0xda0>
    26b1:	3c 3d                	cmp    al,0x3d
    26b3:	0f 85 8b f7 ff ff    	jne    1e44 <main+0x544>
    26b9:	4a 8d 54 13 01       	lea    rdx,[rbx+r10*1+0x1]
    26be:	0f b6 02             	movzx  eax,BYTE PTR [rdx]
    26c1:	49 89 d0             	mov    r8,rdx
    26c4:	48 8d 52 01          	lea    rdx,[rdx+0x1]
    26c8:	3c 20                	cmp    al,0x20
    26ca:	74 f2                	je     26be <main+0xdbe>
    26cc:	3c 09                	cmp    al,0x9
    26ce:	74 ee                	je     26be <main+0xdbe>
    26d0:	4c 89 c7             	mov    rdi,r8
    26d3:	4c 89 44 24 60       	mov    QWORD PTR [rsp+0x60],r8
    26d8:	e8 f3 04 00 00       	call   2bd0 <hex_digits>
    26dd:	4c 8b 44 24 60       	mov    r8,QWORD PTR [rsp+0x60]
    26e2:	eb 7b                	jmp    275f <main+0xe5f>
    26e4:	83 ee 01             	sub    esi,0x1
    26e7:	0f 84 ad f8 ff ff    	je     1f9a <main+0x69a>
    26ed:	c7 05 1d b9 20 00 00 	mov    DWORD PTR [rip+0x20b91d],0x0        # 20e014 <bsd_reversed>
    26f4:	00 00 00 
    26f7:	48 8d 42 02          	lea    rax,[rdx+0x2]
    26fb:	e9 9a f8 ff ff       	jmp    1f9a <main+0x69a>
    2700:	48 8b 3d a9 b9 20 00 	mov    rdi,QWORD PTR [rip+0x20b9a9]        # 20e0b0 <stdin@@GLIBC_2.2.5>
    2707:	e8 74 79 00 00       	call   a080 <rpl_fclose>
    270c:	83 c0 01             	add    eax,0x1
    270f:	0f 85 7b fc ff ff    	jne    2390 <main+0xa90>
    2715:	48 8d 35 6a 80 00 00 	lea    rsi,[rip+0x806a]        # a786 <_IO_stdin_used+0x106>
    271c:	ba 05 00 00 00       	mov    edx,0x5
    2721:	31 ff                	xor    edi,edi
    2723:	e8 38 ef ff ff       	call   1660 <dcgettext@plt>
    2728:	48 89 c3             	mov    rbx,rax
    272b:	e8 a0 ee ff ff       	call   15d0 <__errno_location@plt>
    2730:	8b 30                	mov    esi,DWORD PTR [rax]
    2732:	48 89 da             	mov    rdx,rbx
    2735:	bf 01 00 00 00       	mov    edi,0x1
    273a:	31 c0                	xor    eax,eax
    273c:	e8 ef f0 ff ff       	call   1830 <error@plt>
    2741:	4c 89 fe             	mov    rsi,r15
    2744:	48 89 df             	mov    rdi,rbx
    2747:	4c 89 44 24 60       	mov    QWORD PTR [rsp+0x60],r8
    274c:	48 29 c6             	sub    rsi,rax
    274f:	e8 fc 03 00 00       	call   2b50 <filename_unescape>
    2754:	4c 8b 44 24 60       	mov    r8,QWORD PTR [rsp+0x60]
    2759:	48 85 c0             	test   rax,rax
    275c:	0f 95 c0             	setne  al
    275f:	84 c0                	test   al,al
    2761:	0f 85 3f f8 ff ff    	jne    1fa6 <main+0x6a6>
    2767:	e9 d8 f6 ff ff       	jmp    1e44 <main+0x544>
    276c:	80 7c 24 78 00       	cmp    BYTE PTR [rsp+0x78],0x0
    2771:	0f 84 a0 00 00 00    	je     2817 <main+0xf17>
    2777:	48 8b 3d 2a b9 20 00 	mov    rdi,QWORD PTR [rip+0x20b92a]        # 20e0a8 <stdout@@GLIBC_2.2.5>
    277e:	48 8b 47 28          	mov    rax,QWORD PTR [rdi+0x28]
    2782:	48 3b 47 30          	cmp    rax,QWORD PTR [rdi+0x30]
    2786:	0f 83 36 02 00 00    	jae    29c2 <main+0x10c2>
    278c:	48 8d 50 01          	lea    rdx,[rax+0x1]
    2790:	48 89 57 28          	mov    QWORD PTR [rdi+0x28],rdx
    2794:	c6 00 5c             	mov    BYTE PTR [rax],0x5c
    2797:	48 8b 0d 0a b9 20 00 	mov    rcx,QWORD PTR [rip+0x20b90a]        # 20e0a8 <stdout@@GLIBC_2.2.5>
    279e:	48 8d 3d ef 7e 00 00 	lea    rdi,[rip+0x7eef]        # a694 <_IO_stdin_used+0x14>
    27a5:	ba 06 00 00 00       	mov    edx,0x6
    27aa:	be 01 00 00 00       	mov    esi,0x1
    27af:	e8 1c f0 ff ff       	call   17d0 <fwrite_unlocked@plt>
    27b4:	48 8b 0d ed b8 20 00 	mov    rcx,QWORD PTR [rip+0x20b8ed]        # 20e0a8 <stdout@@GLIBC_2.2.5>
    27bb:	48 8d 3d 3a 80 00 00 	lea    rdi,[rip+0x803a]        # a7fc <_IO_stdin_used+0x17c>
    27c2:	ba 02 00 00 00       	mov    edx,0x2
    27c7:	be 01 00 00 00       	mov    esi,0x1
    27cc:	e8 ff ef ff ff       	call   17d0 <fwrite_unlocked@plt>
    27d1:	48 8b 7c 24 20       	mov    rdi,QWORD PTR [rsp+0x20]
    27d6:	be 01 00 00 00       	mov    esi,0x1
    27db:	e8 50 04 00 00       	call   2c30 <print_filename>
    27e0:	48 8b 0d c1 b8 20 00 	mov    rcx,QWORD PTR [rip+0x20b8c1]        # 20e0a8 <stdout@@GLIBC_2.2.5>
    27e7:	48 8d 3d 11 80 00 00 	lea    rdi,[rip+0x8011]        # a7ff <_IO_stdin_used+0x17f>
    27ee:	ba 04 00 00 00       	mov    edx,0x4
    27f3:	be 01 00 00 00       	mov    esi,0x1
    27f8:	e8 d3 ef ff ff       	call   17d0 <fwrite_unlocked@plt>
    27fd:	48 8b 05 f4 b8 20 00 	mov    rax,QWORD PTR [rip+0x20b8f4]        # 20e0f8 <digest_hex_bytes>
    2804:	bd 01 00 00 00       	mov    ebp,0x1
    2809:	48 d1 e8             	shr    rax,1
    280c:	0f 85 93 fc ff ff    	jne    24a5 <main+0xba5>
    2812:	e9 c4 fc ff ff       	jmp    24db <main+0xbdb>
    2817:	48 8b 3d 8a b8 20 00 	mov    rdi,QWORD PTR [rip+0x20b88a]        # 20e0a8 <stdout@@GLIBC_2.2.5>
    281e:	48 8b 47 28          	mov    rax,QWORD PTR [rdi+0x28]
    2822:	48 3b 47 30          	cmp    rax,QWORD PTR [rdi+0x30]
    2826:	0f 83 47 01 00 00    	jae    2973 <main+0x1073>
    282c:	48 8d 50 01          	lea    rdx,[rax+0x1]
    2830:	bd 01 00 00 00       	mov    ebp,0x1
    2835:	48 89 57 28          	mov    QWORD PTR [rdi+0x28],rdx
    2839:	c6 00 5c             	mov    BYTE PTR [rax],0x5c
    283c:	48 8b 05 b5 b8 20 00 	mov    rax,QWORD PTR [rip+0x20b8b5]        # 20e0f8 <digest_hex_bytes>
    2843:	48 d1 e8             	shr    rax,1
    2846:	0f 85 59 fc ff ff    	jne    24a5 <main+0xba5>
    284c:	e9 91 fc ff ff       	jmp    24e2 <main+0xbe2>
    2851:	48 8b 7c 24 20       	mov    rdi,QWORD PTR [rsp+0x20]
    2856:	be 0a 00 00 00       	mov    esi,0xa
    285b:	e8 60 ee ff ff       	call   16c0 <strchr@plt>
    2860:	48 85 c0             	test   rax,rax
    2863:	0f 85 16 fc ff ff    	jne    247f <main+0xb7f>
    2869:	e9 1e fc ff ff       	jmp    248c <main+0xb8c>
    286e:	48 8b 0d 33 b8 20 00 	mov    rcx,QWORD PTR [rip+0x20b833]        # 20e0a8 <stdout@@GLIBC_2.2.5>
    2875:	48 8d 3d 18 7e 00 00 	lea    rdi,[rip+0x7e18]        # a694 <_IO_stdin_used+0x14>
    287c:	ba 06 00 00 00       	mov    edx,0x6
    2881:	be 01 00 00 00       	mov    esi,0x1
    2886:	31 ed                	xor    ebp,ebp
    2888:	e8 43 ef ff ff       	call   17d0 <fwrite_unlocked@plt>
    288d:	48 8b 0d 14 b8 20 00 	mov    rcx,QWORD PTR [rip+0x20b814]        # 20e0a8 <stdout@@GLIBC_2.2.5>
    2894:	48 8d 3d 61 7f 00 00 	lea    rdi,[rip+0x7f61]        # a7fc <_IO_stdin_used+0x17c>
    289b:	ba 02 00 00 00       	mov    edx,0x2
    28a0:	be 01 00 00 00       	mov    esi,0x1
    28a5:	e8 26 ef ff ff       	call   17d0 <fwrite_unlocked@plt>
    28aa:	48 8b 7c 24 20       	mov    rdi,QWORD PTR [rsp+0x20]
    28af:	31 f6                	xor    esi,esi
    28b1:	e8 7a 03 00 00       	call   2c30 <print_filename>
    28b6:	48 8b 0d eb b7 20 00 	mov    rcx,QWORD PTR [rip+0x20b7eb]        # 20e0a8 <stdout@@GLIBC_2.2.5>
    28bd:	48 8d 3d 3b 7f 00 00 	lea    rdi,[rip+0x7f3b]        # a7ff <_IO_stdin_used+0x17f>
    28c4:	ba 04 00 00 00       	mov    edx,0x4
    28c9:	be 01 00 00 00       	mov    esi,0x1
    28ce:	e8 fd ee ff ff       	call   17d0 <fwrite_unlocked@plt>
    28d3:	48 8b 05 1e b8 20 00 	mov    rax,QWORD PTR [rip+0x20b81e]        # 20e0f8 <digest_hex_bytes>
    28da:	48 d1 e8             	shr    rax,1
    28dd:	0f 85 c2 fb ff ff    	jne    24a5 <main+0xba5>
    28e3:	e9 4b fc ff ff       	jmp    2533 <main+0xc33>
    28e8:	31 f6                	xor    esi,esi
    28ea:	48 89 df             	mov    rdi,rbx
    28ed:	e8 3e 03 00 00       	call   2c30 <print_filename>
    28f2:	e9 36 fa ff ff       	jmp    232d <main+0xa2d>
    28f7:	48 8b 54 24 20       	mov    rdx,QWORD PTR [rsp+0x20]
    28fc:	31 ff                	xor    edi,edi
    28fe:	be 03 00 00 00       	mov    esi,0x3
    2903:	e8 c8 6c 00 00       	call   95d0 <quotearg_n_style_colon>
    2908:	48 8d 35 cf 7e 00 00 	lea    rsi,[rip+0x7ecf]        # a7de <_IO_stdin_used+0x15e>
    290f:	48 89 c5             	mov    rbp,rax
    2912:	31 ff                	xor    edi,edi
    2914:	ba 05 00 00 00       	mov    edx,0x5
    2919:	e8 42 ed ff ff       	call   1660 <dcgettext@plt>
    291e:	48 89 e9             	mov    rcx,rbp
    2921:	48 89 c2             	mov    rdx,rax
    2924:	31 f6                	xor    esi,esi
    2926:	31 ff                	xor    edi,edi
    2928:	31 c0                	xor    eax,eax
    292a:	e8 01 ef ff ff       	call   1830 <error@plt>
    292f:	e9 8a f8 ff ff       	jmp    21be <main+0x8be>
    2934:	c6 44 24 79 01       	mov    BYTE PTR [rsp+0x79],0x1
    2939:	e9 45 fa ff ff       	jmp    2383 <main+0xa83>
    293e:	4c 89 d6             	mov    rsi,r10
    2941:	48 89 df             	mov    rdi,rbx
    2944:	e8 07 02 00 00       	call   2b50 <filename_unescape>
    2949:	48 85 c0             	test   rax,rax
    294c:	0f 85 44 fd ff ff    	jne    2696 <main+0xd96>
    2952:	e9 ed f4 ff ff       	jmp    1e44 <main+0x544>
    2957:	0f b6 f2             	movzx  esi,dl
    295a:	e8 71 ed ff ff       	call   16d0 <__overflow@plt>
    295f:	e9 09 fa ff ff       	jmp    236d <main+0xa6d>
    2964:	be 5c 00 00 00       	mov    esi,0x5c
    2969:	e8 62 ed ff ff       	call   16d0 <__overflow@plt>
    296e:	e9 e1 f6 ff ff       	jmp    2054 <main+0x754>
    2973:	be 5c 00 00 00       	mov    esi,0x5c
    2978:	e8 53 ed ff ff       	call   16d0 <__overflow@plt>
    297d:	e9 7b fe ff ff       	jmp    27fd <main+0xefd>
    2982:	8b 74 24 7c          	mov    esi,DWORD PTR [rsp+0x7c]
    2986:	e8 45 ed ff ff       	call   16d0 <__overflow@plt>
    298b:	e9 97 fb ff ff       	jmp    2527 <main+0xc27>
    2990:	be 20 00 00 00       	mov    esi,0x20
    2995:	e8 36 ed ff ff       	call   16d0 <__overflow@plt>
    299a:	e9 63 fb ff ff       	jmp    2502 <main+0xc02>
    299f:	be 5c 00 00 00       	mov    esi,0x5c
    29a4:	48 89 4c 24 60       	mov    QWORD PTR [rsp+0x60],rcx
    29a9:	48 89 54 24 30       	mov    QWORD PTR [rsp+0x30],rdx
    29ae:	e8 1d ed ff ff       	call   16d0 <__overflow@plt>
    29b3:	48 8b 54 24 30       	mov    rdx,QWORD PTR [rsp+0x30]
    29b8:	48 8b 4c 24 60       	mov    rcx,QWORD PTR [rsp+0x60]
    29bd:	e9 41 f9 ff ff       	jmp    2303 <main+0xa03>
    29c2:	be 5c 00 00 00       	mov    esi,0x5c
    29c7:	e8 04 ed ff ff       	call   16d0 <__overflow@plt>
    29cc:	e9 c6 fd ff ff       	jmp    2797 <main+0xe97>
    29d1:	3d 7e ff ff ff       	cmp    eax,0xffffff7e
    29d6:	0f 85 f4 f1 ff ff    	jne    1bd0 <main+0x2d0>
    29dc:	31 ff                	xor    edi,edi
    29de:	e8 bd 04 00 00       	call   2ea0 <usage>
    29e3:	e8 a8 ec ff ff       	call   1690 <__stack_chk_fail@plt>
    29e8:	80 3d 05 b7 20 00 00 	cmp    BYTE PTR [rip+0x20b705],0x0        # 20e0f4 <status_only>
    29ef:	0f 84 a2 f1 ff ff    	je     1b97 <main+0x297>
    29f5:	80 7c 24 2b 00       	cmp    BYTE PTR [rsp+0x2b],0x0
    29fa:	0f 85 ad fb ff ff    	jne    25ad <main+0xcad>
    2a00:	ba 05 00 00 00       	mov    edx,0x5
    2a05:	48 8d 35 94 85 00 00 	lea    rsi,[rip+0x8594]        # afa0 <_IO_stdin_used+0x920>
    2a0c:	e9 aa f1 ff ff       	jmp    1bbb <main+0x2bb>
    2a11:	44 88 4c 24 7a       	mov    BYTE PTR [rsp+0x7a],r9b
    2a16:	e9 c8 f8 ff ff       	jmp    22e3 <main+0x9e3>
    2a1b:	ba 05 00 00 00       	mov    edx,0x5
    2a20:	48 8d 35 39 84 00 00 	lea    rsi,[rip+0x8439]        # ae60 <_IO_stdin_used+0x7e0>
    2a27:	e9 8f f1 ff ff       	jmp    1bbb <main+0x2bb>
    2a2c:	ba 05 00 00 00       	mov    edx,0x5
    2a31:	48 8d 35 20 85 00 00 	lea    rsi,[rip+0x8520]        # af58 <_IO_stdin_used+0x8d8>
    2a38:	e9 7e f1 ff ff       	jmp    1bbb <main+0x2bb>
    2a3d:	0f 1f 00             	nop    DWORD PTR [rax]

0000000000002a40 <_start>:
    2a40:	31 ed                	xor    ebp,ebp
    2a42:	49 89 d1             	mov    r9,rdx
    2a45:	5e                   	pop    rsi
    2a46:	48 89 e2             	mov    rdx,rsp
    2a49:	48 83 e4 f0          	and    rsp,0xfffffffffffffff0
    2a4d:	50                   	push   rax
    2a4e:	54                   	push   rsp
    2a4f:	4c 8d 05 ea 7b 00 00 	lea    r8,[rip+0x7bea]        # a640 <__libc_csu_fini>
    2a56:	48 8d 0d 73 7b 00 00 	lea    rcx,[rip+0x7b73]        # a5d0 <__libc_csu_init>
    2a5d:	48 8d 3d 9c ee ff ff 	lea    rdi,[rip+0xffffffffffffee9c]        # 1900 <main>
    2a64:	ff 15 5e b5 20 00    	call   QWORD PTR [rip+0x20b55e]        # 20dfc8 <__libc_start_main@GLIBC_2.2.5>
    2a6a:	f4                   	hlt    
    2a6b:	0f 1f 44 00 00       	nop    DWORD PTR [rax+rax*1+0x0]

0000000000002a70 <deregister_tm_clones>:
    2a70:	48 8d 3d 29 b6 20 00 	lea    rdi,[rip+0x20b629]        # 20e0a0 <__progname@@GLIBC_2.2.5>
    2a77:	55                   	push   rbp
    2a78:	48 8d 05 21 b6 20 00 	lea    rax,[rip+0x20b621]        # 20e0a0 <__progname@@GLIBC_2.2.5>
    2a7f:	48 39 f8             	cmp    rax,rdi
    2a82:	48 89 e5             	mov    rbp,rsp
    2a85:	74 19                	je     2aa0 <deregister_tm_clones+0x30>
    2a87:	48 8b 05 32 b5 20 00 	mov    rax,QWORD PTR [rip+0x20b532]        # 20dfc0 <_ITM_deregisterTMCloneTable>
    2a8e:	48 85 c0             	test   rax,rax
    2a91:	74 0d                	je     2aa0 <deregister_tm_clones+0x30>
    2a93:	5d                   	pop    rbp
    2a94:	ff e0                	jmp    rax
    2a96:	66 2e 0f 1f 84 00 00 	nop    WORD PTR cs:[rax+rax*1+0x0]
    2a9d:	00 00 00 
    2aa0:	5d                   	pop    rbp
    2aa1:	c3                   	ret    
    2aa2:	0f 1f 40 00          	nop    DWORD PTR [rax+0x0]
    2aa6:	66 2e 0f 1f 84 00 00 	nop    WORD PTR cs:[rax+rax*1+0x0]
    2aad:	00 00 00 

0000000000002ab0 <register_tm_clones>:
    2ab0:	48 8d 3d e9 b5 20 00 	lea    rdi,[rip+0x20b5e9]        # 20e0a0 <__progname@@GLIBC_2.2.5>
    2ab7:	48 8d 35 e2 b5 20 00 	lea    rsi,[rip+0x20b5e2]        # 20e0a0 <__progname@@GLIBC_2.2.5>
    2abe:	55                   	push   rbp
    2abf:	48 29 fe             	sub    rsi,rdi
    2ac2:	48 89 e5             	mov    rbp,rsp
    2ac5:	48 c1 fe 03          	sar    rsi,0x3
    2ac9:	48 89 f0             	mov    rax,rsi
    2acc:	48 c1 e8 3f          	shr    rax,0x3f
    2ad0:	48 01 c6             	add    rsi,rax
    2ad3:	48 d1 fe             	sar    rsi,1
    2ad6:	74 18                	je     2af0 <register_tm_clones+0x40>
    2ad8:	48 8b 05 f9 b4 20 00 	mov    rax,QWORD PTR [rip+0x20b4f9]        # 20dfd8 <_ITM_registerTMCloneTable>
    2adf:	48 85 c0             	test   rax,rax
    2ae2:	74 0c                	je     2af0 <register_tm_clones+0x40>
    2ae4:	5d                   	pop    rbp
    2ae5:	ff e0                	jmp    rax
    2ae7:	66 0f 1f 84 00 00 00 	nop    WORD PTR [rax+rax*1+0x0]
    2aee:	00 00 
    2af0:	5d                   	pop    rbp
    2af1:	c3                   	ret    
    2af2:	0f 1f 40 00          	nop    DWORD PTR [rax+0x0]
    2af6:	66 2e 0f 1f 84 00 00 	nop    WORD PTR cs:[rax+rax*1+0x0]
    2afd:	00 00 00 

0000000000002b00 <__do_global_dtors_aux>:
    2b00:	80 3d e1 b5 20 00 00 	cmp    BYTE PTR [rip+0x20b5e1],0x0        # 20e0e8 <completed.7697>
    2b07:	75 2f                	jne    2b38 <__do_global_dtors_aux+0x38>
    2b09:	48 83 3d cf b4 20 00 	cmp    QWORD PTR [rip+0x20b4cf],0x0        # 20dfe0 <__cxa_finalize@GLIBC_2.2.5>
    2b10:	00 
    2b11:	55                   	push   rbp
    2b12:	48 89 e5             	mov    rbp,rsp
    2b15:	74 0c                	je     2b23 <__do_global_dtors_aux+0x23>
    2b17:	48 8b 3d ea b4 20 00 	mov    rdi,QWORD PTR [rip+0x20b4ea]        # 20e008 <__dso_handle>
    2b1e:	e8 cd ed ff ff       	call   18f0 <__cxa_finalize@plt>
    2b23:	e8 48 ff ff ff       	call   2a70 <deregister_tm_clones>
    2b28:	c6 05 b9 b5 20 00 01 	mov    BYTE PTR [rip+0x20b5b9],0x1        # 20e0e8 <completed.7697>
    2b2f:	5d                   	pop    rbp
    2b30:	c3                   	ret    
    2b31:	0f 1f 80 00 00 00 00 	nop    DWORD PTR [rax+0x0]
    2b38:	f3 c3                	repz ret 
    2b3a:	66 0f 1f 44 00 00    	nop    WORD PTR [rax+rax*1+0x0]

0000000000002b40 <frame_dummy>:
    2b40:	55                   	push   rbp
    2b41:	48 89 e5             	mov    rbp,rsp
    2b44:	5d                   	pop    rbp
    2b45:	e9 66 ff ff ff       	jmp    2ab0 <register_tm_clones>
    2b4a:	66 0f 1f 44 00 00    	nop    WORD PTR [rax+rax*1+0x0]

0000000000002b50 <filename_unescape>:
    2b50:	31 d2                	xor    edx,edx
    2b52:	48 85 f6             	test   rsi,rsi
    2b55:	48 8d 4f 01          	lea    rcx,[rdi+0x1]
    2b59:	4c 8d 46 ff          	lea    r8,[rsi-0x1]
    2b5d:	74 58                	je     2bb7 <filename_unescape+0x67>
    2b5f:	0f b6 04 17          	movzx  eax,BYTE PTR [rdi+rdx*1]
    2b63:	84 c0                	test   al,al
    2b65:	74 29                	je     2b90 <filename_unescape+0x40>
    2b67:	3c 5c                	cmp    al,0x5c
    2b69:	75 2d                	jne    2b98 <filename_unescape+0x48>
    2b6b:	49 39 d0             	cmp    r8,rdx
    2b6e:	74 20                	je     2b90 <filename_unescape+0x40>
    2b70:	48 83 c2 01          	add    rdx,0x1
    2b74:	0f b6 04 17          	movzx  eax,BYTE PTR [rdi+rdx*1]
    2b78:	3c 5c                	cmp    al,0x5c
    2b7a:	74 44                	je     2bc0 <filename_unescape+0x70>
    2b7c:	3c 6e                	cmp    al,0x6e
    2b7e:	75 10                	jne    2b90 <filename_unescape+0x40>
    2b80:	49 89 c9             	mov    r9,rcx
    2b83:	c6 41 ff 0a          	mov    BYTE PTR [rcx-0x1],0xa
    2b87:	eb 15                	jmp    2b9e <filename_unescape+0x4e>
    2b89:	0f 1f 80 00 00 00 00 	nop    DWORD PTR [rax+0x0]
    2b90:	31 c0                	xor    eax,eax
    2b92:	c3                   	ret    
    2b93:	0f 1f 44 00 00       	nop    DWORD PTR [rax+rax*1+0x0]
    2b98:	49 89 c9             	mov    r9,rcx
    2b9b:	88 41 ff             	mov    BYTE PTR [rcx-0x1],al
    2b9e:	48 83 c2 01          	add    rdx,0x1
    2ba2:	48 83 c1 01          	add    rcx,0x1
    2ba6:	48 39 d6             	cmp    rsi,rdx
    2ba9:	77 b4                	ja     2b5f <filename_unescape+0xf>
    2bab:	48 01 fe             	add    rsi,rdi
    2bae:	49 39 f1             	cmp    r9,rsi
    2bb1:	73 04                	jae    2bb7 <filename_unescape+0x67>
    2bb3:	41 c6 01 00          	mov    BYTE PTR [r9],0x0
    2bb7:	48 89 f8             	mov    rax,rdi
    2bba:	c3                   	ret    
    2bbb:	0f 1f 44 00 00       	nop    DWORD PTR [rax+rax*1+0x0]
    2bc0:	49 89 c9             	mov    r9,rcx
    2bc3:	c6 41 ff 5c          	mov    BYTE PTR [rcx-0x1],0x5c
    2bc7:	eb d5                	jmp    2b9e <filename_unescape+0x4e>
    2bc9:	0f 1f 80 00 00 00 00 	nop    DWORD PTR [rax+0x0]

0000000000002bd0 <hex_digits>:
    2bd0:	55                   	push   rbp
    2bd1:	53                   	push   rbx
    2bd2:	48 83 ec 08          	sub    rsp,0x8
    2bd6:	48 8b 2d 1b b5 20 00 	mov    rbp,QWORD PTR [rip+0x20b51b]        # 20e0f8 <digest_hex_bytes>
    2bdd:	48 85 ed             	test   rbp,rbp
    2be0:	74 3e                	je     2c20 <hex_digits+0x50>
    2be2:	48 89 fb             	mov    rbx,rdi
    2be5:	e8 f6 ec ff ff       	call   18e0 <__ctype_b_loc@plt>
    2bea:	48 8b 08             	mov    rcx,QWORD PTR [rax]
    2bed:	48 89 d8             	mov    rax,rbx
    2bf0:	eb 13                	jmp    2c05 <hex_digits+0x35>
    2bf2:	66 0f 1f 44 00 00    	nop    WORD PTR [rax+rax*1+0x0]
    2bf8:	48 83 c0 01          	add    rax,0x1
    2bfc:	89 c2                	mov    edx,eax
    2bfe:	29 da                	sub    edx,ebx
    2c00:	48 39 ea             	cmp    rdx,rbp
    2c03:	73 1e                	jae    2c23 <hex_digits+0x53>
    2c05:	0f b6 10             	movzx  edx,BYTE PTR [rax]
    2c08:	f6 44 51 01 10       	test   BYTE PTR [rcx+rdx*2+0x1],0x10
    2c0d:	75 e9                	jne    2bf8 <hex_digits+0x28>
    2c0f:	48 83 c4 08          	add    rsp,0x8
    2c13:	31 c0                	xor    eax,eax
    2c15:	5b                   	pop    rbx
    2c16:	5d                   	pop    rbp
    2c17:	c3                   	ret    
    2c18:	0f 1f 84 00 00 00 00 	nop    DWORD PTR [rax+rax*1+0x0]
    2c1f:	00 
    2c20:	48 89 f8             	mov    rax,rdi
    2c23:	80 38 00             	cmp    BYTE PTR [rax],0x0
    2c26:	0f 94 c0             	sete   al
    2c29:	48 83 c4 08          	add    rsp,0x8
    2c2d:	5b                   	pop    rbx
    2c2e:	5d                   	pop    rbp
    2c2f:	c3                   	ret    

0000000000002c30 <print_filename>:
    2c30:	55                   	push   rbp
    2c31:	53                   	push   rbx
    2c32:	48 89 fb             	mov    rbx,rdi
    2c35:	48 83 ec 08          	sub    rsp,0x8
    2c39:	40 84 f6             	test   sil,sil
    2c3c:	0f 84 8e 00 00 00    	je     2cd0 <print_filename+0xa0>
    2c42:	0f b6 37             	movzx  esi,BYTE PTR [rdi]
    2c45:	48 8d 2d 38 7a 00 00 	lea    rbp,[rip+0x7a38]        # a684 <_IO_stdin_used+0x4>
    2c4c:	40 84 f6             	test   sil,sil
    2c4f:	75 29                	jne    2c7a <print_filename+0x4a>
    2c51:	eb 5b                	jmp    2cae <print_filename+0x7e>
    2c53:	0f 1f 44 00 00       	nop    DWORD PTR [rax+rax*1+0x0]
    2c58:	48 8d 3d 28 7a 00 00 	lea    rdi,[rip+0x7a28]        # a687 <_IO_stdin_used+0x7>
    2c5f:	ba 02 00 00 00       	mov    edx,0x2
    2c64:	be 01 00 00 00       	mov    esi,0x1
    2c69:	e8 62 eb ff ff       	call   17d0 <fwrite_unlocked@plt>
    2c6e:	48 83 c3 01          	add    rbx,0x1
    2c72:	0f b6 33             	movzx  esi,BYTE PTR [rbx]
    2c75:	40 84 f6             	test   sil,sil
    2c78:	74 34                	je     2cae <print_filename+0x7e>
    2c7a:	40 80 fe 0a          	cmp    sil,0xa
    2c7e:	48 8b 0d 23 b4 20 00 	mov    rcx,QWORD PTR [rip+0x20b423]        # 20e0a8 <stdout@@GLIBC_2.2.5>
    2c85:	74 31                	je     2cb8 <print_filename+0x88>
    2c87:	40 80 fe 5c          	cmp    sil,0x5c
    2c8b:	74 cb                	je     2c58 <print_filename+0x28>
    2c8d:	48 8b 41 28          	mov    rax,QWORD PTR [rcx+0x28]
    2c91:	48 3b 41 30          	cmp    rax,QWORD PTR [rcx+0x30]
    2c95:	73 51                	jae    2ce8 <print_filename+0xb8>
    2c97:	48 8d 50 01          	lea    rdx,[rax+0x1]
    2c9b:	48 83 c3 01          	add    rbx,0x1
    2c9f:	48 89 51 28          	mov    QWORD PTR [rcx+0x28],rdx
    2ca3:	40 88 30             	mov    BYTE PTR [rax],sil
    2ca6:	0f b6 33             	movzx  esi,BYTE PTR [rbx]
    2ca9:	40 84 f6             	test   sil,sil
    2cac:	75 cc                	jne    2c7a <print_filename+0x4a>
    2cae:	48 83 c4 08          	add    rsp,0x8
    2cb2:	5b                   	pop    rbx
    2cb3:	5d                   	pop    rbp
    2cb4:	c3                   	ret    
    2cb5:	0f 1f 00             	nop    DWORD PTR [rax]
    2cb8:	ba 02 00 00 00       	mov    edx,0x2
    2cbd:	be 01 00 00 00       	mov    esi,0x1
    2cc2:	48 89 ef             	mov    rdi,rbp
    2cc5:	e8 06 eb ff ff       	call   17d0 <fwrite_unlocked@plt>
    2cca:	eb a2                	jmp    2c6e <print_filename+0x3e>
    2ccc:	0f 1f 40 00          	nop    DWORD PTR [rax+0x0]
    2cd0:	48 8b 35 d1 b3 20 00 	mov    rsi,QWORD PTR [rip+0x20b3d1]        # 20e0a8 <stdout@@GLIBC_2.2.5>
    2cd7:	48 83 c4 08          	add    rsp,0x8
    2cdb:	5b                   	pop    rbx
    2cdc:	5d                   	pop    rbp
    2cdd:	e9 5e ea ff ff       	jmp    1740 <fputs_unlocked@plt>
    2ce2:	66 0f 1f 44 00 00    	nop    WORD PTR [rax+rax*1+0x0]
    2ce8:	48 89 cf             	mov    rdi,rcx
    2ceb:	e8 e0 e9 ff ff       	call   16d0 <__overflow@plt>
    2cf0:	e9 79 ff ff ff       	jmp    2c6e <print_filename+0x3e>
    2cf5:	90                   	nop
    2cf6:	66 2e 0f 1f 84 00 00 	nop    WORD PTR cs:[rax+rax*1+0x0]
    2cfd:	00 00 00 

0000000000002d00 <digest_file.isra.1>:
    2d00:	41 55                	push   r13
    2d02:	41 54                	push   r12
    2d04:	b9 02 00 00 00       	mov    ecx,0x2
    2d09:	55                   	push   rbp
    2d0a:	53                   	push   rbx
    2d0b:	48 89 fd             	mov    rbp,rdi
    2d0e:	48 8d 3d 0d 86 00 00 	lea    rdi,[rip+0x860d]        # b322 <fillbuf+0xc2>
    2d15:	49 89 f4             	mov    r12,rsi
    2d18:	48 89 ee             	mov    rsi,rbp
    2d1b:	48 83 ec 08          	sub    rsp,0x8
    2d1f:	f3 a6                	repz cmps BYTE PTR ds:[rsi],BYTE PTR es:[rdi]
    2d21:	c6 02 00             	mov    BYTE PTR [rdx],0x0
    2d24:	0f 97 c0             	seta   al
    2d27:	1c 00                	sbb    al,0x0
    2d29:	84 c0                	test   al,al
    2d2b:	0f 85 8f 00 00 00    	jne    2dc0 <digest_file.isra.1+0xc0>
    2d31:	48 8b 1d 78 b3 20 00 	mov    rbx,QWORD PTR [rip+0x20b378]        # 20e0b0 <stdin@@GLIBC_2.2.5>
    2d38:	be 02 00 00 00       	mov    esi,0x2
    2d3d:	c6 05 c4 b3 20 00 01 	mov    BYTE PTR [rip+0x20b3c4],0x1        # 20e108 <have_read_stdin>
    2d44:	48 89 df             	mov    rdi,rbx
    2d47:	e8 74 4c 00 00       	call   79c0 <fadvise>
    2d4c:	4c 89 e6             	mov    rsi,r12
    2d4f:	48 89 df             	mov    rdi,rbx
    2d52:	e8 19 4c 00 00       	call   7970 <sha512_stream>
    2d57:	85 c0                	test   eax,eax
    2d59:	75 15                	jne    2d70 <digest_file.isra.1+0x70>
    2d5b:	41 bc 01 00 00 00    	mov    r12d,0x1
    2d61:	48 83 c4 08          	add    rsp,0x8
    2d65:	44 89 e0             	mov    eax,r12d
    2d68:	5b                   	pop    rbx
    2d69:	5d                   	pop    rbp
    2d6a:	41 5c                	pop    r12
    2d6c:	41 5d                	pop    r13
    2d6e:	c3                   	ret    
    2d6f:	90                   	nop
    2d70:	48 89 ea             	mov    rdx,rbp
    2d73:	31 ff                	xor    edi,edi
    2d75:	be 03 00 00 00       	mov    esi,0x3
    2d7a:	e8 51 68 00 00       	call   95d0 <quotearg_n_style_colon>
    2d7f:	48 89 c5             	mov    rbp,rax
    2d82:	45 31 e4             	xor    r12d,r12d
    2d85:	e8 46 e8 ff ff       	call   15d0 <__errno_location@plt>
    2d8a:	8b 30                	mov    esi,DWORD PTR [rax]
    2d8c:	48 8d 15 c2 84 00 00 	lea    rdx,[rip+0x84c2]        # b255 <bin2hex.7156+0x25>
    2d93:	31 ff                	xor    edi,edi
    2d95:	31 c0                	xor    eax,eax
    2d97:	48 89 e9             	mov    rcx,rbp
    2d9a:	e8 91 ea ff ff       	call   1830 <error@plt>
    2d9f:	48 39 1d 0a b3 20 00 	cmp    QWORD PTR [rip+0x20b30a],rbx        # 20e0b0 <stdin@@GLIBC_2.2.5>
    2da6:	74 b9                	je     2d61 <digest_file.isra.1+0x61>
    2da8:	48 89 df             	mov    rdi,rbx
    2dab:	e8 d0 72 00 00       	call   a080 <rpl_fclose>
    2db0:	48 83 c4 08          	add    rsp,0x8
    2db4:	44 89 e0             	mov    eax,r12d
    2db7:	5b                   	pop    rbx
    2db8:	5d                   	pop    rbp
    2db9:	41 5c                	pop    r12
    2dbb:	41 5d                	pop    r13
    2dbd:	c3                   	ret    
    2dbe:	66 90                	xchg   ax,ax
    2dc0:	48 8d 35 9b 79 00 00 	lea    rsi,[rip+0x799b]        # a762 <_IO_stdin_used+0xe2>
    2dc7:	48 89 ef             	mov    rdi,rbp
    2dca:	49 89 d5             	mov    r13,rdx
    2dcd:	e8 1e 4c 00 00       	call   79f0 <fopen_safer>
    2dd2:	48 85 c0             	test   rax,rax
    2dd5:	48 89 c3             	mov    rbx,rax
    2dd8:	74 66                	je     2e40 <digest_file.isra.1+0x140>
    2dda:	48 89 c7             	mov    rdi,rax
    2ddd:	be 02 00 00 00       	mov    esi,0x2
    2de2:	e8 d9 4b 00 00       	call   79c0 <fadvise>
    2de7:	4c 89 e6             	mov    rsi,r12
    2dea:	48 89 df             	mov    rdi,rbx
    2ded:	e8 7e 4b 00 00       	call   7970 <sha512_stream>
    2df2:	85 c0                	test   eax,eax
    2df4:	0f 85 76 ff ff ff    	jne    2d70 <digest_file.isra.1+0x70>
    2dfa:	48 89 df             	mov    rdi,rbx
    2dfd:	e8 7e 72 00 00       	call   a080 <rpl_fclose>
    2e02:	85 c0                	test   eax,eax
    2e04:	0f 84 51 ff ff ff    	je     2d5b <digest_file.isra.1+0x5b>
    2e0a:	48 89 ea             	mov    rdx,rbp
    2e0d:	be 03 00 00 00       	mov    esi,0x3
    2e12:	31 ff                	xor    edi,edi
    2e14:	e8 b7 67 00 00       	call   95d0 <quotearg_n_style_colon>
    2e19:	48 89 c3             	mov    rbx,rax
    2e1c:	45 31 e4             	xor    r12d,r12d
    2e1f:	e8 ac e7 ff ff       	call   15d0 <__errno_location@plt>
    2e24:	8b 30                	mov    esi,DWORD PTR [rax]
    2e26:	48 8d 15 28 84 00 00 	lea    rdx,[rip+0x8428]        # b255 <bin2hex.7156+0x25>
    2e2d:	48 89 d9             	mov    rcx,rbx
    2e30:	31 ff                	xor    edi,edi
    2e32:	31 c0                	xor    eax,eax
    2e34:	e8 f7 e9 ff ff       	call   1830 <error@plt>
    2e39:	e9 23 ff ff ff       	jmp    2d61 <digest_file.isra.1+0x61>
    2e3e:	66 90                	xchg   ax,ax
    2e40:	44 0f b6 25 aa b2 20 	movzx  r12d,BYTE PTR [rip+0x20b2aa]        # 20e0f2 <ignore_missing>
    2e47:	00 
    2e48:	e8 83 e7 ff ff       	call   15d0 <__errno_location@plt>
    2e4d:	48 89 c3             	mov    rbx,rax
    2e50:	45 84 e4             	test   r12b,r12b
    2e53:	74 05                	je     2e5a <digest_file.isra.1+0x15a>
    2e55:	83 38 02             	cmp    DWORD PTR [rax],0x2
    2e58:	74 36                	je     2e90 <digest_file.isra.1+0x190>
    2e5a:	48 89 ea             	mov    rdx,rbp
    2e5d:	be 03 00 00 00       	mov    esi,0x3
    2e62:	31 ff                	xor    edi,edi
    2e64:	e8 67 67 00 00       	call   95d0 <quotearg_n_style_colon>
    2e69:	8b 33                	mov    esi,DWORD PTR [rbx]
    2e6b:	48 8d 15 e3 83 00 00 	lea    rdx,[rip+0x83e3]        # b255 <bin2hex.7156+0x25>
    2e72:	48 89 c1             	mov    rcx,rax
    2e75:	31 ff                	xor    edi,edi
    2e77:	31 c0                	xor    eax,eax
    2e79:	45 31 e4             	xor    r12d,r12d
    2e7c:	e8 af e9 ff ff       	call   1830 <error@plt>
    2e81:	e9 db fe ff ff       	jmp    2d61 <digest_file.isra.1+0x61>
    2e86:	66 2e 0f 1f 84 00 00 	nop    WORD PTR cs:[rax+rax*1+0x0]
    2e8d:	00 00 00 
    2e90:	41 c6 45 00 01       	mov    BYTE PTR [r13+0x0],0x1
    2e95:	e9 c7 fe ff ff       	jmp    2d61 <digest_file.isra.1+0x61>
    2e9a:	66 0f 1f 44 00 00    	nop    WORD PTR [rax+rax*1+0x0]

0000000000002ea0 <usage>:
    2ea0:	41 55                	push   r13
    2ea2:	41 54                	push   r12
    2ea4:	ba 05 00 00 00       	mov    edx,0x5
    2ea9:	55                   	push   rbp
    2eaa:	53                   	push   rbx
    2eab:	89 fd                	mov    ebp,edi
    2ead:	48 81 ec 88 00 00 00 	sub    rsp,0x88
    2eb4:	48 8b 1d 65 b2 20 00 	mov    rbx,QWORD PTR [rip+0x20b265]        # 20e120 <program_name>
    2ebb:	64 48 8b 04 25 28 00 	mov    rax,QWORD PTR fs:0x28
    2ec2:	00 00 
    2ec4:	48 89 44 24 78       	mov    QWORD PTR [rsp+0x78],rax
    2ec9:	31 c0                	xor    eax,eax
    2ecb:	85 ff                	test   edi,edi
    2ecd:	74 2e                	je     2efd <usage+0x5d>
    2ecf:	48 8d 35 82 79 00 00 	lea    rsi,[rip+0x7982]        # a858 <_IO_stdin_used+0x1d8>
    2ed6:	31 ff                	xor    edi,edi
    2ed8:	e8 83 e7 ff ff       	call   1660 <dcgettext@plt>
    2edd:	48 8b 3d fc b1 20 00 	mov    rdi,QWORD PTR [rip+0x20b1fc]        # 20e0e0 <stderr@@GLIBC_2.2.5>
    2ee4:	48 89 c2             	mov    rdx,rax
    2ee7:	48 89 d9             	mov    rcx,rbx
    2eea:	be 01 00 00 00       	mov    esi,0x1
    2eef:	31 c0                	xor    eax,eax
    2ef1:	e8 aa e9 ff ff       	call   18a0 <__fprintf_chk@plt>
    2ef6:	89 ef                	mov    edi,ebp
    2ef8:	e8 83 e9 ff ff       	call   1880 <exit@plt>
    2efd:	48 8d 35 7c 79 00 00 	lea    rsi,[rip+0x797c]        # a880 <_IO_stdin_used+0x200>
    2f04:	31 ff                	xor    edi,edi
    2f06:	e8 55 e7 ff ff       	call   1660 <dcgettext@plt>
    2f0b:	48 8d 0d 82 77 00 00 	lea    rcx,[rip+0x7782]        # a694 <_IO_stdin_used+0x14>
    2f12:	41 b8 00 02 00 00    	mov    r8d,0x200
    2f18:	48 89 da             	mov    rdx,rbx
    2f1b:	48 89 c6             	mov    rsi,rax
    2f1e:	bf 01 00 00 00       	mov    edi,0x1
    2f23:	31 c0                	xor    eax,eax
    2f25:	e8 e6 e8 ff ff       	call   1810 <__printf_chk@plt>
    2f2a:	48 8b 1d 77 b1 20 00 	mov    rbx,QWORD PTR [rip+0x20b177]        # 20e0a8 <stdout@@GLIBC_2.2.5>
    2f31:	48 8d 35 90 79 00 00 	lea    rsi,[rip+0x7990]        # a8c8 <_IO_stdin_used+0x248>
    2f38:	ba 05 00 00 00       	mov    edx,0x5
    2f3d:	31 ff                	xor    edi,edi
    2f3f:	e8 1c e7 ff ff       	call   1660 <dcgettext@plt>
    2f44:	48 89 de             	mov    rsi,rbx
    2f47:	48 89 c7             	mov    rdi,rax
    2f4a:	e8 f1 e7 ff ff       	call   1740 <fputs_unlocked@plt>
    2f4f:	48 8b 1d 52 b1 20 00 	mov    rbx,QWORD PTR [rip+0x20b152]        # 20e0a8 <stdout@@GLIBC_2.2.5>
    2f56:	48 8d 35 a3 79 00 00 	lea    rsi,[rip+0x79a3]        # a900 <_IO_stdin_used+0x280>
    2f5d:	ba 05 00 00 00       	mov    edx,0x5
    2f62:	31 ff                	xor    edi,edi
    2f64:	e8 f7 e6 ff ff       	call   1660 <dcgettext@plt>
    2f69:	48 89 de             	mov    rsi,rbx
    2f6c:	48 89 c7             	mov    rdi,rax
    2f6f:	e8 cc e7 ff ff       	call   1740 <fputs_unlocked@plt>
    2f74:	48 8d 35 b5 79 00 00 	lea    rsi,[rip+0x79b5]        # a930 <_IO_stdin_used+0x2b0>
    2f7b:	31 ff                	xor    edi,edi
    2f7d:	ba 05 00 00 00       	mov    edx,0x5
    2f82:	e8 d9 e6 ff ff       	call   1660 <dcgettext@plt>
    2f87:	48 8d 15 06 77 00 00 	lea    rdx,[rip+0x7706]        # a694 <_IO_stdin_used+0x14>
    2f8e:	48 89 c6             	mov    rsi,rax
    2f91:	bf 01 00 00 00       	mov    edi,0x1
    2f96:	31 c0                	xor    eax,eax
    2f98:	e8 73 e8 ff ff       	call   1810 <__printf_chk@plt>
    2f9d:	48 8b 1d 04 b1 20 00 	mov    rbx,QWORD PTR [rip+0x20b104]        # 20e0a8 <stdout@@GLIBC_2.2.5>
    2fa4:	48 8d 35 cd 79 00 00 	lea    rsi,[rip+0x79cd]        # a978 <_IO_stdin_used+0x2f8>
    2fab:	ba 05 00 00 00       	mov    edx,0x5
    2fb0:	31 ff                	xor    edi,edi
    2fb2:	e8 a9 e6 ff ff       	call   1660 <dcgettext@plt>
    2fb7:	48 89 de             	mov    rsi,rbx
    2fba:	48 89 c7             	mov    rdi,rax
    2fbd:	e8 7e e7 ff ff       	call   1740 <fputs_unlocked@plt>
    2fc2:	48 8b 1d df b0 20 00 	mov    rbx,QWORD PTR [rip+0x20b0df]        # 20e0a8 <stdout@@GLIBC_2.2.5>
    2fc9:	48 8d 35 e0 79 00 00 	lea    rsi,[rip+0x79e0]        # a9b0 <_IO_stdin_used+0x330>
    2fd0:	ba 05 00 00 00       	mov    edx,0x5
    2fd5:	31 ff                	xor    edi,edi
    2fd7:	e8 84 e6 ff ff       	call   1660 <dcgettext@plt>
    2fdc:	48 89 de             	mov    rsi,rbx
    2fdf:	48 89 c7             	mov    rdi,rax
    2fe2:	e8 59 e7 ff ff       	call   1740 <fputs_unlocked@plt>
    2fe7:	48 8b 1d ba b0 20 00 	mov    rbx,QWORD PTR [rip+0x20b0ba]        # 20e0a8 <stdout@@GLIBC_2.2.5>
    2fee:	48 8d 35 f3 79 00 00 	lea    rsi,[rip+0x79f3]        # a9e8 <_IO_stdin_used+0x368>
    2ff5:	ba 05 00 00 00       	mov    edx,0x5
    2ffa:	31 ff                	xor    edi,edi
    2ffc:	e8 5f e6 ff ff       	call   1660 <dcgettext@plt>
    3001:	48 89 de             	mov    rsi,rbx
    3004:	48 89 c7             	mov    rdi,rax
    3007:	e8 34 e7 ff ff       	call   1740 <fputs_unlocked@plt>
    300c:	48 8b 1d 95 b0 20 00 	mov    rbx,QWORD PTR [rip+0x20b095]        # 20e0a8 <stdout@@GLIBC_2.2.5>
    3013:	48 8d 35 4e 7a 00 00 	lea    rsi,[rip+0x7a4e]        # aa68 <_IO_stdin_used+0x3e8>
    301a:	ba 05 00 00 00       	mov    edx,0x5
    301f:	31 ff                	xor    edi,edi
    3021:	e8 3a e6 ff ff       	call   1660 <dcgettext@plt>
    3026:	48 89 de             	mov    rsi,rbx
    3029:	48 89 c7             	mov    rdi,rax
    302c:	e8 0f e7 ff ff       	call   1740 <fputs_unlocked@plt>
    3031:	48 8b 1d 70 b0 20 00 	mov    rbx,QWORD PTR [rip+0x20b070]        # 20e0a8 <stdout@@GLIBC_2.2.5>
    3038:	48 8d 35 e1 7b 00 00 	lea    rsi,[rip+0x7be1]        # ac20 <_IO_stdin_used+0x5a0>
    303f:	ba 05 00 00 00       	mov    edx,0x5
    3044:	31 ff                	xor    edi,edi
    3046:	e8 15 e6 ff ff       	call   1660 <dcgettext@plt>
    304b:	48 89 de             	mov    rsi,rbx
    304e:	48 89 c7             	mov    rdi,rax
    3051:	e8 ea e6 ff ff       	call   1740 <fputs_unlocked@plt>
    3056:	48 8b 1d 4b b0 20 00 	mov    rbx,QWORD PTR [rip+0x20b04b]        # 20e0a8 <stdout@@GLIBC_2.2.5>
    305d:	48 8d 35 ec 7b 00 00 	lea    rsi,[rip+0x7bec]        # ac50 <_IO_stdin_used+0x5d0>
    3064:	ba 05 00 00 00       	mov    edx,0x5
    3069:	31 ff                	xor    edi,edi
    306b:	e8 f0 e5 ff ff       	call   1660 <dcgettext@plt>
    3070:	48 89 de             	mov    rsi,rbx
    3073:	48 89 c7             	mov    rdi,rax
    3076:	48 8d 1d 0d 76 00 00 	lea    rbx,[rip+0x760d]        # a68a <_IO_stdin_used+0xa>
    307d:	e8 be e6 ff ff       	call   1740 <fputs_unlocked@plt>
    3082:	48 8d 35 ff 7b 00 00 	lea    rsi,[rip+0x7bff]        # ac88 <_IO_stdin_used+0x608>
    3089:	31 ff                	xor    edi,edi
    308b:	ba 05 00 00 00       	mov    edx,0x5
    3090:	e8 cb e5 ff ff       	call   1660 <dcgettext@plt>
    3095:	48 8d 15 ff 75 00 00 	lea    rdx,[rip+0x75ff]        # a69b <_IO_stdin_used+0x1b>
    309c:	48 89 c6             	mov    rsi,rax
    309f:	bf 01 00 00 00       	mov    edi,0x1
    30a4:	31 c0                	xor    eax,eax
    30a6:	e8 65 e7 ff ff       	call   1810 <__printf_chk@plt>
    30ab:	48 8d 05 f4 75 00 00 	lea    rax,[rip+0x75f4]        # a6a6 <_IO_stdin_used+0x26>
    30b2:	48 8d 0d 2e 76 00 00 	lea    rcx,[rip+0x762e]        # a6e7 <_IO_stdin_used+0x67>
    30b9:	48 89 5c 24 50       	mov    QWORD PTR [rsp+0x50],rbx
    30be:	48 c7 44 24 60 00 00 	mov    QWORD PTR [rsp+0x60],0x0
    30c5:	00 00 
    30c7:	48 c7 44 24 68 00 00 	mov    QWORD PTR [rsp+0x68],0x0
    30ce:	00 00 
    30d0:	48 89 e2             	mov    rdx,rsp
    30d3:	48 89 04 24          	mov    QWORD PTR [rsp],rax
    30d7:	48 8d 05 ca 75 00 00 	lea    rax,[rip+0x75ca]        # a6a8 <_IO_stdin_used+0x28>
    30de:	48 89 4c 24 30       	mov    QWORD PTR [rsp+0x30],rcx
    30e3:	48 8d 0d 07 76 00 00 	lea    rcx,[rip+0x7607]        # a6f1 <_IO_stdin_used+0x71>
    30ea:	48 89 44 24 08       	mov    QWORD PTR [rsp+0x8],rax
    30ef:	48 8d 05 20 76 00 00 	lea    rax,[rip+0x7620]        # a716 <_IO_stdin_used+0x96>
    30f6:	48 89 4c 24 40       	mov    QWORD PTR [rsp+0x40],rcx
    30fb:	48 89 44 24 10       	mov    QWORD PTR [rsp+0x10],rax
    3100:	48 8d 05 b1 75 00 00 	lea    rax,[rip+0x75b1]        # a6b8 <_IO_stdin_used+0x38>
    3107:	48 89 44 24 18       	mov    QWORD PTR [rsp+0x18],rax
    310c:	48 8d 05 bb 75 00 00 	lea    rax,[rip+0x75bb]        # a6ce <_IO_stdin_used+0x4e>
    3113:	48 89 44 24 20       	mov    QWORD PTR [rsp+0x20],rax
    3118:	48 8d 05 b9 75 00 00 	lea    rax,[rip+0x75b9]        # a6d8 <_IO_stdin_used+0x58>
    311f:	48 89 44 24 28       	mov    QWORD PTR [rsp+0x28],rax
    3124:	48 89 44 24 38       	mov    QWORD PTR [rsp+0x38],rax
    3129:	48 89 44 24 48       	mov    QWORD PTR [rsp+0x48],rax
    312e:	48 89 44 24 58       	mov    QWORD PTR [rsp+0x58],rax
    3133:	0f 1f 44 00 00       	nop    DWORD PTR [rax+rax*1+0x0]
    3138:	48 83 c2 10          	add    rdx,0x10
    313c:	48 8b 3a             	mov    rdi,QWORD PTR [rdx]
    313f:	48 85 ff             	test   rdi,rdi
    3142:	74 13                	je     3157 <usage+0x2b7>
    3144:	b9 0a 00 00 00       	mov    ecx,0xa
    3149:	48 89 de             	mov    rsi,rbx
    314c:	f3 a6                	repz cmps BYTE PTR ds:[rsi],BYTE PTR es:[rdi]
    314e:	0f 97 c0             	seta   al
    3151:	1c 00                	sbb    al,0x0
    3153:	84 c0                	test   al,al
    3155:	75 e1                	jne    3138 <usage+0x298>
    3157:	4c 8b 62 08          	mov    r12,QWORD PTR [rdx+0x8]
    315b:	31 ff                	xor    edi,edi
    315d:	ba 05 00 00 00       	mov    edx,0x5
    3162:	48 8d 35 92 75 00 00 	lea    rsi,[rip+0x7592]        # a6fb <_IO_stdin_used+0x7b>
    3169:	4d 85 e4             	test   r12,r12
    316c:	0f 84 c1 00 00 00    	je     3233 <usage+0x393>
    3172:	e8 e9 e4 ff ff       	call   1660 <dcgettext@plt>
    3177:	48 8d 0d 3a 7c 00 00 	lea    rcx,[rip+0x7c3a]        # adb8 <_IO_stdin_used+0x738>
    317e:	48 8d 15 8d 75 00 00 	lea    rdx,[rip+0x758d]        # a712 <_IO_stdin_used+0x92>
    3185:	48 89 c6             	mov    rsi,rax
    3188:	bf 01 00 00 00       	mov    edi,0x1
    318d:	31 c0                	xor    eax,eax
    318f:	e8 7c e6 ff ff       	call   1810 <__printf_chk@plt>
    3194:	31 f6                	xor    esi,esi
    3196:	bf 05 00 00 00       	mov    edi,0x5
    319b:	e8 60 e6 ff ff       	call   1800 <setlocale@plt>
    31a0:	48 85 c0             	test   rax,rax
    31a3:	74 1c                	je     31c1 <usage+0x321>
    31a5:	48 8d 35 74 75 00 00 	lea    rsi,[rip+0x7574]        # a720 <_IO_stdin_used+0xa0>
    31ac:	ba 03 00 00 00       	mov    edx,0x3
    31b1:	48 89 c7             	mov    rdi,rax
    31b4:	e8 27 e4 ff ff       	call   15e0 <strncmp@plt>
    31b9:	85 c0                	test   eax,eax
    31bb:	0f 85 07 01 00 00    	jne    32c8 <usage+0x428>
    31c1:	48 8d 35 5c 75 00 00 	lea    rsi,[rip+0x755c]        # a724 <_IO_stdin_used+0xa4>
    31c8:	31 ff                	xor    edi,edi
    31ca:	ba 05 00 00 00       	mov    edx,0x5
    31cf:	e8 8c e4 ff ff       	call   1660 <dcgettext@plt>
    31d4:	48 8d 0d af 74 00 00 	lea    rcx,[rip+0x74af]        # a68a <_IO_stdin_used+0xa>
    31db:	48 8d 15 d6 7b 00 00 	lea    rdx,[rip+0x7bd6]        # adb8 <_IO_stdin_used+0x738>
    31e2:	48 89 c6             	mov    rsi,rax
    31e5:	bf 01 00 00 00       	mov    edi,0x1
    31ea:	31 c0                	xor    eax,eax
    31ec:	e8 1f e6 ff ff       	call   1810 <__printf_chk@plt>
    31f1:	49 39 dc             	cmp    r12,rbx
    31f4:	48 8d 0d c7 74 00 00 	lea    rcx,[rip+0x74c7]        # a6c2 <_IO_stdin_used+0x42>
    31fb:	48 8d 1d 5f 86 00 00 	lea    rbx,[rip+0x865f]        # b861 <quoting_style_vals+0x81>
    3202:	48 0f 44 d9          	cmove  rbx,rcx
    3206:	48 8d 35 1b 7c 00 00 	lea    rsi,[rip+0x7c1b]        # ae28 <_IO_stdin_used+0x7a8>
    320d:	31 ff                	xor    edi,edi
    320f:	ba 05 00 00 00       	mov    edx,0x5
    3214:	e8 47 e4 ff ff       	call   1660 <dcgettext@plt>
    3219:	48 89 d9             	mov    rcx,rbx
    321c:	48 89 c6             	mov    rsi,rax
    321f:	4c 89 e2             	mov    rdx,r12
    3222:	bf 01 00 00 00       	mov    edi,0x1
    3227:	31 c0                	xor    eax,eax
    3229:	e8 e2 e5 ff ff       	call   1810 <__printf_chk@plt>
    322e:	e9 c3 fc ff ff       	jmp    2ef6 <usage+0x56>
    3233:	e8 28 e4 ff ff       	call   1660 <dcgettext@plt>
    3238:	48 8d 0d 79 7b 00 00 	lea    rcx,[rip+0x7b79]        # adb8 <_IO_stdin_used+0x738>
    323f:	48 8d 15 cc 74 00 00 	lea    rdx,[rip+0x74cc]        # a712 <_IO_stdin_used+0x92>
    3246:	48 89 c6             	mov    rsi,rax
    3249:	bf 01 00 00 00       	mov    edi,0x1
    324e:	31 c0                	xor    eax,eax
    3250:	e8 bb e5 ff ff       	call   1810 <__printf_chk@plt>
    3255:	31 f6                	xor    esi,esi
    3257:	bf 05 00 00 00       	mov    edi,0x5
    325c:	e8 9f e5 ff ff       	call   1800 <setlocale@plt>
    3261:	48 85 c0             	test   rax,rax
    3264:	74 18                	je     327e <usage+0x3de>
    3266:	48 8d 35 b3 74 00 00 	lea    rsi,[rip+0x74b3]        # a720 <_IO_stdin_used+0xa0>
    326d:	ba 03 00 00 00       	mov    edx,0x3
    3272:	48 89 c7             	mov    rdi,rax
    3275:	e8 66 e3 ff ff       	call   15e0 <strncmp@plt>
    327a:	85 c0                	test   eax,eax
    327c:	75 43                	jne    32c1 <usage+0x421>
    327e:	48 8d 35 9f 74 00 00 	lea    rsi,[rip+0x749f]        # a724 <_IO_stdin_used+0xa4>
    3285:	ba 05 00 00 00       	mov    edx,0x5
    328a:	31 ff                	xor    edi,edi
    328c:	4c 8d 25 f7 73 00 00 	lea    r12,[rip+0x73f7]        # a68a <_IO_stdin_used+0xa>
    3293:	48 8d 1d 28 74 00 00 	lea    rbx,[rip+0x7428]        # a6c2 <_IO_stdin_used+0x42>
    329a:	e8 c1 e3 ff ff       	call   1660 <dcgettext@plt>
    329f:	48 8d 0d e4 73 00 00 	lea    rcx,[rip+0x73e4]        # a68a <_IO_stdin_used+0xa>
    32a6:	48 8d 15 0b 7b 00 00 	lea    rdx,[rip+0x7b0b]        # adb8 <_IO_stdin_used+0x738>
    32ad:	48 89 c6             	mov    rsi,rax
    32b0:	bf 01 00 00 00       	mov    edi,0x1
    32b5:	31 c0                	xor    eax,eax
    32b7:	e8 54 e5 ff ff       	call   1810 <__printf_chk@plt>
    32bc:	e9 45 ff ff ff       	jmp    3206 <usage+0x366>
    32c1:	4c 8d 25 c2 73 00 00 	lea    r12,[rip+0x73c2]        # a68a <_IO_stdin_used+0xa>
    32c8:	4c 8b 2d d9 ad 20 00 	mov    r13,QWORD PTR [rip+0x20add9]        # 20e0a8 <stdout@@GLIBC_2.2.5>
    32cf:	48 8d 35 0a 7b 00 00 	lea    rsi,[rip+0x7b0a]        # ade0 <_IO_stdin_used+0x760>
    32d6:	31 ff                	xor    edi,edi
    32d8:	ba 05 00 00 00       	mov    edx,0x5
    32dd:	e8 7e e3 ff ff       	call   1660 <dcgettext@plt>
    32e2:	4c 89 ee             	mov    rsi,r13
    32e5:	48 89 c7             	mov    rdi,rax
    32e8:	e8 53 e4 ff ff       	call   1740 <fputs_unlocked@plt>
    32ed:	e9 cf fe ff ff       	jmp    31c1 <usage+0x321>
    32f2:	66 2e 0f 1f 84 00 00 	nop    WORD PTR cs:[rax+rax*1+0x0]
    32f9:	00 00 00 
    32fc:	0f 1f 40 00          	nop    DWORD PTR [rax+0x0]

0000000000003300 <close_stdout_set_file_name>:
    3300:	48 89 3d 11 ae 20 00 	mov    QWORD PTR [rip+0x20ae11],rdi        # 20e118 <file_name>
    3307:	c3                   	ret    
    3308:	0f 1f 84 00 00 00 00 	nop    DWORD PTR [rax+rax*1+0x0]
    330f:	00 

0000000000003310 <close_stdout_set_ignore_EPIPE>:
    3310:	40 88 3d f9 ad 20 00 	mov    BYTE PTR [rip+0x20adf9],dil        # 20e110 <ignore_EPIPE>
    3317:	c3                   	ret    
    3318:	0f 1f 84 00 00 00 00 	nop    DWORD PTR [rax+rax*1+0x0]
    331f:	00 

0000000000003320 <close_stdout>:
    3320:	55                   	push   rbp
    3321:	53                   	push   rbx
    3322:	48 83 ec 08          	sub    rsp,0x8
    3326:	48 8b 3d 7b ad 20 00 	mov    rdi,QWORD PTR [rip+0x20ad7b]        # 20e0a8 <stdout@@GLIBC_2.2.5>
    332d:	e8 7e 71 00 00       	call   a4b0 <close_stream>
    3332:	85 c0                	test   eax,eax
    3334:	74 16                	je     334c <close_stdout+0x2c>
    3336:	e8 95 e2 ff ff       	call   15d0 <__errno_location@plt>
    333b:	80 3d ce ad 20 00 00 	cmp    BYTE PTR [rip+0x20adce],0x0        # 20e110 <ignore_EPIPE>
    3342:	48 89 c3             	mov    rbx,rax
    3345:	74 1c                	je     3363 <close_stdout+0x43>
    3347:	83 38 20             	cmp    DWORD PTR [rax],0x20
    334a:	75 17                	jne    3363 <close_stdout+0x43>
    334c:	48 8b 3d 8d ad 20 00 	mov    rdi,QWORD PTR [rip+0x20ad8d]        # 20e0e0 <stderr@@GLIBC_2.2.5>
    3353:	e8 58 71 00 00       	call   a4b0 <close_stream>
    3358:	85 c0                	test   eax,eax
    335a:	75 46                	jne    33a2 <close_stdout+0x82>
    335c:	48 83 c4 08          	add    rsp,0x8
    3360:	5b                   	pop    rbx
    3361:	5d                   	pop    rbp
    3362:	c3                   	ret    
    3363:	48 8d 35 db 7e 00 00 	lea    rsi,[rip+0x7edb]        # b245 <bin2hex.7156+0x15>
    336a:	31 ff                	xor    edi,edi
    336c:	ba 05 00 00 00       	mov    edx,0x5
    3371:	e8 ea e2 ff ff       	call   1660 <dcgettext@plt>
    3376:	48 8b 3d 9b ad 20 00 	mov    rdi,QWORD PTR [rip+0x20ad9b]        # 20e118 <file_name>
    337d:	48 89 c5             	mov    rbp,rax
    3380:	48 85 ff             	test   rdi,rdi
    3383:	74 28                	je     33ad <close_stdout+0x8d>
    3385:	e8 16 62 00 00       	call   95a0 <quotearg_colon>
    338a:	8b 33                	mov    esi,DWORD PTR [rbx]
    338c:	48 8d 15 be 7e 00 00 	lea    rdx,[rip+0x7ebe]        # b251 <bin2hex.7156+0x21>
    3393:	48 89 c1             	mov    rcx,rax
    3396:	49 89 e8             	mov    r8,rbp
    3399:	31 ff                	xor    edi,edi
    339b:	31 c0                	xor    eax,eax
    339d:	e8 8e e4 ff ff       	call   1830 <error@plt>
    33a2:	8b 3d 78 ac 20 00    	mov    edi,DWORD PTR [rip+0x20ac78]        # 20e020 <exit_failure>
    33a8:	e8 43 e2 ff ff       	call   15f0 <_exit@plt>
    33ad:	8b 33                	mov    esi,DWORD PTR [rbx]
    33af:	48 8d 15 9f 7e 00 00 	lea    rdx,[rip+0x7e9f]        # b255 <bin2hex.7156+0x25>
    33b6:	48 89 c1             	mov    rcx,rax
    33b9:	31 ff                	xor    edi,edi
    33bb:	31 c0                	xor    eax,eax
    33bd:	e8 6e e4 ff ff       	call   1830 <error@plt>
    33c2:	eb de                	jmp    33a2 <close_stdout+0x82>
    33c4:	66 2e 0f 1f 84 00 00 	nop    WORD PTR cs:[rax+rax*1+0x0]
    33cb:	00 00 00 
    33ce:	66 90                	xchg   ax,ax

00000000000033d0 <sha512_init_ctx>:
    33d0:	48 b8 08 c9 bc f3 67 	movabs rax,0x6a09e667f3bcc908
    33d7:	e6 09 6a 
    33da:	48 c7 47 48 00 00 00 	mov    QWORD PTR [rdi+0x48],0x0
    33e1:	00 
    33e2:	48 c7 47 40 00 00 00 	mov    QWORD PTR [rdi+0x40],0x0
    33e9:	00 
    33ea:	48 89 07             	mov    QWORD PTR [rdi],rax
    33ed:	48 b8 3b a7 ca 84 85 	movabs rax,0xbb67ae8584caa73b
    33f4:	ae 67 bb 
    33f7:	48 c7 47 50 00 00 00 	mov    QWORD PTR [rdi+0x50],0x0
    33fe:	00 
    33ff:	48 89 47 08          	mov    QWORD PTR [rdi+0x8],rax
    3403:	48 b8 2b f8 94 fe 72 	movabs rax,0x3c6ef372fe94f82b
    340a:	f3 6e 3c 
    340d:	48 89 47 10          	mov    QWORD PTR [rdi+0x10],rax
    3411:	48 b8 f1 36 1d 5f 3a 	movabs rax,0xa54ff53a5f1d36f1
    3418:	f5 4f a5 
    341b:	48 89 47 18          	mov    QWORD PTR [rdi+0x18],rax
    341f:	48 b8 d1 82 e6 ad 7f 	movabs rax,0x510e527fade682d1
    3426:	52 0e 51 
    3429:	48 89 47 20          	mov    QWORD PTR [rdi+0x20],rax
    342d:	48 b8 1f 6c 3e 2b 8c 	movabs rax,0x9b05688c2b3e6c1f
    3434:	68 05 9b 
    3437:	48 89 47 28          	mov    QWORD PTR [rdi+0x28],rax
    343b:	48 b8 6b bd 41 fb ab 	movabs rax,0x1f83d9abfb41bd6b
    3442:	d9 83 1f 
    3445:	48 89 47 30          	mov    QWORD PTR [rdi+0x30],rax
    3449:	48 b8 79 21 7e 13 19 	movabs rax,0x5be0cd19137e2179
    3450:	cd e0 5b 
    3453:	48 89 47 38          	mov    QWORD PTR [rdi+0x38],rax
    3457:	c3                   	ret    
    3458:	0f 1f 84 00 00 00 00 	nop    DWORD PTR [rax+rax*1+0x0]
    345f:	00 

0000000000003460 <sha384_init_ctx>:
    3460:	48 b8 d8 9e 05 c1 5d 	movabs rax,0xcbbb9d5dc1059ed8
    3467:	9d bb cb 
    346a:	48 c7 47 48 00 00 00 	mov    QWORD PTR [rdi+0x48],0x0
    3471:	00 
    3472:	48 c7 47 40 00 00 00 	mov    QWORD PTR [rdi+0x40],0x0
    3479:	00 
    347a:	48 89 07             	mov    QWORD PTR [rdi],rax
    347d:	48 b8 07 d5 7c 36 2a 	movabs rax,0x629a292a367cd507
    3484:	29 9a 62 
    3487:	48 c7 47 50 00 00 00 	mov    QWORD PTR [rdi+0x50],0x0
    348e:	00 
    348f:	48 89 47 08          	mov    QWORD PTR [rdi+0x8],rax
    3493:	48 b8 17 dd 70 30 5a 	movabs rax,0x9159015a3070dd17
    349a:	01 59 91 
    349d:	48 89 47 10          	mov    QWORD PTR [rdi+0x10],rax
    34a1:	48 b8 39 59 0e f7 d8 	movabs rax,0x152fecd8f70e5939
    34a8:	ec 2f 15 
    34ab:	48 89 47 18          	mov    QWORD PTR [rdi+0x18],rax
    34af:	48 b8 31 0b c0 ff 67 	movabs rax,0x67332667ffc00b31
    34b6:	26 33 67 
    34b9:	48 89 47 20          	mov    QWORD PTR [rdi+0x20],rax
    34bd:	48 b8 11 15 58 68 87 	movabs rax,0x8eb44a8768581511
    34c4:	4a b4 8e 
    34c7:	48 89 47 28          	mov    QWORD PTR [rdi+0x28],rax
    34cb:	48 b8 a7 8f f9 64 0d 	movabs rax,0xdb0c2e0d64f98fa7
    34d2:	2e 0c db 
    34d5:	48 89 47 30          	mov    QWORD PTR [rdi+0x30],rax
    34d9:	48 b8 a4 4f fa be 1d 	movabs rax,0x47b5481dbefa4fa4
    34e0:	48 b5 47 
    34e3:	48 89 47 38          	mov    QWORD PTR [rdi+0x38],rax
    34e7:	c3                   	ret    
    34e8:	0f 1f 84 00 00 00 00 	nop    DWORD PTR [rax+rax*1+0x0]
    34ef:	00 

00000000000034f0 <sha512_read_ctx>:
    34f0:	48 89 f0             	mov    rax,rsi
    34f3:	31 d2                	xor    edx,edx
    34f5:	0f 1f 00             	nop    DWORD PTR [rax]
    34f8:	48 8b 0c 17          	mov    rcx,QWORD PTR [rdi+rdx*1]
    34fc:	48 0f c9             	bswap  rcx
    34ff:	48 89 0c 10          	mov    QWORD PTR [rax+rdx*1],rcx
    3503:	48 83 c2 08          	add    rdx,0x8
    3507:	48 83 fa 40          	cmp    rdx,0x40
    350b:	75 eb                	jne    34f8 <sha512_read_ctx+0x8>
    350d:	f3 c3                	repz ret 
    350f:	90                   	nop

0000000000003510 <sha384_read_ctx>:
    3510:	48 89 f0             	mov    rax,rsi
    3513:	31 d2                	xor    edx,edx
    3515:	0f 1f 00             	nop    DWORD PTR [rax]
    3518:	48 8b 0c 17          	mov    rcx,QWORD PTR [rdi+rdx*1]
    351c:	48 0f c9             	bswap  rcx
    351f:	48 89 0c 10          	mov    QWORD PTR [rax+rdx*1],rcx
    3523:	48 83 c2 08          	add    rdx,0x8
    3527:	48 83 fa 30          	cmp    rdx,0x30
    352b:	75 eb                	jne    3518 <sha384_read_ctx+0x8>
    352d:	f3 c3                	repz ret 
    352f:	90                   	nop

0000000000003530 <sha512_process_block>:
    3530:	41 57                	push   r15
    3532:	41 56                	push   r14
    3534:	49 89 ff             	mov    r15,rdi
    3537:	41 55                	push   r13
    3539:	41 54                	push   r12
    353b:	55                   	push   rbp
    353c:	53                   	push   rbx
    353d:	48 89 d3             	mov    rbx,rdx
    3540:	48 81 ec 88 01 00 00 	sub    rsp,0x188
    3547:	48 8b 6a 08          	mov    rbp,QWORD PTR [rdx+0x8]
    354b:	4c 8b 6a 10          	mov    r13,QWORD PTR [rdx+0x10]
    354f:	64 48 8b 04 25 28 00 	mov    rax,QWORD PTR fs:0x28
    3556:	00 00 
    3558:	48 89 84 24 78 01 00 	mov    QWORD PTR [rsp+0x178],rax
    355f:	00 
    3560:	31 c0                	xor    eax,eax
    3562:	48 89 f0             	mov    rax,rsi
    3565:	4c 8b 42 18          	mov    r8,QWORD PTR [rdx+0x18]
    3569:	4c 8b 4a 20          	mov    r9,QWORD PTR [rdx+0x20]
    356d:	48 83 e0 f8          	and    rax,0xfffffffffffffff8
    3571:	4c 8b 62 28          	mov    r12,QWORD PTR [rdx+0x28]
    3575:	4c 8b 52 38          	mov    r10,QWORD PTR [rdx+0x38]
    3579:	48 01 f8             	add    rax,rdi
    357c:	48 03 72 40          	add    rsi,QWORD PTR [rdx+0x40]
    3580:	48 89 bc 24 88 00 00 	mov    QWORD PTR [rsp+0x88],rdi
    3587:	00 
    3588:	48 89 c1             	mov    rcx,rax
    358b:	48 8b 7a 30          	mov    rdi,QWORD PTR [rdx+0x30]
    358f:	48 89 94 24 e0 00 00 	mov    QWORD PTR [rsp+0xe0],rdx
    3596:	00 
    3597:	48 89 84 24 d8 00 00 	mov    QWORD PTR [rsp+0xd8],rax
    359e:	00 
    359f:	48 8b 02             	mov    rax,QWORD PTR [rdx]
    35a2:	0f 92 c2             	setb   dl
    35a5:	48 89 73 40          	mov    QWORD PTR [rbx+0x40],rsi
    35a9:	0f b6 d2             	movzx  edx,dl
    35ac:	48 01 53 48          	add    QWORD PTR [rbx+0x48],rdx
    35b0:	49 39 cf             	cmp    r15,rcx
    35b3:	0f 83 60 3c 00 00    	jae    7219 <sha512_process_block+0x3ce9>
    35b9:	48 8d 9c 24 f0 00 00 	lea    rbx,[rsp+0xf0]
    35c0:	00 
    35c1:	4c 89 94 24 c0 00 00 	mov    QWORD PTR [rsp+0xc0],r10
    35c8:	00 
    35c9:	48 89 bc 24 b8 00 00 	mov    QWORD PTR [rsp+0xb8],rdi
    35d0:	00 
    35d1:	4c 89 a4 24 b0 00 00 	mov    QWORD PTR [rsp+0xb0],r12
    35d8:	00 
    35d9:	4c 89 8c 24 a8 00 00 	mov    QWORD PTR [rsp+0xa8],r9
    35e0:	00 
    35e1:	4c 89 84 24 a0 00 00 	mov    QWORD PTR [rsp+0xa0],r8
    35e8:	00 
    35e9:	4c 89 ac 24 98 00 00 	mov    QWORD PTR [rsp+0x98],r13
    35f0:	00 
    35f1:	48 89 ac 24 90 00 00 	mov    QWORD PTR [rsp+0x90],rbp
    35f8:	00 
    35f9:	48 89 84 24 d0 00 00 	mov    QWORD PTR [rsp+0xd0],rax
    3600:	00 
    3601:	48 89 9c 24 e8 00 00 	mov    QWORD PTR [rsp+0xe8],rbx
    3608:	00 
    3609:	0f 1f 80 00 00 00 00 	nop    DWORD PTR [rax+0x0]
    3610:	48 8b b4 24 88 00 00 	mov    rsi,QWORD PTR [rsp+0x88]
    3617:	00 
    3618:	4c 8b 9c 24 e8 00 00 	mov    r11,QWORD PTR [rsp+0xe8]
    361f:	00 
    3620:	31 d2                	xor    edx,edx
    3622:	66 0f 1f 44 00 00    	nop    WORD PTR [rax+rax*1+0x0]
    3628:	48 8b 0c 16          	mov    rcx,QWORD PTR [rsi+rdx*1]
    362c:	48 0f c9             	bswap  rcx
    362f:	49 89 0c 13          	mov    QWORD PTR [r11+rdx*1],rcx
    3633:	48 83 c2 08          	add    rdx,0x8
    3637:	48 81 fa 80 00 00 00 	cmp    rdx,0x80
    363e:	75 e8                	jne    3628 <sha512_process_block+0xf8>
    3640:	4c 89 ca             	mov    rdx,r9
    3643:	4c 89 c9             	mov    rcx,r9
    3646:	48 89 c6             	mov    rsi,rax
    3649:	48 c1 c9 12          	ror    rcx,0x12
    364d:	48 c1 ca 0e          	ror    rdx,0xe
    3651:	48 c1 c6 1e          	rol    rsi,0x1e
    3655:	48 31 ca             	xor    rdx,rcx
    3658:	4c 89 c9             	mov    rcx,r9
    365b:	4c 8b bc 24 f8 00 00 	mov    r15,QWORD PTR [rsp+0xf8]
    3662:	00 
    3663:	48 c1 c1 17          	rol    rcx,0x17
    3667:	48 83 ac 24 88 00 00 	sub    QWORD PTR [rsp+0x88],0xffffffffffffff80
    366e:	00 80 
    3670:	48 31 d1             	xor    rcx,rdx
    3673:	48 ba 22 ae 28 d7 98 	movabs rdx,0x428a2f98d728ae22
    367a:	2f 8a 42 
    367d:	48 03 94 24 f0 00 00 	add    rdx,QWORD PTR [rsp+0xf0]
    3684:	00 
    3685:	49 01 d2             	add    r10,rdx
    3688:	4c 89 e2             	mov    rdx,r12
    368b:	48 31 fa             	xor    rdx,rdi
    368e:	49 01 ca             	add    r10,rcx
    3691:	4c 21 ca             	and    rdx,r9
    3694:	48 31 fa             	xor    rdx,rdi
    3697:	49 8d 0c 12          	lea    rcx,[r10+rdx*1]
    369b:	48 89 c2             	mov    rdx,rax
    369e:	49 89 c2             	mov    r10,rax
    36a1:	48 c1 ca 1c          	ror    rdx,0x1c
    36a5:	49 21 ea             	and    r10,rbp
    36a8:	48 31 d6             	xor    rsi,rdx
    36ab:	48 89 c2             	mov    rdx,rax
    36ae:	49 01 c8             	add    r8,rcx
    36b1:	48 c1 c2 19          	rol    rdx,0x19
    36b5:	4d 89 c3             	mov    r11,r8
    36b8:	48 31 d6             	xor    rsi,rdx
    36bb:	48 89 c2             	mov    rdx,rax
    36be:	49 c1 cb 12          	ror    r11,0x12
    36c2:	48 09 ea             	or     rdx,rbp
    36c5:	4c 21 ea             	and    rdx,r13
    36c8:	4c 09 d2             	or     rdx,r10
    36cb:	48 01 f2             	add    rdx,rsi
    36ce:	48 be cd 65 ef 23 91 	movabs rsi,0x7137449123ef65cd
    36d5:	44 37 71 
    36d8:	48 01 ca             	add    rdx,rcx
    36db:	4c 89 c9             	mov    rcx,r9
    36de:	4c 01 fe             	add    rsi,r15
    36e1:	4c 31 e1             	xor    rcx,r12
    36e4:	48 01 fe             	add    rsi,rdi
    36e7:	49 89 d2             	mov    r10,rdx
    36ea:	4c 21 c1             	and    rcx,r8
    36ed:	4c 31 e1             	xor    rcx,r12
    36f0:	48 01 ce             	add    rsi,rcx
    36f3:	4c 89 c1             	mov    rcx,r8
    36f6:	48 c1 c9 0e          	ror    rcx,0xe
    36fa:	49 31 cb             	xor    r11,rcx
    36fd:	4c 89 c1             	mov    rcx,r8
    3700:	49 21 c2             	and    r10,rax
    3703:	48 c1 c1 17          	rol    rcx,0x17
    3707:	4c 31 d9             	xor    rcx,r11
    370a:	49 89 d3             	mov    r11,rdx
    370d:	48 01 f1             	add    rcx,rsi
    3710:	48 89 d6             	mov    rsi,rdx
    3713:	49 c1 cb 1c          	ror    r11,0x1c
    3717:	48 c1 c6 1e          	rol    rsi,0x1e
    371b:	4a 8d 3c 29          	lea    rdi,[rcx+r13*1]
    371f:	4c 31 de             	xor    rsi,r11
    3722:	49 89 d3             	mov    r11,rdx
    3725:	49 c1 c3 19          	rol    r11,0x19
    3729:	4c 31 de             	xor    rsi,r11
    372c:	49 89 d3             	mov    r11,rdx
    372f:	49 09 c3             	or     r11,rax
    3732:	49 21 eb             	and    r11,rbp
    3735:	4d 09 d3             	or     r11,r10
    3738:	4d 89 c2             	mov    r10,r8
    373b:	49 01 f3             	add    r11,rsi
    373e:	4d 31 ca             	xor    r10,r9
    3741:	48 89 fe             	mov    rsi,rdi
    3744:	49 01 cb             	add    r11,rcx
    3747:	48 b9 2f 3b 4d ec cf 	movabs rcx,0xb5c0fbcfec4d3b2f
    374e:	fb c0 b5 
    3751:	48 03 8c 24 00 01 00 	add    rcx,QWORD PTR [rsp+0x100]
    3758:	00 
    3759:	49 21 fa             	and    r10,rdi
    375c:	48 c1 ce 12          	ror    rsi,0x12
    3760:	4d 89 de             	mov    r14,r11
    3763:	4d 31 ca             	xor    r10,r9
    3766:	48 89 f3             	mov    rbx,rsi
    3769:	49 c1 c6 19          	rol    r14,0x19
    376d:	4c 01 e1             	add    rcx,r12
    3770:	4c 01 d1             	add    rcx,r10
    3773:	49 89 fa             	mov    r10,rdi
    3776:	49 c1 ca 0e          	ror    r10,0xe
    377a:	4c 31 d3             	xor    rbx,r10
    377d:	49 89 fa             	mov    r10,rdi
    3780:	49 c1 c2 17          	rol    r10,0x17
    3784:	49 31 da             	xor    r10,rbx
    3787:	49 01 ca             	add    r10,rcx
    378a:	4c 89 d9             	mov    rcx,r11
    378d:	48 c1 c9 1c          	ror    rcx,0x1c
    3791:	49 8d 34 2a          	lea    rsi,[r10+rbp*1]
    3795:	48 89 d5             	mov    rbp,rdx
    3798:	48 89 cb             	mov    rbx,rcx
    379b:	4c 89 d9             	mov    rcx,r11
    379e:	48 c1 c1 1e          	rol    rcx,0x1e
    37a2:	48 31 d9             	xor    rcx,rbx
    37a5:	4c 31 f1             	xor    rcx,r14
    37a8:	49 89 d6             	mov    r14,rdx
    37ab:	4d 09 de             	or     r14,r11
    37ae:	4c 21 dd             	and    rbp,r11
    37b1:	4c 89 f3             	mov    rbx,r14
    37b4:	48 21 c3             	and    rbx,rax
    37b7:	48 09 eb             	or     rbx,rbp
    37ba:	4c 89 dd             	mov    rbp,r11
    37bd:	48 01 cb             	add    rbx,rcx
    37c0:	4c 89 c1             	mov    rcx,r8
    37c3:	4c 01 d3             	add    rbx,r10
    37c6:	49 ba bc db 89 81 a5 	movabs r10,0xe9b5dba58189dbbc
    37cd:	db b5 e9 
    37d0:	4c 03 94 24 08 01 00 	add    r10,QWORD PTR [rsp+0x108]
    37d7:	00 
    37d8:	48 31 f9             	xor    rcx,rdi
    37db:	48 21 dd             	and    rbp,rbx
    37de:	48 21 f1             	and    rcx,rsi
    37e1:	4c 31 c1             	xor    rcx,r8
    37e4:	4d 01 d1             	add    r9,r10
    37e7:	49 89 f2             	mov    r10,rsi
    37ea:	4c 01 c9             	add    rcx,r9
    37ed:	49 89 f1             	mov    r9,rsi
    37f0:	49 c1 ca 12          	ror    r10,0x12
    37f4:	49 c1 c9 0e          	ror    r9,0xe
    37f8:	4d 31 ca             	xor    r10,r9
    37fb:	49 89 f1             	mov    r9,rsi
    37fe:	49 c1 c1 17          	rol    r9,0x17
    3802:	4d 31 d1             	xor    r9,r10
    3805:	49 89 da             	mov    r10,rbx
    3808:	49 01 c9             	add    r9,rcx
    380b:	49 c1 ca 1c          	ror    r10,0x1c
    380f:	49 8d 0c 01          	lea    rcx,[r9+rax*1]
    3813:	48 89 d8             	mov    rax,rbx
    3816:	48 c1 c0 1e          	rol    rax,0x1e
    381a:	4c 31 d0             	xor    rax,r10
    381d:	49 89 da             	mov    r10,rbx
    3820:	49 c1 c2 19          	rol    r10,0x19
    3824:	4c 31 d0             	xor    rax,r10
    3827:	4d 89 da             	mov    r10,r11
    382a:	49 09 da             	or     r10,rbx
    382d:	49 21 d2             	and    r10,rdx
    3830:	49 09 ea             	or     r10,rbp
    3833:	48 89 dd             	mov    rbp,rbx
    3836:	49 01 c2             	add    r10,rax
    3839:	48 89 f8             	mov    rax,rdi
    383c:	48 31 f0             	xor    rax,rsi
    383f:	4d 01 ca             	add    r10,r9
    3842:	49 b9 38 b5 48 f3 5b 	movabs r9,0x3956c25bf348b538
    3849:	c2 56 39 
    384c:	48 21 c8             	and    rax,rcx
    384f:	48 31 f8             	xor    rax,rdi
    3852:	4c 03 8c 24 10 01 00 	add    r9,QWORD PTR [rsp+0x110]
    3859:	00 
    385a:	4c 21 d5             	and    rbp,r10
    385d:	4d 01 c8             	add    r8,r9
    3860:	49 89 c9             	mov    r9,rcx
    3863:	49 01 c0             	add    r8,rax
    3866:	48 89 c8             	mov    rax,rcx
    3869:	49 c1 c9 12          	ror    r9,0x12
    386d:	48 c1 c8 0e          	ror    rax,0xe
    3871:	49 31 c1             	xor    r9,rax
    3874:	48 89 c8             	mov    rax,rcx
    3877:	48 c1 c0 17          	rol    rax,0x17
    387b:	4c 31 c8             	xor    rax,r9
    387e:	4d 89 d1             	mov    r9,r10
    3881:	4c 01 c0             	add    rax,r8
    3884:	4d 89 d0             	mov    r8,r10
    3887:	49 c1 c9 1c          	ror    r9,0x1c
    388b:	49 c1 c0 1e          	rol    r8,0x1e
    388f:	48 01 c2             	add    rdx,rax
    3892:	4d 31 c8             	xor    r8,r9
    3895:	4d 89 d1             	mov    r9,r10
    3898:	49 c1 c1 19          	rol    r9,0x19
    389c:	4d 31 c8             	xor    r8,r9
    389f:	49 89 d9             	mov    r9,rbx
    38a2:	4d 09 d1             	or     r9,r10
    38a5:	4d 21 d9             	and    r9,r11
    38a8:	49 09 e9             	or     r9,rbp
    38ab:	4c 89 d5             	mov    rbp,r10
    38ae:	4d 01 c1             	add    r9,r8
    38b1:	49 89 f0             	mov    r8,rsi
    38b4:	49 01 c1             	add    r9,rax
    38b7:	48 b8 19 d0 05 b6 f1 	movabs rax,0x59f111f1b605d019
    38be:	11 f1 59 
    38c1:	48 03 84 24 18 01 00 	add    rax,QWORD PTR [rsp+0x118]
    38c8:	00 
    38c9:	49 31 c8             	xor    r8,rcx
    38cc:	49 21 d0             	and    r8,rdx
    38cf:	49 31 f0             	xor    r8,rsi
    38d2:	48 01 c7             	add    rdi,rax
    38d5:	48 89 d0             	mov    rax,rdx
    38d8:	49 01 f8             	add    r8,rdi
    38db:	48 89 d7             	mov    rdi,rdx
    38de:	48 c1 c8 12          	ror    rax,0x12
    38e2:	48 c1 cf 0e          	ror    rdi,0xe
    38e6:	48 31 f8             	xor    rax,rdi
    38e9:	48 89 d7             	mov    rdi,rdx
    38ec:	48 c1 c7 17          	rol    rdi,0x17
    38f0:	48 31 c7             	xor    rdi,rax
    38f3:	4c 89 c8             	mov    rax,r9
    38f6:	4c 01 c7             	add    rdi,r8
    38f9:	4d 89 c8             	mov    r8,r9
    38fc:	48 c1 c8 1c          	ror    rax,0x1c
    3900:	49 c1 c0 1e          	rol    r8,0x1e
    3904:	4c 21 cd             	and    rbp,r9
    3907:	49 01 fb             	add    r11,rdi
    390a:	49 31 c0             	xor    r8,rax
    390d:	4c 89 c8             	mov    rax,r9
    3910:	48 c1 c0 19          	rol    rax,0x19
    3914:	49 31 c0             	xor    r8,rax
    3917:	4c 89 d0             	mov    rax,r10
    391a:	4c 09 c8             	or     rax,r9
    391d:	48 21 d8             	and    rax,rbx
    3920:	48 09 e8             	or     rax,rbp
    3923:	4c 89 cd             	mov    rbp,r9
    3926:	4c 01 c0             	add    rax,r8
    3929:	49 b8 9b 4f 19 af a4 	movabs r8,0x923f82a4af194f9b
    3930:	82 3f 92 
    3933:	4c 03 84 24 20 01 00 	add    r8,QWORD PTR [rsp+0x120]
    393a:	00 
    393b:	48 01 f8             	add    rax,rdi
    393e:	48 89 cf             	mov    rdi,rcx
    3941:	48 31 d7             	xor    rdi,rdx
    3944:	4c 21 df             	and    rdi,r11
    3947:	4c 01 c6             	add    rsi,r8
    394a:	48 31 cf             	xor    rdi,rcx
    394d:	4d 89 d8             	mov    r8,r11
    3950:	48 01 f7             	add    rdi,rsi
    3953:	4c 89 de             	mov    rsi,r11
    3956:	49 c1 c8 12          	ror    r8,0x12
    395a:	48 c1 ce 0e          	ror    rsi,0xe
    395e:	49 31 f0             	xor    r8,rsi
    3961:	4c 89 de             	mov    rsi,r11
    3964:	48 c1 c6 17          	rol    rsi,0x17
    3968:	4c 31 c6             	xor    rsi,r8
    396b:	49 89 c0             	mov    r8,rax
    396e:	48 01 fe             	add    rsi,rdi
    3971:	48 89 c7             	mov    rdi,rax
    3974:	49 c1 c8 1c          	ror    r8,0x1c
    3978:	48 c1 c7 1e          	rol    rdi,0x1e
    397c:	48 01 f3             	add    rbx,rsi
    397f:	4c 31 c7             	xor    rdi,r8
    3982:	49 89 c0             	mov    r8,rax
    3985:	49 c1 c0 19          	rol    r8,0x19
    3989:	4c 31 c7             	xor    rdi,r8
    398c:	4d 89 c8             	mov    r8,r9
    398f:	49 09 c0             	or     r8,rax
    3992:	4d 21 d0             	and    r8,r10
    3995:	48 21 c5             	and    rbp,rax
    3998:	49 09 e8             	or     r8,rbp
    399b:	48 89 c5             	mov    rbp,rax
    399e:	49 01 f8             	add    r8,rdi
    39a1:	48 bf 18 81 6d da d5 	movabs rdi,0xab1c5ed5da6d8118
    39a8:	5e 1c ab 
    39ab:	48 03 bc 24 28 01 00 	add    rdi,QWORD PTR [rsp+0x128]
    39b2:	00 
    39b3:	49 01 f0             	add    r8,rsi
    39b6:	48 89 d6             	mov    rsi,rdx
    39b9:	4c 31 de             	xor    rsi,r11
    39bc:	4c 21 c5             	and    rbp,r8
    39bf:	48 21 de             	and    rsi,rbx
    39c2:	48 01 f9             	add    rcx,rdi
    39c5:	48 31 d6             	xor    rsi,rdx
    39c8:	48 89 df             	mov    rdi,rbx
    39cb:	48 01 ce             	add    rsi,rcx
    39ce:	48 89 d9             	mov    rcx,rbx
    39d1:	48 c1 cf 12          	ror    rdi,0x12
    39d5:	48 c1 c9 0e          	ror    rcx,0xe
    39d9:	48 31 cf             	xor    rdi,rcx
    39dc:	48 89 d9             	mov    rcx,rbx
    39df:	48 c1 c1 17          	rol    rcx,0x17
    39e3:	48 31 f9             	xor    rcx,rdi
    39e6:	4c 89 c7             	mov    rdi,r8
    39e9:	48 01 f1             	add    rcx,rsi
    39ec:	4c 89 c6             	mov    rsi,r8
    39ef:	48 c1 cf 1c          	ror    rdi,0x1c
    39f3:	48 c1 c6 1e          	rol    rsi,0x1e
    39f7:	49 01 ca             	add    r10,rcx
    39fa:	48 31 fe             	xor    rsi,rdi
    39fd:	4c 89 c7             	mov    rdi,r8
    3a00:	48 c1 c7 19          	rol    rdi,0x19
    3a04:	48 31 fe             	xor    rsi,rdi
    3a07:	48 89 c7             	mov    rdi,rax
    3a0a:	4c 09 c7             	or     rdi,r8
    3a0d:	4c 21 cf             	and    rdi,r9
    3a10:	48 09 ef             	or     rdi,rbp
    3a13:	4c 89 c5             	mov    rbp,r8
    3a16:	48 01 f7             	add    rdi,rsi
    3a19:	48 be 42 02 03 a3 98 	movabs rsi,0xd807aa98a3030242
    3a20:	aa 07 d8 
    3a23:	48 01 cf             	add    rdi,rcx
    3a26:	4c 89 d9             	mov    rcx,r11
    3a29:	48 31 d9             	xor    rcx,rbx
    3a2c:	4c 21 d1             	and    rcx,r10
    3a2f:	4c 31 d9             	xor    rcx,r11
    3a32:	48 03 b4 24 30 01 00 	add    rsi,QWORD PTR [rsp+0x130]
    3a39:	00 
    3a3a:	48 21 fd             	and    rbp,rdi
    3a3d:	48 01 f2             	add    rdx,rsi
    3a40:	4c 89 d6             	mov    rsi,r10
    3a43:	48 01 d1             	add    rcx,rdx
    3a46:	4c 89 d2             	mov    rdx,r10
    3a49:	48 c1 ce 12          	ror    rsi,0x12
    3a4d:	48 c1 ca 0e          	ror    rdx,0xe
    3a51:	48 31 d6             	xor    rsi,rdx
    3a54:	4c 89 d2             	mov    rdx,r10
    3a57:	48 c1 c2 17          	rol    rdx,0x17
    3a5b:	48 31 f2             	xor    rdx,rsi
    3a5e:	48 89 fe             	mov    rsi,rdi
    3a61:	48 01 ca             	add    rdx,rcx
    3a64:	48 89 f9             	mov    rcx,rdi
    3a67:	48 c1 ce 1c          	ror    rsi,0x1c
    3a6b:	48 c1 c1 1e          	rol    rcx,0x1e
    3a6f:	49 01 d1             	add    r9,rdx
    3a72:	48 31 f1             	xor    rcx,rsi
    3a75:	48 89 fe             	mov    rsi,rdi
    3a78:	48 c1 c6 19          	rol    rsi,0x19
    3a7c:	48 31 f1             	xor    rcx,rsi
    3a7f:	4c 89 c6             	mov    rsi,r8
    3a82:	48 09 fe             	or     rsi,rdi
    3a85:	48 21 c6             	and    rsi,rax
    3a88:	48 09 ee             	or     rsi,rbp
    3a8b:	48 89 fd             	mov    rbp,rdi
    3a8e:	48 01 ce             	add    rsi,rcx
    3a91:	48 b9 be 6f 70 45 01 	movabs rcx,0x12835b0145706fbe
    3a98:	5b 83 12 
    3a9b:	48 03 8c 24 38 01 00 	add    rcx,QWORD PTR [rsp+0x138]
    3aa2:	00 
    3aa3:	48 01 d6             	add    rsi,rdx
    3aa6:	48 89 da             	mov    rdx,rbx
    3aa9:	4c 31 d2             	xor    rdx,r10
    3aac:	4c 21 ca             	and    rdx,r9
    3aaf:	48 31 da             	xor    rdx,rbx
    3ab2:	49 01 cb             	add    r11,rcx
    3ab5:	4c 89 c9             	mov    rcx,r9
    3ab8:	49 01 d3             	add    r11,rdx
    3abb:	4c 89 ca             	mov    rdx,r9
    3abe:	48 c1 c9 12          	ror    rcx,0x12
    3ac2:	48 c1 ca 0e          	ror    rdx,0xe
    3ac6:	48 31 d1             	xor    rcx,rdx
    3ac9:	4c 89 ca             	mov    rdx,r9
    3acc:	48 c1 c2 17          	rol    rdx,0x17
    3ad0:	48 31 ca             	xor    rdx,rcx
    3ad3:	48 89 f1             	mov    rcx,rsi
    3ad6:	4c 01 da             	add    rdx,r11
    3ad9:	49 89 f3             	mov    r11,rsi
    3adc:	48 c1 c9 1c          	ror    rcx,0x1c
    3ae0:	49 c1 c3 1e          	rol    r11,0x1e
    3ae4:	48 21 f5             	and    rbp,rsi
    3ae7:	48 01 d0             	add    rax,rdx
    3aea:	49 31 cb             	xor    r11,rcx
    3aed:	48 89 f1             	mov    rcx,rsi
    3af0:	48 c1 c1 19          	rol    rcx,0x19
    3af4:	49 31 cb             	xor    r11,rcx
    3af7:	48 89 f9             	mov    rcx,rdi
    3afa:	48 09 f1             	or     rcx,rsi
    3afd:	4c 21 c1             	and    rcx,r8
    3b00:	48 09 e9             	or     rcx,rbp
    3b03:	48 89 f5             	mov    rbp,rsi
    3b06:	4c 01 d9             	add    rcx,r11
    3b09:	4d 89 d3             	mov    r11,r10
    3b0c:	48 01 d1             	add    rcx,rdx
    3b0f:	48 ba 8c b2 e4 4e be 	movabs rdx,0x243185be4ee4b28c
    3b16:	85 31 24 
    3b19:	48 03 94 24 40 01 00 	add    rdx,QWORD PTR [rsp+0x140]
    3b20:	00 
    3b21:	4d 31 cb             	xor    r11,r9
    3b24:	49 89 ce             	mov    r14,rcx
    3b27:	49 21 c3             	and    r11,rax
    3b2a:	49 c1 c6 1e          	rol    r14,0x1e
    3b2e:	4d 31 d3             	xor    r11,r10
    3b31:	48 01 d3             	add    rbx,rdx
    3b34:	48 89 c2             	mov    rdx,rax
    3b37:	4c 01 db             	add    rbx,r11
    3b3a:	49 89 c3             	mov    r11,rax
    3b3d:	48 c1 ca 12          	ror    rdx,0x12
    3b41:	49 c1 cb 0e          	ror    r11,0xe
    3b45:	4c 31 da             	xor    rdx,r11
    3b48:	49 89 c3             	mov    r11,rax
    3b4b:	49 c1 c3 17          	rol    r11,0x17
    3b4f:	49 31 d3             	xor    r11,rdx
    3b52:	48 89 ca             	mov    rdx,rcx
    3b55:	49 01 db             	add    r11,rbx
    3b58:	48 c1 ca 1c          	ror    rdx,0x1c
    3b5c:	4c 89 f3             	mov    rbx,r14
    3b5f:	48 31 d3             	xor    rbx,rdx
    3b62:	48 89 ca             	mov    rdx,rcx
    3b65:	4d 01 d8             	add    r8,r11
    3b68:	48 c1 c2 19          	rol    rdx,0x19
    3b6c:	4d 89 c5             	mov    r13,r8
    3b6f:	49 89 ce             	mov    r14,rcx
    3b72:	48 31 d3             	xor    rbx,rdx
    3b75:	48 89 f2             	mov    rdx,rsi
    3b78:	48 09 ca             	or     rdx,rcx
    3b7b:	48 21 fa             	and    rdx,rdi
    3b7e:	48 21 cd             	and    rbp,rcx
    3b81:	49 c1 cd 12          	ror    r13,0x12
    3b85:	48 09 ea             	or     rdx,rbp
    3b88:	48 01 da             	add    rdx,rbx
    3b8b:	48 bb e2 b4 ff d5 c3 	movabs rbx,0x550c7dc3d5ffb4e2
    3b92:	7d 0c 55 
    3b95:	48 03 9c 24 48 01 00 	add    rbx,QWORD PTR [rsp+0x148]
    3b9c:	00 
    3b9d:	4c 01 da             	add    rdx,r11
    3ba0:	4d 89 cb             	mov    r11,r9
    3ba3:	49 31 c3             	xor    r11,rax
    3ba6:	49 21 d6             	and    r14,rdx
    3ba9:	4d 21 c3             	and    r11,r8
    3bac:	49 01 da             	add    r10,rbx
    3baf:	4d 31 cb             	xor    r11,r9
    3bb2:	4f 8d 1c 13          	lea    r11,[r11+r10*1]
    3bb6:	4d 89 c2             	mov    r10,r8
    3bb9:	49 c1 ca 0e          	ror    r10,0xe
    3bbd:	4d 31 d5             	xor    r13,r10
    3bc0:	4d 89 c2             	mov    r10,r8
    3bc3:	49 c1 c2 17          	rol    r10,0x17
    3bc7:	4d 31 ea             	xor    r10,r13
    3bca:	49 89 d5             	mov    r13,rdx
    3bcd:	4d 01 da             	add    r10,r11
    3bd0:	49 89 d3             	mov    r11,rdx
    3bd3:	49 c1 cd 1c          	ror    r13,0x1c
    3bd7:	49 c1 c3 1e          	rol    r11,0x1e
    3bdb:	4c 01 d7             	add    rdi,r10
    3bde:	4d 31 eb             	xor    r11,r13
    3be1:	49 89 d5             	mov    r13,rdx
    3be4:	49 c1 c5 19          	rol    r13,0x19
    3be8:	4d 31 eb             	xor    r11,r13
    3beb:	49 89 cd             	mov    r13,rcx
    3bee:	49 09 d5             	or     r13,rdx
    3bf1:	49 21 f5             	and    r13,rsi
    3bf4:	4d 09 f5             	or     r13,r14
    3bf7:	49 89 fe             	mov    r14,rdi
    3bfa:	4d 01 dd             	add    r13,r11
    3bfd:	49 bb 6f 89 7b f2 74 	movabs r11,0x72be5d74f27b896f
    3c04:	5d be 72 
    3c07:	4c 03 9c 24 50 01 00 	add    r11,QWORD PTR [rsp+0x150]
    3c0e:	00 
    3c0f:	4d 01 d5             	add    r13,r10
    3c12:	49 89 c2             	mov    r10,rax
    3c15:	4d 31 c2             	xor    r10,r8
    3c18:	49 21 fa             	and    r10,rdi
    3c1b:	49 31 c2             	xor    r10,rax
    3c1e:	4d 01 d9             	add    r9,r11
    3c21:	49 c1 ce 12          	ror    r14,0x12
    3c25:	4f 8d 14 0a          	lea    r10,[r10+r9*1]
    3c29:	49 89 f9             	mov    r9,rdi
    3c2c:	49 89 d3             	mov    r11,rdx
    3c2f:	49 c1 c9 0e          	ror    r9,0xe
    3c33:	4d 21 eb             	and    r11,r13
    3c36:	4d 31 ce             	xor    r14,r9
    3c39:	49 89 f9             	mov    r9,rdi
    3c3c:	49 c1 c1 17          	rol    r9,0x17
    3c40:	4d 31 f1             	xor    r9,r14
    3c43:	4d 89 ee             	mov    r14,r13
    3c46:	4d 01 d1             	add    r9,r10
    3c49:	4d 89 ea             	mov    r10,r13
    3c4c:	49 c1 ce 1c          	ror    r14,0x1c
    3c50:	49 c1 c2 1e          	rol    r10,0x1e
    3c54:	4c 01 ce             	add    rsi,r9
    3c57:	4d 31 f2             	xor    r10,r14
    3c5a:	4d 89 ee             	mov    r14,r13
    3c5d:	49 89 f4             	mov    r12,rsi
    3c60:	49 c1 c6 19          	rol    r14,0x19
    3c64:	49 c1 cc 12          	ror    r12,0x12
    3c68:	4d 31 f2             	xor    r10,r14
    3c6b:	49 89 d6             	mov    r14,rdx
    3c6e:	4d 09 ee             	or     r14,r13
    3c71:	49 21 ce             	and    r14,rcx
    3c74:	4d 09 de             	or     r14,r11
    3c77:	4c 8b 9c 24 68 01 00 	mov    r11,QWORD PTR [rsp+0x168]
    3c7e:	00 
    3c7f:	4d 01 d6             	add    r14,r10
    3c82:	49 ba b1 96 16 3b fe 	movabs r10,0x80deb1fe3b1696b1
    3c89:	b1 de 80 
    3c8c:	4c 03 94 24 58 01 00 	add    r10,QWORD PTR [rsp+0x158]
    3c93:	00 
    3c94:	4d 01 ce             	add    r14,r9
    3c97:	4d 89 c1             	mov    r9,r8
    3c9a:	49 31 f9             	xor    r9,rdi
    3c9d:	49 21 f1             	and    r9,rsi
    3ca0:	4c 01 d0             	add    rax,r10
    3ca3:	4d 31 c1             	xor    r9,r8
    3ca6:	4d 89 ea             	mov    r10,r13
    3ca9:	4d 8d 0c 01          	lea    r9,[r9+rax*1]
    3cad:	48 89 f0             	mov    rax,rsi
    3cb0:	48 c1 c8 0e          	ror    rax,0xe
    3cb4:	49 31 c4             	xor    r12,rax
    3cb7:	48 89 f0             	mov    rax,rsi
    3cba:	48 c1 c0 17          	rol    rax,0x17
    3cbe:	4c 31 e0             	xor    rax,r12
    3cc1:	4d 89 f4             	mov    r12,r14
    3cc4:	4c 01 c8             	add    rax,r9
    3cc7:	4d 89 f1             	mov    r9,r14
    3cca:	49 c1 cc 1c          	ror    r12,0x1c
    3cce:	48 01 c1             	add    rcx,rax
    3cd1:	49 c1 c1 1e          	rol    r9,0x1e
    3cd5:	4d 21 f2             	and    r10,r14
    3cd8:	4d 31 e1             	xor    r9,r12
    3cdb:	4d 89 f4             	mov    r12,r14
    3cde:	48 89 cd             	mov    rbp,rcx
    3ce1:	49 c1 c4 19          	rol    r12,0x19
    3ce5:	48 c1 cd 12          	ror    rbp,0x12
    3ce9:	4d 31 e1             	xor    r9,r12
    3cec:	4d 89 ec             	mov    r12,r13
    3cef:	4d 09 f4             	or     r12,r14
    3cf2:	49 21 d4             	and    r12,rdx
    3cf5:	4d 09 d4             	or     r12,r10
    3cf8:	4d 89 fa             	mov    r10,r15
    3cfb:	4d 01 cc             	add    r12,r9
    3cfe:	49 b9 35 12 c7 25 a7 	movabs r9,0x9bdc06a725c71235
    3d05:	06 dc 9b 
    3d08:	4c 03 8c 24 60 01 00 	add    r9,QWORD PTR [rsp+0x160]
    3d0f:	00 
    3d10:	49 01 c4             	add    r12,rax
    3d13:	48 89 f8             	mov    rax,rdi
    3d16:	48 31 f0             	xor    rax,rsi
    3d19:	48 21 c8             	and    rax,rcx
    3d1c:	48 31 f8             	xor    rax,rdi
    3d1f:	4d 01 c8             	add    r8,r9
    3d22:	4d 89 f1             	mov    r9,r14
    3d25:	49 01 c0             	add    r8,rax
    3d28:	48 89 c8             	mov    rax,rcx
    3d2b:	4d 21 e1             	and    r9,r12
    3d2e:	48 c1 c8 0e          	ror    rax,0xe
    3d32:	48 31 c5             	xor    rbp,rax
    3d35:	48 89 c8             	mov    rax,rcx
    3d38:	48 c1 c0 17          	rol    rax,0x17
    3d3c:	48 31 e8             	xor    rax,rbp
    3d3f:	4c 89 e5             	mov    rbp,r12
    3d42:	4c 01 c0             	add    rax,r8
    3d45:	4d 89 e0             	mov    r8,r12
    3d48:	48 c1 cd 1c          	ror    rbp,0x1c
    3d4c:	49 c1 c0 1e          	rol    r8,0x1e
    3d50:	48 01 c2             	add    rdx,rax
    3d53:	49 31 e8             	xor    r8,rbp
    3d56:	4c 89 e5             	mov    rbp,r12
    3d59:	48 c1 c5 19          	rol    rbp,0x19
    3d5d:	49 31 e8             	xor    r8,rbp
    3d60:	4c 89 f5             	mov    rbp,r14
    3d63:	4c 09 e5             	or     rbp,r12
    3d66:	4c 21 ed             	and    rbp,r13
    3d69:	4c 09 cd             	or     rbp,r9
    3d6c:	4d 89 e1             	mov    r9,r12
    3d6f:	4c 01 c5             	add    rbp,r8
    3d72:	49 b8 94 26 69 cf 74 	movabs r8,0xc19bf174cf692694
    3d79:	f1 9b c1 
    3d7c:	4c 03 84 24 68 01 00 	add    r8,QWORD PTR [rsp+0x168]
    3d83:	00 
    3d84:	48 01 c5             	add    rbp,rax
    3d87:	48 89 f0             	mov    rax,rsi
    3d8a:	48 31 c8             	xor    rax,rcx
    3d8d:	49 21 e9             	and    r9,rbp
    3d90:	48 21 d0             	and    rax,rdx
    3d93:	48 31 f0             	xor    rax,rsi
    3d96:	4c 01 c7             	add    rdi,r8
    3d99:	49 89 d0             	mov    r8,rdx
    3d9c:	48 01 c7             	add    rdi,rax
    3d9f:	48 89 d0             	mov    rax,rdx
    3da2:	49 c1 c8 12          	ror    r8,0x12
    3da6:	48 c1 c8 0e          	ror    rax,0xe
    3daa:	49 31 c0             	xor    r8,rax
    3dad:	48 89 d0             	mov    rax,rdx
    3db0:	48 c1 c0 17          	rol    rax,0x17
    3db4:	4c 31 c0             	xor    rax,r8
    3db7:	49 89 e8             	mov    r8,rbp
    3dba:	48 01 f8             	add    rax,rdi
    3dbd:	48 89 ef             	mov    rdi,rbp
    3dc0:	49 c1 c8 1c          	ror    r8,0x1c
    3dc4:	48 c1 c7 1e          	rol    rdi,0x1e
    3dc8:	49 01 c5             	add    r13,rax
    3dcb:	4c 31 c7             	xor    rdi,r8
    3dce:	49 89 e8             	mov    r8,rbp
    3dd1:	49 c1 c0 19          	rol    r8,0x19
    3dd5:	4c 31 c7             	xor    rdi,r8
    3dd8:	4d 89 e0             	mov    r8,r12
    3ddb:	49 09 e8             	or     r8,rbp
    3dde:	4d 21 f0             	and    r8,r14
    3de1:	4d 09 c8             	or     r8,r9
    3de4:	49 89 e9             	mov    r9,rbp
    3de7:	49 01 f8             	add    r8,rdi
    3dea:	48 8b bc 24 60 01 00 	mov    rdi,QWORD PTR [rsp+0x160]
    3df1:	00 
    3df2:	49 01 c0             	add    r8,rax
    3df5:	48 8b 84 24 60 01 00 	mov    rax,QWORD PTR [rsp+0x160]
    3dfc:	00 
    3dfd:	48 c1 ef 06          	shr    rdi,0x6
    3e01:	48 c1 c8 13          	ror    rax,0x13
    3e05:	48 89 c3             	mov    rbx,rax
    3e08:	48 8b 84 24 60 01 00 	mov    rax,QWORD PTR [rsp+0x160]
    3e0f:	00 
    3e10:	48 c1 c0 03          	rol    rax,0x3
    3e14:	48 31 d8             	xor    rax,rbx
    3e17:	48 89 fb             	mov    rbx,rdi
    3e1a:	48 8b bc 24 f0 00 00 	mov    rdi,QWORD PTR [rsp+0xf0]
    3e21:	00 
    3e22:	48 03 bc 24 38 01 00 	add    rdi,QWORD PTR [rsp+0x138]
    3e29:	00 
    3e2a:	48 31 c3             	xor    rbx,rax
    3e2d:	48 8d 04 3b          	lea    rax,[rbx+rdi*1]
    3e31:	4c 89 ff             	mov    rdi,r15
    3e34:	48 d1 cf             	ror    rdi,1
    3e37:	49 c1 ca 08          	ror    r10,0x8
    3e3b:	4d 21 c1             	and    r9,r8
    3e3e:	4c 89 d3             	mov    rbx,r10
    3e41:	49 c1 cb 13          	ror    r11,0x13
    3e45:	4c 8b 94 24 08 01 00 	mov    r10,QWORD PTR [rsp+0x108]
    3e4c:	00 
    3e4d:	48 31 fb             	xor    rbx,rdi
    3e50:	4c 89 ff             	mov    rdi,r15
    3e53:	48 c1 ef 07          	shr    rdi,0x7
    3e57:	48 31 fb             	xor    rbx,rdi
    3e5a:	48 bf d2 4a f1 9e c1 	movabs rdi,0xe49b69c19ef14ad2
    3e61:	69 9b e4 
    3e64:	48 01 c3             	add    rbx,rax
    3e67:	48 89 c8             	mov    rax,rcx
    3e6a:	48 31 d0             	xor    rax,rdx
    3e6d:	48 01 df             	add    rdi,rbx
    3e70:	4c 21 e8             	and    rax,r13
    3e73:	48 01 fe             	add    rsi,rdi
    3e76:	4c 89 ef             	mov    rdi,r13
    3e79:	48 31 c8             	xor    rax,rcx
    3e7c:	48 c1 cf 12          	ror    rdi,0x12
    3e80:	48 01 c6             	add    rsi,rax
    3e83:	4c 89 e8             	mov    rax,r13
    3e86:	48 c1 c8 0e          	ror    rax,0xe
    3e8a:	48 31 c7             	xor    rdi,rax
    3e8d:	4c 89 e8             	mov    rax,r13
    3e90:	48 c1 c0 17          	rol    rax,0x17
    3e94:	48 31 f8             	xor    rax,rdi
    3e97:	4c 89 c7             	mov    rdi,r8
    3e9a:	48 01 f0             	add    rax,rsi
    3e9d:	4c 89 c6             	mov    rsi,r8
    3ea0:	48 c1 cf 1c          	ror    rdi,0x1c
    3ea4:	48 c1 c6 1e          	rol    rsi,0x1e
    3ea8:	49 01 c6             	add    r14,rax
    3eab:	48 31 fe             	xor    rsi,rdi
    3eae:	4c 89 c7             	mov    rdi,r8
    3eb1:	48 c1 c7 19          	rol    rdi,0x19
    3eb5:	48 31 fe             	xor    rsi,rdi
    3eb8:	48 89 ef             	mov    rdi,rbp
    3ebb:	4c 09 c7             	or     rdi,r8
    3ebe:	4c 21 e7             	and    rdi,r12
    3ec1:	4c 09 cf             	or     rdi,r9
    3ec4:	4d 89 c1             	mov    r9,r8
    3ec7:	48 01 f7             	add    rdi,rsi
    3eca:	48 8b b4 24 40 01 00 	mov    rsi,QWORD PTR [rsp+0x140]
    3ed1:	00 
    3ed2:	48 01 c7             	add    rdi,rax
    3ed5:	48 8b 84 24 68 01 00 	mov    rax,QWORD PTR [rsp+0x168]
    3edc:	00 
    3edd:	48 c1 c0 03          	rol    rax,0x3
    3ee1:	4c 31 d8             	xor    rax,r11
    3ee4:	4c 8b 9c 24 68 01 00 	mov    r11,QWORD PTR [rsp+0x168]
    3eeb:	00 
    3eec:	4c 01 fe             	add    rsi,r15
    3eef:	49 21 f9             	and    r9,rdi
    3ef2:	49 c1 eb 06          	shr    r11,0x6
    3ef6:	49 31 c3             	xor    r11,rax
    3ef9:	49 8d 04 33          	lea    rax,[r11+rsi*1]
    3efd:	48 8b b4 24 00 01 00 	mov    rsi,QWORD PTR [rsp+0x100]
    3f04:	00 
    3f05:	4c 8b 9c 24 00 01 00 	mov    r11,QWORD PTR [rsp+0x100]
    3f0c:	00 
    3f0d:	48 d1 ce             	ror    rsi,1
    3f10:	49 c1 cb 08          	ror    r11,0x8
    3f14:	49 31 f3             	xor    r11,rsi
    3f17:	48 8b b4 24 00 01 00 	mov    rsi,QWORD PTR [rsp+0x100]
    3f1e:	00 
    3f1f:	48 c1 ee 07          	shr    rsi,0x7
    3f23:	49 31 f3             	xor    r11,rsi
    3f26:	48 be e3 25 4f 38 86 	movabs rsi,0xefbe4786384f25e3
    3f2d:	47 be ef 
    3f30:	49 01 c3             	add    r11,rax
    3f33:	48 89 d0             	mov    rax,rdx
    3f36:	4c 31 e8             	xor    rax,r13
    3f39:	4c 01 de             	add    rsi,r11
    3f3c:	4c 21 f0             	and    rax,r14
    3f3f:	48 01 f1             	add    rcx,rsi
    3f42:	4c 89 f6             	mov    rsi,r14
    3f45:	48 31 d0             	xor    rax,rdx
    3f48:	48 c1 ce 12          	ror    rsi,0x12
    3f4c:	48 01 c1             	add    rcx,rax
    3f4f:	4c 89 f0             	mov    rax,r14
    3f52:	48 c1 c8 0e          	ror    rax,0xe
    3f56:	48 31 c6             	xor    rsi,rax
    3f59:	4c 89 f0             	mov    rax,r14
    3f5c:	48 c1 c0 17          	rol    rax,0x17
    3f60:	48 31 f0             	xor    rax,rsi
    3f63:	48 89 fe             	mov    rsi,rdi
    3f66:	48 01 c8             	add    rax,rcx
    3f69:	48 89 f9             	mov    rcx,rdi
    3f6c:	48 c1 ce 1c          	ror    rsi,0x1c
    3f70:	48 c1 c1 1e          	rol    rcx,0x1e
    3f74:	49 01 c4             	add    r12,rax
    3f77:	48 31 f1             	xor    rcx,rsi
    3f7a:	48 89 fe             	mov    rsi,rdi
    3f7d:	48 c1 c6 19          	rol    rsi,0x19
    3f81:	48 31 f1             	xor    rcx,rsi
    3f84:	4c 89 c6             	mov    rsi,r8
    3f87:	48 09 fe             	or     rsi,rdi
    3f8a:	48 21 ee             	and    rsi,rbp
    3f8d:	4c 09 ce             	or     rsi,r9
    3f90:	49 89 f9             	mov    r9,rdi
    3f93:	48 01 ce             	add    rsi,rcx
    3f96:	49 d1 ca             	ror    r10,1
    3f99:	48 01 c6             	add    rsi,rax
    3f9c:	48 8b 84 24 08 01 00 	mov    rax,QWORD PTR [rsp+0x108]
    3fa3:	00 
    3fa4:	49 89 f7             	mov    r15,rsi
    3fa7:	48 c1 c8 08          	ror    rax,0x8
    3fab:	4c 31 d0             	xor    rax,r10
    3fae:	4c 8b 94 24 08 01 00 	mov    r10,QWORD PTR [rsp+0x108]
    3fb5:	00 
    3fb6:	48 8b 8c 24 00 01 00 	mov    rcx,QWORD PTR [rsp+0x100]
    3fbd:	00 
    3fbe:	48 03 8c 24 48 01 00 	add    rcx,QWORD PTR [rsp+0x148]
    3fc5:	00 
    3fc6:	49 c1 ea 07          	shr    r10,0x7
    3fca:	49 31 c2             	xor    r10,rax
    3fcd:	49 8d 04 0a          	lea    rax,[r10+rcx*1]
    3fd1:	48 89 d9             	mov    rcx,rbx
    3fd4:	49 89 da             	mov    r10,rbx
    3fd7:	48 c1 c9 13          	ror    rcx,0x13
    3fdb:	49 c1 c2 03          	rol    r10,0x3
    3fdf:	49 31 ca             	xor    r10,rcx
    3fe2:	48 89 d9             	mov    rcx,rbx
    3fe5:	48 c1 e9 06          	shr    rcx,0x6
    3fe9:	49 31 ca             	xor    r10,rcx
    3fec:	48 b9 b5 d5 8c 8b c6 	movabs rcx,0xfc19dc68b8cd5b5
    3ff3:	9d c1 0f 
    3ff6:	49 01 c2             	add    r10,rax
    3ff9:	4c 89 e8             	mov    rax,r13
    3ffc:	4c 31 f0             	xor    rax,r14
    3fff:	4c 01 d1             	add    rcx,r10
    4002:	4c 21 e0             	and    rax,r12
    4005:	48 01 ca             	add    rdx,rcx
    4008:	4c 89 e1             	mov    rcx,r12
    400b:	4c 31 e8             	xor    rax,r13
    400e:	48 c1 c9 12          	ror    rcx,0x12
    4012:	48 01 c2             	add    rdx,rax
    4015:	4c 89 e0             	mov    rax,r12
    4018:	48 c1 c8 0e          	ror    rax,0xe
    401c:	48 31 c1             	xor    rcx,rax
    401f:	4c 89 e0             	mov    rax,r12
    4022:	48 c1 c0 17          	rol    rax,0x17
    4026:	48 31 c8             	xor    rax,rcx
    4029:	48 89 f1             	mov    rcx,rsi
    402c:	48 01 d0             	add    rax,rdx
    402f:	48 89 f2             	mov    rdx,rsi
    4032:	48 c1 c9 1c          	ror    rcx,0x1c
    4036:	48 c1 c2 1e          	rol    rdx,0x1e
    403a:	48 01 c5             	add    rbp,rax
    403d:	48 31 ca             	xor    rdx,rcx
    4040:	48 89 f1             	mov    rcx,rsi
    4043:	48 c1 c1 19          	rol    rcx,0x19
    4047:	48 31 ca             	xor    rdx,rcx
    404a:	48 89 f9             	mov    rcx,rdi
    404d:	48 09 f1             	or     rcx,rsi
    4050:	49 21 f1             	and    r9,rsi
    4053:	4c 21 c1             	and    rcx,r8
    4056:	4c 09 c9             	or     rcx,r9
    4059:	4c 8b 8c 24 10 01 00 	mov    r9,QWORD PTR [rsp+0x110]
    4060:	00 
    4061:	48 01 d1             	add    rcx,rdx
    4064:	48 8b 94 24 08 01 00 	mov    rdx,QWORD PTR [rsp+0x108]
    406b:	00 
    406c:	48 03 94 24 50 01 00 	add    rdx,QWORD PTR [rsp+0x150]
    4073:	00 
    4074:	48 01 c1             	add    rcx,rax
    4077:	48 8b 84 24 10 01 00 	mov    rax,QWORD PTR [rsp+0x110]
    407e:	00 
    407f:	49 d1 c9             	ror    r9,1
    4082:	48 c1 c8 08          	ror    rax,0x8
    4086:	4c 31 c8             	xor    rax,r9
    4089:	4c 8b 8c 24 10 01 00 	mov    r9,QWORD PTR [rsp+0x110]
    4090:	00 
    4091:	49 c1 e9 07          	shr    r9,0x7
    4095:	49 31 c1             	xor    r9,rax
    4098:	49 8d 04 11          	lea    rax,[r9+rdx*1]
    409c:	4c 89 da             	mov    rdx,r11
    409f:	4d 89 d9             	mov    r9,r11
    40a2:	48 c1 ca 13          	ror    rdx,0x13
    40a6:	49 c1 c1 03          	rol    r9,0x3
    40aa:	49 31 d1             	xor    r9,rdx
    40ad:	4c 89 da             	mov    rdx,r11
    40b0:	48 c1 ea 06          	shr    rdx,0x6
    40b4:	49 31 d1             	xor    r9,rdx
    40b7:	4c 89 f2             	mov    rdx,r14
    40ba:	49 01 c1             	add    r9,rax
    40bd:	4c 31 e2             	xor    rdx,r12
    40c0:	48 b8 65 9c ac 77 cc 	movabs rax,0x240ca1cc77ac9c65
    40c7:	a1 0c 24 
    40ca:	4c 01 c8             	add    rax,r9
    40cd:	48 21 ea             	and    rdx,rbp
    40d0:	4c 31 f2             	xor    rdx,r14
    40d3:	49 01 c5             	add    r13,rax
    40d6:	48 89 e8             	mov    rax,rbp
    40d9:	49 01 d5             	add    r13,rdx
    40dc:	48 89 ea             	mov    rdx,rbp
    40df:	48 c1 c8 12          	ror    rax,0x12
    40e3:	48 c1 ca 0e          	ror    rdx,0xe
    40e7:	48 31 d0             	xor    rax,rdx
    40ea:	48 89 ea             	mov    rdx,rbp
    40ed:	48 c1 c2 17          	rol    rdx,0x17
    40f1:	48 31 c2             	xor    rdx,rax
    40f4:	48 89 c8             	mov    rax,rcx
    40f7:	4c 01 ea             	add    rdx,r13
    40fa:	49 89 cd             	mov    r13,rcx
    40fd:	48 c1 c8 1c          	ror    rax,0x1c
    4101:	49 01 d0             	add    r8,rdx
    4104:	49 c1 c5 1e          	rol    r13,0x1e
    4108:	49 21 cf             	and    r15,rcx
    410b:	49 31 c5             	xor    r13,rax
    410e:	48 89 c8             	mov    rax,rcx
    4111:	48 c1 c0 19          	rol    rax,0x19
    4115:	49 31 c5             	xor    r13,rax
    4118:	48 89 f0             	mov    rax,rsi
    411b:	48 09 c8             	or     rax,rcx
    411e:	48 21 f8             	and    rax,rdi
    4121:	4c 09 f8             	or     rax,r15
    4124:	4d 89 d7             	mov    r15,r10
    4127:	4c 01 e8             	add    rax,r13
    412a:	4c 8b ac 24 18 01 00 	mov    r13,QWORD PTR [rsp+0x118]
    4131:	00 
    4132:	49 c1 cf 13          	ror    r15,0x13
    4136:	48 01 d0             	add    rax,rdx
    4139:	48 8b 94 24 18 01 00 	mov    rdx,QWORD PTR [rsp+0x118]
    4140:	00 
    4141:	49 c1 cd 08          	ror    r13,0x8
    4145:	48 d1 ca             	ror    rdx,1
    4148:	4c 31 ea             	xor    rdx,r13
    414b:	4c 8b ac 24 18 01 00 	mov    r13,QWORD PTR [rsp+0x118]
    4152:	00 
    4153:	49 c1 ed 07          	shr    r13,0x7
    4157:	49 31 d5             	xor    r13,rdx
    415a:	48 8b 94 24 10 01 00 	mov    rdx,QWORD PTR [rsp+0x110]
    4161:	00 
    4162:	48 03 94 24 58 01 00 	add    rdx,QWORD PTR [rsp+0x158]
    4169:	00 
    416a:	49 01 d5             	add    r13,rdx
    416d:	4c 89 d2             	mov    rdx,r10
    4170:	48 c1 c2 03          	rol    rdx,0x3
    4174:	4c 31 fa             	xor    rdx,r15
    4177:	4d 89 d7             	mov    r15,r10
    417a:	49 c1 ef 06          	shr    r15,0x6
    417e:	4c 31 fa             	xor    rdx,r15
    4181:	4d 8d 7c 15 00       	lea    r15,[r13+rdx*1+0x0]
    4186:	4d 89 e5             	mov    r13,r12
    4189:	48 ba 75 02 2b 59 6f 	movabs rdx,0x2de92c6f592b0275
    4190:	2c e9 2d 
    4193:	49 31 ed             	xor    r13,rbp
    4196:	4c 01 fa             	add    rdx,r15
    4199:	4d 21 c5             	and    r13,r8
    419c:	4c 89 7c 24 40       	mov    QWORD PTR [rsp+0x40],r15
    41a1:	4d 31 e5             	xor    r13,r12
    41a4:	49 01 d6             	add    r14,rdx
    41a7:	4c 89 c2             	mov    rdx,r8
    41aa:	4d 01 ee             	add    r14,r13
    41ad:	4d 89 c5             	mov    r13,r8
    41b0:	48 c1 ca 12          	ror    rdx,0x12
    41b4:	49 c1 cd 0e          	ror    r13,0xe
    41b8:	49 89 cf             	mov    r15,rcx
    41bb:	4c 31 ea             	xor    rdx,r13
    41be:	4d 89 c5             	mov    r13,r8
    41c1:	49 c1 c5 17          	rol    r13,0x17
    41c5:	49 31 d5             	xor    r13,rdx
    41c8:	48 89 c2             	mov    rdx,rax
    41cb:	49 21 c7             	and    r15,rax
    41ce:	4d 01 f5             	add    r13,r14
    41d1:	49 89 c6             	mov    r14,rax
    41d4:	48 c1 ca 1c          	ror    rdx,0x1c
    41d8:	49 c1 c6 1e          	rol    r14,0x1e
    41dc:	4c 01 ef             	add    rdi,r13
    41df:	49 31 d6             	xor    r14,rdx
    41e2:	48 89 c2             	mov    rdx,rax
    41e5:	48 c1 c2 19          	rol    rdx,0x19
    41e9:	49 31 d6             	xor    r14,rdx
    41ec:	48 89 ca             	mov    rdx,rcx
    41ef:	48 09 c2             	or     rdx,rax
    41f2:	48 21 f2             	and    rdx,rsi
    41f5:	4c 09 fa             	or     rdx,r15
    41f8:	4c 01 f2             	add    rdx,r14
    41fb:	4c 8b b4 24 20 01 00 	mov    r14,QWORD PTR [rsp+0x120]
    4202:	00 
    4203:	4c 01 ea             	add    rdx,r13
    4206:	4c 8b ac 24 20 01 00 	mov    r13,QWORD PTR [rsp+0x120]
    420d:	00 
    420e:	49 c1 ce 08          	ror    r14,0x8
    4212:	49 d1 cd             	ror    r13,1
    4215:	4d 31 f5             	xor    r13,r14
    4218:	4c 8b b4 24 20 01 00 	mov    r14,QWORD PTR [rsp+0x120]
    421f:	00 
    4220:	49 c1 ee 07          	shr    r14,0x7
    4224:	4d 31 ee             	xor    r14,r13
    4227:	4c 8b ac 24 18 01 00 	mov    r13,QWORD PTR [rsp+0x118]
    422e:	00 
    422f:	4c 03 ac 24 60 01 00 	add    r13,QWORD PTR [rsp+0x160]
    4236:	00 
    4237:	4d 01 ee             	add    r14,r13
    423a:	4d 89 cd             	mov    r13,r9
    423d:	49 c1 cd 13          	ror    r13,0x13
    4241:	4d 89 ef             	mov    r15,r13
    4244:	4d 89 cd             	mov    r13,r9
    4247:	49 c1 c5 03          	rol    r13,0x3
    424b:	4d 31 fd             	xor    r13,r15
    424e:	4d 89 cf             	mov    r15,r9
    4251:	49 c1 ef 06          	shr    r15,0x6
    4255:	4d 31 fd             	xor    r13,r15
    4258:	49 89 c7             	mov    r15,rax
    425b:	4d 01 ee             	add    r14,r13
    425e:	49 89 ed             	mov    r13,rbp
    4261:	4c 89 74 24 28       	mov    QWORD PTR [rsp+0x28],r14
    4266:	49 be 83 e4 a6 6e aa 	movabs r14,0x4a7484aa6ea6e483
    426d:	84 74 4a 
    4270:	4c 03 74 24 28       	add    r14,QWORD PTR [rsp+0x28]
    4275:	4d 31 c5             	xor    r13,r8
    4278:	49 21 fd             	and    r13,rdi
    427b:	49 31 ed             	xor    r13,rbp
    427e:	4d 01 f4             	add    r12,r14
    4281:	49 89 fe             	mov    r14,rdi
    4284:	49 c1 ce 0e          	ror    r14,0xe
    4288:	4f 8d 6c 25 00       	lea    r13,[r13+r12*1+0x0]
    428d:	49 21 d7             	and    r15,rdx
    4290:	4d 89 f4             	mov    r12,r14
    4293:	49 89 fe             	mov    r14,rdi
    4296:	49 c1 ce 12          	ror    r14,0x12
    429a:	4d 31 e6             	xor    r14,r12
    429d:	49 89 fc             	mov    r12,rdi
    42a0:	49 c1 c4 17          	rol    r12,0x17
    42a4:	4d 31 f4             	xor    r12,r14
    42a7:	49 89 d6             	mov    r14,rdx
    42aa:	4d 01 ec             	add    r12,r13
    42ad:	49 89 d5             	mov    r13,rdx
    42b0:	49 c1 ce 1c          	ror    r14,0x1c
    42b4:	49 c1 c5 1e          	rol    r13,0x1e
    42b8:	4c 01 e6             	add    rsi,r12
    42bb:	4d 31 f5             	xor    r13,r14
    42be:	49 89 d6             	mov    r14,rdx
    42c1:	49 c1 c6 19          	rol    r14,0x19
    42c5:	4d 31 f5             	xor    r13,r14
    42c8:	49 89 c6             	mov    r14,rax
    42cb:	49 09 d6             	or     r14,rdx
    42ce:	49 21 ce             	and    r14,rcx
    42d1:	4d 09 fe             	or     r14,r15
    42d4:	4d 01 ee             	add    r14,r13
    42d7:	4c 8b ac 24 28 01 00 	mov    r13,QWORD PTR [rsp+0x128]
    42de:	00 
    42df:	4d 01 e6             	add    r14,r12
    42e2:	49 d1 cd             	ror    r13,1
    42e5:	4d 89 ec             	mov    r12,r13
    42e8:	4c 8b ac 24 28 01 00 	mov    r13,QWORD PTR [rsp+0x128]
    42ef:	00 
    42f0:	49 c1 cd 08          	ror    r13,0x8
    42f4:	4d 31 ec             	xor    r12,r13
    42f7:	4c 8b ac 24 28 01 00 	mov    r13,QWORD PTR [rsp+0x128]
    42fe:	00 
    42ff:	49 c1 ed 07          	shr    r13,0x7
    4303:	4d 31 e5             	xor    r13,r12
    4306:	4c 8b a4 24 20 01 00 	mov    r12,QWORD PTR [rsp+0x120]
    430d:	00 
    430e:	4c 03 a4 24 68 01 00 	add    r12,QWORD PTR [rsp+0x168]
    4315:	00 
    4316:	4d 01 e5             	add    r13,r12
    4319:	4c 8b 64 24 40       	mov    r12,QWORD PTR [rsp+0x40]
    431e:	4d 89 e7             	mov    r15,r12
    4321:	49 c1 c4 03          	rol    r12,0x3
    4325:	49 c1 cf 13          	ror    r15,0x13
    4329:	4d 31 fc             	xor    r12,r15
    432c:	4c 8b 7c 24 40       	mov    r15,QWORD PTR [rsp+0x40]
    4331:	49 c1 ef 06          	shr    r15,0x6
    4335:	4d 31 fc             	xor    r12,r15
    4338:	4f 8d 7c 25 00       	lea    r15,[r13+r12*1+0x0]
    433d:	4d 89 c5             	mov    r13,r8
    4340:	49 31 fd             	xor    r13,rdi
    4343:	4d 89 ec             	mov    r12,r13
    4346:	4c 89 7c 24 30       	mov    QWORD PTR [rsp+0x30],r15
    434b:	49 bd d4 fb 41 bd dc 	movabs r13,0x5cb0a9dcbd41fbd4
    4352:	a9 b0 5c 
    4355:	49 21 f4             	and    r12,rsi
    4358:	4d 89 e7             	mov    r15,r12
    435b:	4d 31 c7             	xor    r15,r8
    435e:	4c 03 6c 24 30       	add    r13,QWORD PTR [rsp+0x30]
    4363:	4c 01 ed             	add    rbp,r13
    4366:	49 89 f5             	mov    r13,rsi
    4369:	4d 8d 24 2f          	lea    r12,[r15+rbp*1]
    436d:	48 89 f5             	mov    rbp,rsi
    4370:	49 c1 cd 12          	ror    r13,0x12
    4374:	48 c1 cd 0e          	ror    rbp,0xe
    4378:	4d 89 f7             	mov    r15,r14
    437b:	49 31 ed             	xor    r13,rbp
    437e:	48 89 f5             	mov    rbp,rsi
    4381:	49 c1 c7 1e          	rol    r15,0x1e
    4385:	48 c1 c5 17          	rol    rbp,0x17
    4389:	4c 31 ed             	xor    rbp,r13
    438c:	4d 89 f5             	mov    r13,r14
    438f:	4c 01 e5             	add    rbp,r12
    4392:	49 c1 cd 1c          	ror    r13,0x1c
    4396:	4d 89 fc             	mov    r12,r15
    4399:	4d 31 ec             	xor    r12,r13
    439c:	4d 89 f5             	mov    r13,r14
    439f:	49 89 d7             	mov    r15,rdx
    43a2:	49 c1 c5 19          	rol    r13,0x19
    43a6:	4d 21 f7             	and    r15,r14
    43a9:	48 01 e9             	add    rcx,rbp
    43ac:	4d 31 ec             	xor    r12,r13
    43af:	49 89 d5             	mov    r13,rdx
    43b2:	4d 09 f5             	or     r13,r14
    43b5:	49 21 c5             	and    r13,rax
    43b8:	4d 09 fd             	or     r13,r15
    43bb:	4c 8b bc 24 30 01 00 	mov    r15,QWORD PTR [rsp+0x130]
    43c2:	00 
    43c3:	4d 01 e5             	add    r13,r12
    43c6:	49 01 ed             	add    r13,rbp
    43c9:	48 8b ac 24 30 01 00 	mov    rbp,QWORD PTR [rsp+0x130]
    43d0:	00 
    43d1:	49 d1 cf             	ror    r15,1
    43d4:	48 c1 cd 08          	ror    rbp,0x8
    43d8:	4c 31 fd             	xor    rbp,r15
    43db:	4c 8b bc 24 30 01 00 	mov    r15,QWORD PTR [rsp+0x130]
    43e2:	00 
    43e3:	4c 8b 64 24 28       	mov    r12,QWORD PTR [rsp+0x28]
    43e8:	49 c1 ef 07          	shr    r15,0x7
    43ec:	4c 31 fd             	xor    rbp,r15
    43ef:	4d 89 e7             	mov    r15,r12
    43f2:	49 c1 c4 03          	rol    r12,0x3
    43f6:	49 c1 cf 13          	ror    r15,0x13
    43fa:	48 03 ac 24 28 01 00 	add    rbp,QWORD PTR [rsp+0x128]
    4401:	00 
    4402:	4d 31 fc             	xor    r12,r15
    4405:	4c 8b 7c 24 28       	mov    r15,QWORD PTR [rsp+0x28]
    440a:	49 c1 ef 06          	shr    r15,0x6
    440e:	48 01 dd             	add    rbp,rbx
    4411:	4d 31 fc             	xor    r12,r15
    4414:	4c 01 e5             	add    rbp,r12
    4417:	49 bc b5 53 11 83 da 	movabs r12,0x76f988da831153b5
    441e:	88 f9 76 
    4421:	48 89 2c 24          	mov    QWORD PTR [rsp],rbp
    4425:	48 89 fd             	mov    rbp,rdi
    4428:	4c 03 24 24          	add    r12,QWORD PTR [rsp]
    442c:	48 31 f5             	xor    rbp,rsi
    442f:	48 21 cd             	and    rbp,rcx
    4432:	49 89 ef             	mov    r15,rbp
    4435:	49 31 ff             	xor    r15,rdi
    4438:	4d 01 e0             	add    r8,r12
    443b:	4b 8d 2c 07          	lea    rbp,[r15+r8*1]
    443f:	49 89 cf             	mov    r15,rcx
    4442:	49 89 c8             	mov    r8,rcx
    4445:	49 c1 cf 12          	ror    r15,0x12
    4449:	49 c1 c8 0e          	ror    r8,0xe
    444d:	4d 89 fc             	mov    r12,r15
    4450:	4d 89 ef             	mov    r15,r13
    4453:	4d 31 c4             	xor    r12,r8
    4456:	49 89 c8             	mov    r8,rcx
    4459:	49 c1 cf 1c          	ror    r15,0x1c
    445d:	49 c1 c0 17          	rol    r8,0x17
    4461:	4d 31 e0             	xor    r8,r12
    4464:	49 01 e8             	add    r8,rbp
    4467:	4c 89 ed             	mov    rbp,r13
    446a:	48 c1 c5 1e          	rol    rbp,0x1e
    446e:	4c 01 c0             	add    rax,r8
    4471:	4c 31 fd             	xor    rbp,r15
    4474:	4d 89 ef             	mov    r15,r13
    4477:	49 c1 c7 19          	rol    r15,0x19
    447b:	4c 31 fd             	xor    rbp,r15
    447e:	4d 89 f7             	mov    r15,r14
    4481:	4d 09 ef             	or     r15,r13
    4484:	4d 89 fc             	mov    r12,r15
    4487:	4d 89 f7             	mov    r15,r14
    448a:	4d 21 ef             	and    r15,r13
    448d:	49 21 d4             	and    r12,rdx
    4490:	4d 09 fc             	or     r12,r15
    4493:	49 01 ec             	add    r12,rbp
    4496:	4d 01 c4             	add    r12,r8
    4499:	4c 8b 84 24 38 01 00 	mov    r8,QWORD PTR [rsp+0x138]
    44a0:	00 
    44a1:	49 d1 c8             	ror    r8,1
    44a4:	4c 89 c5             	mov    rbp,r8
    44a7:	4c 8b 84 24 38 01 00 	mov    r8,QWORD PTR [rsp+0x138]
    44ae:	00 
    44af:	49 c1 c8 08          	ror    r8,0x8
    44b3:	49 31 e8             	xor    r8,rbp
    44b6:	48 8b ac 24 38 01 00 	mov    rbp,QWORD PTR [rsp+0x138]
    44bd:	00 
    44be:	48 c1 ed 07          	shr    rbp,0x7
    44c2:	49 31 e8             	xor    r8,rbp
    44c5:	48 8b 6c 24 30       	mov    rbp,QWORD PTR [rsp+0x30]
    44ca:	4c 03 84 24 30 01 00 	add    r8,QWORD PTR [rsp+0x130]
    44d1:	00 
    44d2:	49 89 ef             	mov    r15,rbp
    44d5:	4d 01 d8             	add    r8,r11
    44d8:	49 c1 cf 13          	ror    r15,0x13
    44dc:	48 c1 c5 03          	rol    rbp,0x3
    44e0:	4c 31 fd             	xor    rbp,r15
    44e3:	4c 8b 7c 24 30       	mov    r15,QWORD PTR [rsp+0x30]
    44e8:	49 c1 ef 06          	shr    r15,0x6
    44ec:	4c 31 fd             	xor    rbp,r15
    44ef:	4d 89 ef             	mov    r15,r13
    44f2:	49 01 e8             	add    r8,rbp
    44f5:	48 bd ab df 66 ee 52 	movabs rbp,0x983e5152ee66dfab
    44fc:	51 3e 98 
    44ff:	4d 21 e7             	and    r15,r12
    4502:	4c 89 44 24 38       	mov    QWORD PTR [rsp+0x38],r8
    4507:	48 03 6c 24 38       	add    rbp,QWORD PTR [rsp+0x38]
    450c:	49 89 f0             	mov    r8,rsi
    450f:	49 31 c8             	xor    r8,rcx
    4512:	49 21 c0             	and    r8,rax
    4515:	49 31 f0             	xor    r8,rsi
    4518:	48 01 ef             	add    rdi,rbp
    451b:	48 89 c5             	mov    rbp,rax
    451e:	4d 8d 04 38          	lea    r8,[r8+rdi*1]
    4522:	48 89 c7             	mov    rdi,rax
    4525:	48 c1 cd 12          	ror    rbp,0x12
    4529:	48 c1 cf 0e          	ror    rdi,0xe
    452d:	48 31 fd             	xor    rbp,rdi
    4530:	48 89 c7             	mov    rdi,rax
    4533:	48 c1 c7 17          	rol    rdi,0x17
    4537:	48 31 ef             	xor    rdi,rbp
    453a:	4c 89 e5             	mov    rbp,r12
    453d:	4c 01 c7             	add    rdi,r8
    4540:	4d 89 e0             	mov    r8,r12
    4543:	48 c1 cd 1c          	ror    rbp,0x1c
    4547:	49 c1 c0 1e          	rol    r8,0x1e
    454b:	48 01 fa             	add    rdx,rdi
    454e:	49 31 e8             	xor    r8,rbp
    4551:	4c 89 e5             	mov    rbp,r12
    4554:	48 c1 c5 19          	rol    rbp,0x19
    4558:	49 31 e8             	xor    r8,rbp
    455b:	4c 89 ed             	mov    rbp,r13
    455e:	4c 09 e5             	or     rbp,r12
    4561:	4c 21 f5             	and    rbp,r14
    4564:	4c 09 fd             	or     rbp,r15
    4567:	4c 01 c5             	add    rbp,r8
    456a:	48 01 fd             	add    rbp,rdi
    456d:	48 8b bc 24 40 01 00 	mov    rdi,QWORD PTR [rsp+0x140]
    4574:	00 
    4575:	48 d1 cf             	ror    rdi,1
    4578:	49 89 f8             	mov    r8,rdi
    457b:	48 8b bc 24 40 01 00 	mov    rdi,QWORD PTR [rsp+0x140]
    4582:	00 
    4583:	48 c1 cf 08          	ror    rdi,0x8
    4587:	4c 31 c7             	xor    rdi,r8
    458a:	4c 8b 84 24 40 01 00 	mov    r8,QWORD PTR [rsp+0x140]
    4591:	00 
    4592:	49 c1 e8 07          	shr    r8,0x7
    4596:	4c 31 c7             	xor    rdi,r8
    4599:	4c 8b 04 24          	mov    r8,QWORD PTR [rsp]
    459d:	48 03 bc 24 38 01 00 	add    rdi,QWORD PTR [rsp+0x138]
    45a4:	00 
    45a5:	4d 89 c7             	mov    r15,r8
    45a8:	49 c1 c0 03          	rol    r8,0x3
    45ac:	49 c1 cf 13          	ror    r15,0x13
    45b0:	4c 01 d7             	add    rdi,r10
    45b3:	4d 31 f8             	xor    r8,r15
    45b6:	4c 8b 3c 24          	mov    r15,QWORD PTR [rsp]
    45ba:	49 c1 ef 06          	shr    r15,0x6
    45be:	4d 31 f8             	xor    r8,r15
    45c1:	4d 89 e7             	mov    r15,r12
    45c4:	4c 01 c7             	add    rdi,r8
    45c7:	49 b8 10 32 b4 2d 6d 	movabs r8,0xa831c66d2db43210
    45ce:	c6 31 a8 
    45d1:	49 21 ef             	and    r15,rbp
    45d4:	48 89 7c 24 08       	mov    QWORD PTR [rsp+0x8],rdi
    45d9:	4c 03 44 24 08       	add    r8,QWORD PTR [rsp+0x8]
    45de:	48 89 cf             	mov    rdi,rcx
    45e1:	48 31 c7             	xor    rdi,rax
    45e4:	48 21 d7             	and    rdi,rdx
    45e7:	48 31 cf             	xor    rdi,rcx
    45ea:	4c 01 c6             	add    rsi,r8
    45ed:	49 89 d0             	mov    r8,rdx
    45f0:	48 8d 3c 37          	lea    rdi,[rdi+rsi*1]
    45f4:	48 89 d6             	mov    rsi,rdx
    45f7:	49 c1 c8 12          	ror    r8,0x12
    45fb:	48 c1 ce 0e          	ror    rsi,0xe
    45ff:	49 31 f0             	xor    r8,rsi
    4602:	48 89 d6             	mov    rsi,rdx
    4605:	48 c1 c6 17          	rol    rsi,0x17
    4609:	4c 31 c6             	xor    rsi,r8
    460c:	49 89 e8             	mov    r8,rbp
    460f:	48 01 fe             	add    rsi,rdi
    4612:	48 89 ef             	mov    rdi,rbp
    4615:	49 c1 c8 1c          	ror    r8,0x1c
    4619:	48 c1 c7 1e          	rol    rdi,0x1e
    461d:	49 01 f6             	add    r14,rsi
    4620:	4c 31 c7             	xor    rdi,r8
    4623:	49 89 e8             	mov    r8,rbp
    4626:	49 c1 c0 19          	rol    r8,0x19
    462a:	4c 31 c7             	xor    rdi,r8
    462d:	4d 89 e0             	mov    r8,r12
    4630:	49 09 e8             	or     r8,rbp
    4633:	4d 21 e8             	and    r8,r13
    4636:	4d 09 f8             	or     r8,r15
    4639:	49 01 f8             	add    r8,rdi
    463c:	49 01 f0             	add    r8,rsi
    463f:	48 8b b4 24 48 01 00 	mov    rsi,QWORD PTR [rsp+0x148]
    4646:	00 
    4647:	48 d1 ce             	ror    rsi,1
    464a:	48 89 f7             	mov    rdi,rsi
    464d:	48 8b b4 24 48 01 00 	mov    rsi,QWORD PTR [rsp+0x148]
    4654:	00 
    4655:	48 c1 ce 08          	ror    rsi,0x8
    4659:	48 31 fe             	xor    rsi,rdi
    465c:	48 8b bc 24 48 01 00 	mov    rdi,QWORD PTR [rsp+0x148]
    4663:	00 
    4664:	48 c1 ef 07          	shr    rdi,0x7
    4668:	48 31 fe             	xor    rsi,rdi
    466b:	48 8b 7c 24 38       	mov    rdi,QWORD PTR [rsp+0x38]
    4670:	48 03 b4 24 40 01 00 	add    rsi,QWORD PTR [rsp+0x140]
    4677:	00 
    4678:	49 89 ff             	mov    r15,rdi
    467b:	48 c1 c7 03          	rol    rdi,0x3
    467f:	49 c1 cf 13          	ror    r15,0x13
    4683:	4c 01 ce             	add    rsi,r9
    4686:	4c 31 ff             	xor    rdi,r15
    4689:	4c 8b 7c 24 38       	mov    r15,QWORD PTR [rsp+0x38]
    468e:	49 c1 ef 06          	shr    r15,0x6
    4692:	4c 31 ff             	xor    rdi,r15
    4695:	49 89 ef             	mov    r15,rbp
    4698:	48 01 fe             	add    rsi,rdi
    469b:	48 bf 3f 21 fb 98 c8 	movabs rdi,0xb00327c898fb213f
    46a2:	27 03 b0 
    46a5:	48 89 74 24 10       	mov    QWORD PTR [rsp+0x10],rsi
    46aa:	48 03 7c 24 10       	add    rdi,QWORD PTR [rsp+0x10]
    46af:	48 89 c6             	mov    rsi,rax
    46b2:	48 31 d6             	xor    rsi,rdx
    46b5:	4c 21 f6             	and    rsi,r14
    46b8:	48 31 c6             	xor    rsi,rax
    46bb:	48 01 f9             	add    rcx,rdi
    46be:	4c 89 f7             	mov    rdi,r14
    46c1:	48 8d 34 0e          	lea    rsi,[rsi+rcx*1]
    46c5:	4c 89 f1             	mov    rcx,r14
    46c8:	48 c1 cf 12          	ror    rdi,0x12
    46cc:	48 c1 c9 0e          	ror    rcx,0xe
    46d0:	48 31 cf             	xor    rdi,rcx
    46d3:	4c 89 f1             	mov    rcx,r14
    46d6:	48 c1 c1 17          	rol    rcx,0x17
    46da:	48 31 f9             	xor    rcx,rdi
    46dd:	4c 89 c7             	mov    rdi,r8
    46e0:	48 01 f1             	add    rcx,rsi
    46e3:	4c 89 c6             	mov    rsi,r8
    46e6:	48 c1 cf 1c          	ror    rdi,0x1c
    46ea:	48 c1 c6 1e          	rol    rsi,0x1e
    46ee:	49 01 cd             	add    r13,rcx
    46f1:	48 31 fe             	xor    rsi,rdi
    46f4:	4c 89 c7             	mov    rdi,r8
    46f7:	48 c1 c7 19          	rol    rdi,0x19
    46fb:	48 31 fe             	xor    rsi,rdi
    46fe:	48 89 ef             	mov    rdi,rbp
    4701:	4c 09 c7             	or     rdi,r8
    4704:	4c 21 e7             	and    rdi,r12
    4707:	4d 21 c7             	and    r15,r8
    470a:	4c 09 ff             	or     rdi,r15
    470d:	48 01 f7             	add    rdi,rsi
    4710:	48 01 cf             	add    rdi,rcx
    4713:	48 8b 8c 24 50 01 00 	mov    rcx,QWORD PTR [rsp+0x150]
    471a:	00 
    471b:	48 d1 c9             	ror    rcx,1
    471e:	48 89 ce             	mov    rsi,rcx
    4721:	48 8b 8c 24 50 01 00 	mov    rcx,QWORD PTR [rsp+0x150]
    4728:	00 
    4729:	48 c1 c9 08          	ror    rcx,0x8
    472d:	48 31 f1             	xor    rcx,rsi
    4730:	48 8b b4 24 50 01 00 	mov    rsi,QWORD PTR [rsp+0x150]
    4737:	00 
    4738:	48 c1 ee 07          	shr    rsi,0x7
    473c:	48 31 f1             	xor    rcx,rsi
    473f:	48 8b 74 24 08       	mov    rsi,QWORD PTR [rsp+0x8]
    4744:	48 03 8c 24 48 01 00 	add    rcx,QWORD PTR [rsp+0x148]
    474b:	00 
    474c:	48 03 4c 24 40       	add    rcx,QWORD PTR [rsp+0x40]
    4751:	49 89 f7             	mov    r15,rsi
    4754:	48 c1 c6 03          	rol    rsi,0x3
    4758:	49 c1 cf 13          	ror    r15,0x13
    475c:	4c 31 fe             	xor    rsi,r15
    475f:	4c 8b 7c 24 08       	mov    r15,QWORD PTR [rsp+0x8]
    4764:	49 c1 ef 06          	shr    r15,0x6
    4768:	4c 31 fe             	xor    rsi,r15
    476b:	49 bf e4 0e ef be c7 	movabs r15,0xbf597fc7beef0ee4
    4772:	7f 59 bf 
    4775:	48 01 f1             	add    rcx,rsi
    4778:	48 89 ce             	mov    rsi,rcx
    477b:	48 89 d1             	mov    rcx,rdx
    477e:	4c 31 f1             	xor    rcx,r14
    4781:	49 01 f7             	add    r15,rsi
    4784:	48 89 74 24 48       	mov    QWORD PTR [rsp+0x48],rsi
    4789:	4c 21 e9             	and    rcx,r13
    478c:	4c 01 f8             	add    rax,r15
    478f:	49 89 ff             	mov    r15,rdi
    4792:	48 31 d1             	xor    rcx,rdx
    4795:	49 c1 c7 1e          	rol    r15,0x1e
    4799:	48 8d 34 01          	lea    rsi,[rcx+rax*1]
    479d:	4c 89 e8             	mov    rax,r13
    47a0:	48 c1 c8 0e          	ror    rax,0xe
    47a4:	48 89 c1             	mov    rcx,rax
    47a7:	4c 89 e8             	mov    rax,r13
    47aa:	48 c1 c8 12          	ror    rax,0x12
    47ae:	48 31 c8             	xor    rax,rcx
    47b1:	4c 89 e9             	mov    rcx,r13
    47b4:	48 c1 c1 17          	rol    rcx,0x17
    47b8:	48 31 c1             	xor    rcx,rax
    47bb:	48 89 f8             	mov    rax,rdi
    47be:	48 01 f1             	add    rcx,rsi
    47c1:	48 c1 c8 1c          	ror    rax,0x1c
    47c5:	4c 89 fe             	mov    rsi,r15
    47c8:	49 01 cc             	add    r12,rcx
    47cb:	48 31 c6             	xor    rsi,rax
    47ce:	48 89 f8             	mov    rax,rdi
    47d1:	48 c1 c0 19          	rol    rax,0x19
    47d5:	4d 89 c7             	mov    r15,r8
    47d8:	48 31 c6             	xor    rsi,rax
    47db:	4c 89 c0             	mov    rax,r8
    47de:	49 21 ff             	and    r15,rdi
    47e1:	48 09 f8             	or     rax,rdi
    47e4:	48 21 e8             	and    rax,rbp
    47e7:	4c 09 f8             	or     rax,r15
    47ea:	4c 8b bc 24 58 01 00 	mov    r15,QWORD PTR [rsp+0x158]
    47f1:	00 
    47f2:	48 01 f0             	add    rax,rsi
    47f5:	48 01 c8             	add    rax,rcx
    47f8:	48 8b 8c 24 58 01 00 	mov    rcx,QWORD PTR [rsp+0x158]
    47ff:	00 
    4800:	49 c1 ef 07          	shr    r15,0x7
    4804:	48 d1 c9             	ror    rcx,1
    4807:	48 89 ce             	mov    rsi,rcx
    480a:	48 8b 8c 24 58 01 00 	mov    rcx,QWORD PTR [rsp+0x158]
    4811:	00 
    4812:	48 c1 c9 08          	ror    rcx,0x8
    4816:	48 31 f1             	xor    rcx,rsi
    4819:	48 8b 74 24 10       	mov    rsi,QWORD PTR [rsp+0x10]
    481e:	4c 31 f9             	xor    rcx,r15
    4821:	48 03 8c 24 50 01 00 	add    rcx,QWORD PTR [rsp+0x150]
    4828:	00 
    4829:	48 03 4c 24 28       	add    rcx,QWORD PTR [rsp+0x28]
    482e:	49 89 f7             	mov    r15,rsi
    4831:	48 c1 c6 03          	rol    rsi,0x3
    4835:	49 c1 cf 13          	ror    r15,0x13
    4839:	4c 31 fe             	xor    rsi,r15
    483c:	4c 8b 7c 24 10       	mov    r15,QWORD PTR [rsp+0x10]
    4841:	49 c1 ef 06          	shr    r15,0x6
    4845:	4c 31 fe             	xor    rsi,r15
    4848:	49 89 ff             	mov    r15,rdi
    484b:	48 01 f1             	add    rcx,rsi
    484e:	48 be c2 8f a8 3d f3 	movabs rsi,0xc6e00bf33da88fc2
    4855:	0b e0 c6 
    4858:	48 89 4c 24 18       	mov    QWORD PTR [rsp+0x18],rcx
    485d:	48 03 74 24 18       	add    rsi,QWORD PTR [rsp+0x18]
    4862:	4c 89 f1             	mov    rcx,r14
    4865:	4c 31 e9             	xor    rcx,r13
    4868:	4c 21 e1             	and    rcx,r12
    486b:	4c 31 f1             	xor    rcx,r14
    486e:	48 01 f2             	add    rdx,rsi
    4871:	4c 89 e6             	mov    rsi,r12
    4874:	48 8d 0c 11          	lea    rcx,[rcx+rdx*1]
    4878:	4c 89 e2             	mov    rdx,r12
    487b:	48 c1 ce 12          	ror    rsi,0x12
    487f:	48 c1 ca 0e          	ror    rdx,0xe
    4883:	48 31 d6             	xor    rsi,rdx
    4886:	4c 89 e2             	mov    rdx,r12
    4889:	48 c1 c2 17          	rol    rdx,0x17
    488d:	48 31 f2             	xor    rdx,rsi
    4890:	48 01 ca             	add    rdx,rcx
    4893:	48 89 c1             	mov    rcx,rax
    4896:	49 21 c7             	and    r15,rax
    4899:	48 c1 c9 1c          	ror    rcx,0x1c
    489d:	48 01 d5             	add    rbp,rdx
    48a0:	48 89 ce             	mov    rsi,rcx
    48a3:	48 89 c1             	mov    rcx,rax
    48a6:	48 c1 c1 1e          	rol    rcx,0x1e
    48aa:	48 31 f1             	xor    rcx,rsi
    48ad:	48 89 c6             	mov    rsi,rax
    48b0:	48 c1 c6 19          	rol    rsi,0x19
    48b4:	48 31 f1             	xor    rcx,rsi
    48b7:	48 89 fe             	mov    rsi,rdi
    48ba:	48 09 c6             	or     rsi,rax
    48bd:	4c 21 c6             	and    rsi,r8
    48c0:	4c 09 fe             	or     rsi,r15
    48c3:	48 01 ce             	add    rsi,rcx
    48c6:	48 01 d6             	add    rsi,rdx
    48c9:	48 8b 94 24 60 01 00 	mov    rdx,QWORD PTR [rsp+0x160]
    48d0:	00 
    48d1:	48 d1 ca             	ror    rdx,1
    48d4:	48 89 d1             	mov    rcx,rdx
    48d7:	48 8b 94 24 60 01 00 	mov    rdx,QWORD PTR [rsp+0x160]
    48de:	00 
    48df:	48 c1 ca 08          	ror    rdx,0x8
    48e3:	48 31 ca             	xor    rdx,rcx
    48e6:	48 8b 8c 24 60 01 00 	mov    rcx,QWORD PTR [rsp+0x160]
    48ed:	00 
    48ee:	48 c1 e9 07          	shr    rcx,0x7
    48f2:	48 31 ca             	xor    rdx,rcx
    48f5:	48 8b 4c 24 48       	mov    rcx,QWORD PTR [rsp+0x48]
    48fa:	48 03 94 24 58 01 00 	add    rdx,QWORD PTR [rsp+0x158]
    4901:	00 
    4902:	48 03 54 24 30       	add    rdx,QWORD PTR [rsp+0x30]
    4907:	49 89 cf             	mov    r15,rcx
    490a:	48 c1 c1 03          	rol    rcx,0x3
    490e:	49 c1 cf 13          	ror    r15,0x13
    4912:	4c 31 f9             	xor    rcx,r15
    4915:	4c 8b 7c 24 48       	mov    r15,QWORD PTR [rsp+0x48]
    491a:	49 c1 ef 06          	shr    r15,0x6
    491e:	4c 31 f9             	xor    rcx,r15
    4921:	48 01 ca             	add    rdx,rcx
    4924:	48 b9 25 a7 0a 93 47 	movabs rcx,0xd5a79147930aa725
    492b:	91 a7 d5 
    492e:	49 89 d7             	mov    r15,rdx
    4931:	4c 89 ea             	mov    rdx,r13
    4934:	4c 31 e2             	xor    rdx,r12
    4937:	4c 01 f9             	add    rcx,r15
    493a:	4c 89 7c 24 20       	mov    QWORD PTR [rsp+0x20],r15
    493f:	48 21 ea             	and    rdx,rbp
    4942:	49 01 ce             	add    r14,rcx
    4945:	48 89 e9             	mov    rcx,rbp
    4948:	4c 31 ea             	xor    rdx,r13
    494b:	49 89 c7             	mov    r15,rax
    494e:	49 01 d6             	add    r14,rdx
    4951:	48 89 ea             	mov    rdx,rbp
    4954:	48 c1 ca 0e          	ror    rdx,0xe
    4958:	48 c1 c9 12          	ror    rcx,0x12
    495c:	49 21 f7             	and    r15,rsi
    495f:	48 31 d1             	xor    rcx,rdx
    4962:	48 89 ea             	mov    rdx,rbp
    4965:	48 c1 c2 17          	rol    rdx,0x17
    4969:	48 31 ca             	xor    rdx,rcx
    496c:	4c 01 f2             	add    rdx,r14
    496f:	49 89 f6             	mov    r14,rsi
    4972:	49 c1 ce 1c          	ror    r14,0x1c
    4976:	49 01 d0             	add    r8,rdx
    4979:	4c 89 f1             	mov    rcx,r14
    497c:	49 89 f6             	mov    r14,rsi
    497f:	49 c1 c6 1e          	rol    r14,0x1e
    4983:	49 31 ce             	xor    r14,rcx
    4986:	48 89 f1             	mov    rcx,rsi
    4989:	48 c1 c1 19          	rol    rcx,0x19
    498d:	49 31 ce             	xor    r14,rcx
    4990:	48 89 c1             	mov    rcx,rax
    4993:	48 09 f1             	or     rcx,rsi
    4996:	48 21 f9             	and    rcx,rdi
    4999:	4c 09 f9             	or     rcx,r15
    499c:	4c 01 f1             	add    rcx,r14
    499f:	48 01 d1             	add    rcx,rdx
    49a2:	48 8b 94 24 68 01 00 	mov    rdx,QWORD PTR [rsp+0x168]
    49a9:	00 
    49aa:	48 d1 ca             	ror    rdx,1
    49ad:	49 89 d6             	mov    r14,rdx
    49b0:	48 8b 94 24 68 01 00 	mov    rdx,QWORD PTR [rsp+0x168]
    49b7:	00 
    49b8:	48 c1 ca 08          	ror    rdx,0x8
    49bc:	4c 31 f2             	xor    rdx,r14
    49bf:	4c 8b b4 24 68 01 00 	mov    r14,QWORD PTR [rsp+0x168]
    49c6:	00 
    49c7:	49 c1 ee 07          	shr    r14,0x7
    49cb:	4c 31 f2             	xor    rdx,r14
    49ce:	4c 8b 74 24 18       	mov    r14,QWORD PTR [rsp+0x18]
    49d3:	48 03 94 24 60 01 00 	add    rdx,QWORD PTR [rsp+0x160]
    49da:	00 
    49db:	48 03 14 24          	add    rdx,QWORD PTR [rsp]
    49df:	4d 89 f7             	mov    r15,r14
    49e2:	49 c1 c6 03          	rol    r14,0x3
    49e6:	49 c1 cf 13          	ror    r15,0x13
    49ea:	4d 31 fe             	xor    r14,r15
    49ed:	4c 8b 7c 24 18       	mov    r15,QWORD PTR [rsp+0x18]
    49f2:	49 c1 ef 06          	shr    r15,0x6
    49f6:	4d 31 fe             	xor    r14,r15
    49f9:	4c 01 f2             	add    rdx,r14
    49fc:	49 89 d7             	mov    r15,rdx
    49ff:	4c 89 e2             	mov    rdx,r12
    4a02:	48 31 ea             	xor    rdx,rbp
    4a05:	4c 89 7c 24 58       	mov    QWORD PTR [rsp+0x58],r15
    4a0a:	49 89 d6             	mov    r14,rdx
    4a0d:	48 ba 6f 82 03 e0 51 	movabs rdx,0x6ca6351e003826f
    4a14:	63 ca 06 
    4a17:	4d 21 c6             	and    r14,r8
    4a1a:	4c 01 fa             	add    rdx,r15
    4a1d:	49 89 f7             	mov    r15,rsi
    4a20:	49 01 d5             	add    r13,rdx
    4a23:	4c 89 c2             	mov    rdx,r8
    4a26:	4d 31 e6             	xor    r14,r12
    4a29:	48 c1 ca 0e          	ror    rdx,0xe
    4a2d:	4d 01 f5             	add    r13,r14
    4a30:	49 21 cf             	and    r15,rcx
    4a33:	49 89 d6             	mov    r14,rdx
    4a36:	4c 89 c2             	mov    rdx,r8
    4a39:	48 c1 ca 12          	ror    rdx,0x12
    4a3d:	4c 31 f2             	xor    rdx,r14
    4a40:	4d 89 c6             	mov    r14,r8
    4a43:	49 c1 c6 17          	rol    r14,0x17
    4a47:	49 31 d6             	xor    r14,rdx
    4a4a:	48 89 ca             	mov    rdx,rcx
    4a4d:	4d 01 ee             	add    r14,r13
    4a50:	48 c1 ca 1c          	ror    rdx,0x1c
    4a54:	4e 8d 2c 37          	lea    r13,[rdi+r14*1]
    4a58:	48 89 cf             	mov    rdi,rcx
    4a5b:	48 c1 c7 1e          	rol    rdi,0x1e
    4a5f:	48 31 d7             	xor    rdi,rdx
    4a62:	48 89 ca             	mov    rdx,rcx
    4a65:	48 c1 c2 19          	rol    rdx,0x19
    4a69:	48 31 d7             	xor    rdi,rdx
    4a6c:	48 89 f2             	mov    rdx,rsi
    4a6f:	48 09 ca             	or     rdx,rcx
    4a72:	48 21 c2             	and    rdx,rax
    4a75:	4c 09 fa             	or     rdx,r15
    4a78:	48 01 fa             	add    rdx,rdi
    4a7b:	48 89 df             	mov    rdi,rbx
    4a7e:	48 d1 cf             	ror    rdi,1
    4a81:	4c 01 f2             	add    rdx,r14
    4a84:	49 89 fe             	mov    r14,rdi
    4a87:	48 89 df             	mov    rdi,rbx
    4a8a:	48 c1 cf 08          	ror    rdi,0x8
    4a8e:	4c 31 f7             	xor    rdi,r14
    4a91:	49 89 de             	mov    r14,rbx
    4a94:	49 c1 ee 07          	shr    r14,0x7
    4a98:	4c 31 f7             	xor    rdi,r14
    4a9b:	48 03 bc 24 68 01 00 	add    rdi,QWORD PTR [rsp+0x168]
    4aa2:	00 
    4aa3:	48 03 7c 24 38       	add    rdi,QWORD PTR [rsp+0x38]
    4aa8:	4c 8b 74 24 20       	mov    r14,QWORD PTR [rsp+0x20]
    4aad:	4d 89 f7             	mov    r15,r14
    4ab0:	49 c1 c6 03          	rol    r14,0x3
    4ab4:	49 c1 cf 13          	ror    r15,0x13
    4ab8:	4d 31 fe             	xor    r14,r15
    4abb:	4c 8b 7c 24 20       	mov    r15,QWORD PTR [rsp+0x20]
    4ac0:	49 c1 ef 06          	shr    r15,0x6
    4ac4:	4d 31 fe             	xor    r14,r15
    4ac7:	49 89 cf             	mov    r15,rcx
    4aca:	4c 01 f7             	add    rdi,r14
    4acd:	49 be 70 6e 0e 0a 67 	movabs r14,0x142929670a0e6e70
    4ad4:	29 29 14 
    4ad7:	49 21 d7             	and    r15,rdx
    4ada:	48 89 7c 24 50       	mov    QWORD PTR [rsp+0x50],rdi
    4adf:	4c 03 74 24 50       	add    r14,QWORD PTR [rsp+0x50]
    4ae4:	48 89 ef             	mov    rdi,rbp
    4ae7:	4c 31 c7             	xor    rdi,r8
    4aea:	4c 21 ef             	and    rdi,r13
    4aed:	48 31 ef             	xor    rdi,rbp
    4af0:	4d 01 f4             	add    r12,r14
    4af3:	4a 8d 3c 27          	lea    rdi,[rdi+r12*1]
    4af7:	4d 89 ec             	mov    r12,r13
    4afa:	49 c1 cc 0e          	ror    r12,0xe
    4afe:	4d 89 e6             	mov    r14,r12
    4b01:	4d 89 ec             	mov    r12,r13
    4b04:	49 c1 cc 12          	ror    r12,0x12
    4b08:	4d 31 f4             	xor    r12,r14
    4b0b:	4d 89 ee             	mov    r14,r13
    4b0e:	49 c1 c6 17          	rol    r14,0x17
    4b12:	4d 31 f4             	xor    r12,r14
    4b15:	49 01 fc             	add    r12,rdi
    4b18:	4a 8d 3c 20          	lea    rdi,[rax+r12*1]
    4b1c:	48 89 d0             	mov    rax,rdx
    4b1f:	48 c1 c8 1c          	ror    rax,0x1c
    4b23:	49 89 c6             	mov    r14,rax
    4b26:	48 89 d0             	mov    rax,rdx
    4b29:	48 c1 c0 1e          	rol    rax,0x1e
    4b2d:	4c 31 f0             	xor    rax,r14
    4b30:	49 89 d6             	mov    r14,rdx
    4b33:	49 c1 c6 19          	rol    r14,0x19
    4b37:	4c 31 f0             	xor    rax,r14
    4b3a:	49 89 ce             	mov    r14,rcx
    4b3d:	49 09 d6             	or     r14,rdx
    4b40:	49 21 f6             	and    r14,rsi
    4b43:	4d 09 fe             	or     r14,r15
    4b46:	4c 8b 7c 24 58       	mov    r15,QWORD PTR [rsp+0x58]
    4b4b:	49 01 c6             	add    r14,rax
    4b4e:	4c 89 d8             	mov    rax,r11
    4b51:	48 d1 c8             	ror    rax,1
    4b54:	4d 01 f4             	add    r12,r14
    4b57:	49 89 c6             	mov    r14,rax
    4b5a:	4c 89 d8             	mov    rax,r11
    4b5d:	48 c1 c8 08          	ror    rax,0x8
    4b61:	4c 31 f0             	xor    rax,r14
    4b64:	4d 89 de             	mov    r14,r11
    4b67:	49 c1 ee 07          	shr    r14,0x7
    4b6b:	4c 31 f0             	xor    rax,r14
    4b6e:	4d 89 fe             	mov    r14,r15
    4b71:	48 01 c3             	add    rbx,rax
    4b74:	4c 89 f8             	mov    rax,r15
    4b77:	48 03 5c 24 08       	add    rbx,QWORD PTR [rsp+0x8]
    4b7c:	49 c1 ce 13          	ror    r14,0x13
    4b80:	48 c1 c0 03          	rol    rax,0x3
    4b84:	4c 31 f0             	xor    rax,r14
    4b87:	4d 89 fe             	mov    r14,r15
    4b8a:	49 c1 ee 06          	shr    r14,0x6
    4b8e:	4c 31 f0             	xor    rax,r14
    4b91:	49 89 d6             	mov    r14,rdx
    4b94:	4c 8d 3c 03          	lea    r15,[rbx+rax*1]
    4b98:	4c 89 c0             	mov    rax,r8
    4b9b:	48 bb fc 2f d2 46 85 	movabs rbx,0x27b70a8546d22ffc
    4ba2:	0a b7 27 
    4ba5:	4c 31 e8             	xor    rax,r13
    4ba8:	4d 21 e6             	and    r14,r12
    4bab:	4c 01 fb             	add    rbx,r15
    4bae:	48 21 f8             	and    rax,rdi
    4bb1:	4c 31 c0             	xor    rax,r8
    4bb4:	48 01 dd             	add    rbp,rbx
    4bb7:	48 89 fb             	mov    rbx,rdi
    4bba:	48 01 c5             	add    rbp,rax
    4bbd:	48 89 f8             	mov    rax,rdi
    4bc0:	48 c1 cb 0e          	ror    rbx,0xe
    4bc4:	48 c1 c8 12          	ror    rax,0x12
    4bc8:	48 31 d8             	xor    rax,rbx
    4bcb:	48 89 fb             	mov    rbx,rdi
    4bce:	48 c1 c3 17          	rol    rbx,0x17
    4bd2:	48 31 d8             	xor    rax,rbx
    4bd5:	4c 89 e3             	mov    rbx,r12
    4bd8:	48 01 e8             	add    rax,rbp
    4bdb:	4c 89 e5             	mov    rbp,r12
    4bde:	48 c1 c3 1e          	rol    rbx,0x1e
    4be2:	48 c1 cd 1c          	ror    rbp,0x1c
    4be6:	48 01 c6             	add    rsi,rax
    4be9:	48 31 eb             	xor    rbx,rbp
    4bec:	4c 89 e5             	mov    rbp,r12
    4bef:	48 c1 c5 19          	rol    rbp,0x19
    4bf3:	48 31 eb             	xor    rbx,rbp
    4bf6:	48 89 d5             	mov    rbp,rdx
    4bf9:	4c 09 e5             	or     rbp,r12
    4bfc:	48 21 cd             	and    rbp,rcx
    4bff:	4c 09 f5             	or     rbp,r14
    4c02:	4c 8b 74 24 50       	mov    r14,QWORD PTR [rsp+0x50]
    4c07:	48 01 eb             	add    rbx,rbp
    4c0a:	4c 89 d5             	mov    rbp,r10
    4c0d:	48 01 c3             	add    rbx,rax
    4c10:	4c 89 d0             	mov    rax,r10
    4c13:	48 d1 cd             	ror    rbp,1
    4c16:	48 c1 c8 08          	ror    rax,0x8
    4c1a:	48 31 e8             	xor    rax,rbp
    4c1d:	4c 89 d5             	mov    rbp,r10
    4c20:	48 c1 ed 07          	shr    rbp,0x7
    4c24:	48 31 e8             	xor    rax,rbp
    4c27:	4c 89 f5             	mov    rbp,r14
    4c2a:	49 01 c3             	add    r11,rax
    4c2d:	4c 89 f0             	mov    rax,r14
    4c30:	4c 03 5c 24 10       	add    r11,QWORD PTR [rsp+0x10]
    4c35:	48 c1 cd 13          	ror    rbp,0x13
    4c39:	48 c1 c0 03          	rol    rax,0x3
    4c3d:	48 31 e8             	xor    rax,rbp
    4c40:	4c 89 f5             	mov    rbp,r14
    4c43:	48 c1 ed 06          	shr    rbp,0x6
    4c47:	48 31 e8             	xor    rax,rbp
    4c4a:	4c 89 e5             	mov    rbp,r12
    4c4d:	4d 8d 34 03          	lea    r14,[r11+rax*1]
    4c51:	4c 89 e8             	mov    rax,r13
    4c54:	49 bb 26 c9 26 5c 38 	movabs r11,0x2e1b21385c26c926
    4c5b:	21 1b 2e 
    4c5e:	48 31 f8             	xor    rax,rdi
    4c61:	48 21 dd             	and    rbp,rbx
    4c64:	4d 01 f3             	add    r11,r14
    4c67:	48 21 f0             	and    rax,rsi
    4c6a:	4c 31 e8             	xor    rax,r13
    4c6d:	4d 01 d8             	add    r8,r11
    4c70:	49 89 f3             	mov    r11,rsi
    4c73:	49 01 c0             	add    r8,rax
    4c76:	48 89 f0             	mov    rax,rsi
    4c79:	49 c1 cb 0e          	ror    r11,0xe
    4c7d:	48 c1 c8 12          	ror    rax,0x12
    4c81:	4c 31 d8             	xor    rax,r11
    4c84:	49 89 f3             	mov    r11,rsi
    4c87:	49 c1 c3 17          	rol    r11,0x17
    4c8b:	4c 31 d8             	xor    rax,r11
    4c8e:	49 89 db             	mov    r11,rbx
    4c91:	4c 01 c0             	add    rax,r8
    4c94:	49 89 d8             	mov    r8,rbx
    4c97:	49 c1 cb 1c          	ror    r11,0x1c
    4c9b:	49 c1 c0 1e          	rol    r8,0x1e
    4c9f:	48 01 c1             	add    rcx,rax
    4ca2:	4d 31 d8             	xor    r8,r11
    4ca5:	49 89 db             	mov    r11,rbx
    4ca8:	49 c1 c3 19          	rol    r11,0x19
    4cac:	4d 31 d8             	xor    r8,r11
    4caf:	4d 89 e3             	mov    r11,r12
    4cb2:	49 09 db             	or     r11,rbx
    4cb5:	49 21 d3             	and    r11,rdx
    4cb8:	49 09 eb             	or     r11,rbp
    4cbb:	4d 01 d8             	add    r8,r11
    4cbe:	4d 89 cb             	mov    r11,r9
    4cc1:	49 01 c0             	add    r8,rax
    4cc4:	4c 89 c8             	mov    rax,r9
    4cc7:	49 d1 cb             	ror    r11,1
    4cca:	48 c1 c8 08          	ror    rax,0x8
    4cce:	4c 89 c5             	mov    rbp,r8
    4cd1:	4c 31 d8             	xor    rax,r11
    4cd4:	4d 89 cb             	mov    r11,r9
    4cd7:	48 c1 c5 19          	rol    rbp,0x19
    4cdb:	49 c1 eb 07          	shr    r11,0x7
    4cdf:	4c 31 d8             	xor    rax,r11
    4ce2:	4d 89 fb             	mov    r11,r15
    4ce5:	49 01 c2             	add    r10,rax
    4ce8:	4c 89 f8             	mov    rax,r15
    4ceb:	4c 03 54 24 48       	add    r10,QWORD PTR [rsp+0x48]
    4cf0:	49 c1 cb 13          	ror    r11,0x13
    4cf4:	48 c1 c0 03          	rol    rax,0x3
    4cf8:	4c 31 d8             	xor    rax,r11
    4cfb:	4d 89 fb             	mov    r11,r15
    4cfe:	49 c1 eb 06          	shr    r11,0x6
    4d02:	4c 31 d8             	xor    rax,r11
    4d05:	49 01 c2             	add    r10,rax
    4d08:	48 89 f8             	mov    rax,rdi
    4d0b:	4d 89 d3             	mov    r11,r10
    4d0e:	48 31 f0             	xor    rax,rsi
    4d11:	49 ba ed 2a c4 5a fc 	movabs r10,0x4d2c6dfc5ac42aed
    4d18:	6d 2c 4d 
    4d1b:	4d 01 da             	add    r10,r11
    4d1e:	48 21 c8             	and    rax,rcx
    4d21:	4c 89 5c 24 60       	mov    QWORD PTR [rsp+0x60],r11
    4d26:	48 31 f8             	xor    rax,rdi
    4d29:	4d 01 d5             	add    r13,r10
    4d2c:	49 89 ca             	mov    r10,rcx
    4d2f:	49 01 c5             	add    r13,rax
    4d32:	48 89 c8             	mov    rax,rcx
    4d35:	49 c1 ca 0e          	ror    r10,0xe
    4d39:	48 c1 c8 12          	ror    rax,0x12
    4d3d:	4c 31 d0             	xor    rax,r10
    4d40:	49 89 ca             	mov    r10,rcx
    4d43:	49 c1 c2 17          	rol    r10,0x17
    4d47:	4c 31 d0             	xor    rax,r10
    4d4a:	4d 89 c2             	mov    r10,r8
    4d4d:	49 c1 ca 1c          	ror    r10,0x1c
    4d51:	4c 01 e8             	add    rax,r13
    4d54:	4c 8b 6c 24 40       	mov    r13,QWORD PTR [rsp+0x40]
    4d59:	4d 89 d3             	mov    r11,r10
    4d5c:	4d 89 c2             	mov    r10,r8
    4d5f:	48 01 c2             	add    rdx,rax
    4d62:	49 c1 c2 1e          	rol    r10,0x1e
    4d66:	4d 31 da             	xor    r10,r11
    4d69:	49 31 ea             	xor    r10,rbp
    4d6c:	48 89 dd             	mov    rbp,rbx
    4d6f:	4c 09 c5             	or     rbp,r8
    4d72:	49 89 eb             	mov    r11,rbp
    4d75:	48 89 dd             	mov    rbp,rbx
    4d78:	4c 21 c5             	and    rbp,r8
    4d7b:	4d 21 e3             	and    r11,r12
    4d7e:	49 09 eb             	or     r11,rbp
    4d81:	4c 89 f5             	mov    rbp,r14
    4d84:	4d 01 da             	add    r10,r11
    4d87:	4d 89 eb             	mov    r11,r13
    4d8a:	48 c1 ed 06          	shr    rbp,0x6
    4d8e:	49 01 c2             	add    r10,rax
    4d91:	4c 89 e8             	mov    rax,r13
    4d94:	49 d1 cb             	ror    r11,1
    4d97:	48 c1 c8 08          	ror    rax,0x8
    4d9b:	4c 31 d8             	xor    rax,r11
    4d9e:	4d 89 eb             	mov    r11,r13
    4da1:	49 c1 eb 07          	shr    r11,0x7
    4da5:	4c 31 d8             	xor    rax,r11
    4da8:	49 01 c1             	add    r9,rax
    4dab:	4c 89 f0             	mov    rax,r14
    4dae:	4c 03 4c 24 18       	add    r9,QWORD PTR [rsp+0x18]
    4db3:	48 c1 c8 13          	ror    rax,0x13
    4db7:	49 89 c3             	mov    r11,rax
    4dba:	4c 89 f0             	mov    rax,r14
    4dbd:	48 c1 c0 03          	rol    rax,0x3
    4dc1:	4c 31 d8             	xor    rax,r11
    4dc4:	48 31 e8             	xor    rax,rbp
    4dc7:	49 01 c1             	add    r9,rax
    4dca:	4c 89 cd             	mov    rbp,r9
    4dcd:	49 89 f1             	mov    r9,rsi
    4dd0:	49 31 c9             	xor    r9,rcx
    4dd3:	48 89 6c 24 40       	mov    QWORD PTR [rsp+0x40],rbp
    4dd8:	4c 89 c8             	mov    rax,r9
    4ddb:	49 b9 df b3 95 9d 13 	movabs r9,0x53380d139d95b3df
    4de2:	0d 38 53 
    4de5:	49 01 e9             	add    r9,rbp
    4de8:	48 21 d0             	and    rax,rdx
    4deb:	4c 89 c5             	mov    rbp,r8
    4dee:	48 31 f0             	xor    rax,rsi
    4df1:	4c 01 cf             	add    rdi,r9
    4df4:	49 89 d1             	mov    r9,rdx
    4df7:	48 01 c7             	add    rdi,rax
    4dfa:	48 89 d0             	mov    rax,rdx
    4dfd:	49 c1 c9 0e          	ror    r9,0xe
    4e01:	48 c1 c8 12          	ror    rax,0x12
    4e05:	4c 31 c8             	xor    rax,r9
    4e08:	49 89 d1             	mov    r9,rdx
    4e0b:	49 c1 c1 17          	rol    r9,0x17
    4e0f:	4c 31 c8             	xor    rax,r9
    4e12:	48 01 f8             	add    rax,rdi
    4e15:	4c 89 d7             	mov    rdi,r10
    4e18:	48 c1 cf 1c          	ror    rdi,0x1c
    4e1c:	4d 8d 0c 04          	lea    r9,[r12+rax*1]
    4e20:	4c 8b 64 24 28       	mov    r12,QWORD PTR [rsp+0x28]
    4e25:	49 89 fb             	mov    r11,rdi
    4e28:	4c 89 d7             	mov    rdi,r10
    4e2b:	48 c1 c7 1e          	rol    rdi,0x1e
    4e2f:	4c 21 d5             	and    rbp,r10
    4e32:	4c 31 df             	xor    rdi,r11
    4e35:	4d 89 d3             	mov    r11,r10
    4e38:	49 c1 c3 19          	rol    r11,0x19
    4e3c:	4c 31 df             	xor    rdi,r11
    4e3f:	4d 89 c3             	mov    r11,r8
    4e42:	4d 09 d3             	or     r11,r10
    4e45:	49 21 db             	and    r11,rbx
    4e48:	49 09 eb             	or     r11,rbp
    4e4b:	4c 01 df             	add    rdi,r11
    4e4e:	4d 89 e3             	mov    r11,r12
    4e51:	48 01 c7             	add    rdi,rax
    4e54:	4c 89 e0             	mov    rax,r12
    4e57:	49 d1 cb             	ror    r11,1
    4e5a:	48 c1 c8 08          	ror    rax,0x8
    4e5e:	4c 31 d8             	xor    rax,r11
    4e61:	4d 89 e3             	mov    r11,r12
    4e64:	49 c1 eb 07          	shr    r11,0x7
    4e68:	4c 31 d8             	xor    rax,r11
    4e6b:	4c 01 e8             	add    rax,r13
    4e6e:	4c 8b 6c 24 60       	mov    r13,QWORD PTR [rsp+0x60]
    4e73:	48 03 44 24 20       	add    rax,QWORD PTR [rsp+0x20]
    4e78:	4c 89 ed             	mov    rbp,r13
    4e7b:	4d 89 eb             	mov    r11,r13
    4e7e:	48 c1 cd 13          	ror    rbp,0x13
    4e82:	49 c1 c3 03          	rol    r11,0x3
    4e86:	49 31 eb             	xor    r11,rbp
    4e89:	4c 89 ed             	mov    rbp,r13
    4e8c:	48 c1 ed 06          	shr    rbp,0x6
    4e90:	49 31 eb             	xor    r11,rbp
    4e93:	4c 89 d5             	mov    rbp,r10
    4e96:	4c 01 d8             	add    rax,r11
    4e99:	49 bb de 63 af 8b 54 	movabs r11,0x650a73548baf63de
    4ea0:	73 0a 65 
    4ea3:	49 89 c5             	mov    r13,rax
    4ea6:	48 89 c8             	mov    rax,rcx
    4ea9:	48 31 d0             	xor    rax,rdx
    4eac:	4d 01 eb             	add    r11,r13
    4eaf:	4c 89 6c 24 28       	mov    QWORD PTR [rsp+0x28],r13
    4eb4:	4c 21 c8             	and    rax,r9
    4eb7:	4c 01 de             	add    rsi,r11
    4eba:	4d 89 cb             	mov    r11,r9
    4ebd:	48 31 c8             	xor    rax,rcx
    4ec0:	49 c1 cb 0e          	ror    r11,0xe
    4ec4:	4c 8b 6c 24 30       	mov    r13,QWORD PTR [rsp+0x30]
    4ec9:	48 01 c6             	add    rsi,rax
    4ecc:	4c 89 c8             	mov    rax,r9
    4ecf:	48 c1 c8 12          	ror    rax,0x12
    4ed3:	4c 31 d8             	xor    rax,r11
    4ed6:	4d 89 cb             	mov    r11,r9
    4ed9:	49 c1 c3 17          	rol    r11,0x17
    4edd:	48 21 fd             	and    rbp,rdi
    4ee0:	4c 31 d8             	xor    rax,r11
    4ee3:	49 89 fb             	mov    r11,rdi
    4ee6:	48 01 f0             	add    rax,rsi
    4ee9:	48 89 fe             	mov    rsi,rdi
    4eec:	49 c1 cb 1c          	ror    r11,0x1c
    4ef0:	48 c1 c6 1e          	rol    rsi,0x1e
    4ef4:	48 01 c3             	add    rbx,rax
    4ef7:	4c 31 de             	xor    rsi,r11
    4efa:	49 89 fb             	mov    r11,rdi
    4efd:	49 c1 c3 19          	rol    r11,0x19
    4f01:	4c 31 de             	xor    rsi,r11
    4f04:	4d 89 d3             	mov    r11,r10
    4f07:	49 09 fb             	or     r11,rdi
    4f0a:	4d 21 c3             	and    r11,r8
    4f0d:	49 09 eb             	or     r11,rbp
    4f10:	4c 01 de             	add    rsi,r11
    4f13:	4d 89 eb             	mov    r11,r13
    4f16:	48 01 c6             	add    rsi,rax
    4f19:	4c 89 e8             	mov    rax,r13
    4f1c:	49 d1 cb             	ror    r11,1
    4f1f:	48 c1 c8 08          	ror    rax,0x8
    4f23:	4c 31 d8             	xor    rax,r11
    4f26:	4d 89 eb             	mov    r11,r13
    4f29:	49 c1 eb 07          	shr    r11,0x7
    4f2d:	4c 31 d8             	xor    rax,r11
    4f30:	4c 01 e0             	add    rax,r12
    4f33:	4c 8b 64 24 40       	mov    r12,QWORD PTR [rsp+0x40]
    4f38:	48 03 44 24 58       	add    rax,QWORD PTR [rsp+0x58]
    4f3d:	4d 89 e3             	mov    r11,r12
    4f40:	49 c1 cb 13          	ror    r11,0x13
    4f44:	4c 89 dd             	mov    rbp,r11
    4f47:	4d 89 e3             	mov    r11,r12
    4f4a:	49 c1 ec 06          	shr    r12,0x6
    4f4e:	49 c1 c3 03          	rol    r11,0x3
    4f52:	49 31 eb             	xor    r11,rbp
    4f55:	48 89 fd             	mov    rbp,rdi
    4f58:	4d 31 e3             	xor    r11,r12
    4f5b:	4c 01 d8             	add    rax,r11
    4f5e:	49 bb a8 b2 77 3c bb 	movabs r11,0x766a0abb3c77b2a8
    4f65:	0a 6a 76 
    4f68:	49 89 c4             	mov    r12,rax
    4f6b:	48 89 d0             	mov    rax,rdx
    4f6e:	4c 31 c8             	xor    rax,r9
    4f71:	4d 01 e3             	add    r11,r12
    4f74:	4c 89 64 24 30       	mov    QWORD PTR [rsp+0x30],r12
    4f79:	48 21 d8             	and    rax,rbx
    4f7c:	48 31 d0             	xor    rax,rdx
    4f7f:	4c 01 d9             	add    rcx,r11
    4f82:	49 89 db             	mov    r11,rbx
    4f85:	48 01 c1             	add    rcx,rax
    4f88:	48 89 d8             	mov    rax,rbx
    4f8b:	49 c1 cb 0e          	ror    r11,0xe
    4f8f:	48 c1 c8 12          	ror    rax,0x12
    4f93:	48 21 f5             	and    rbp,rsi
    4f96:	4c 31 d8             	xor    rax,r11
    4f99:	49 89 db             	mov    r11,rbx
    4f9c:	49 c1 c3 17          	rol    r11,0x17
    4fa0:	4c 31 d8             	xor    rax,r11
    4fa3:	48 01 c8             	add    rax,rcx
    4fa6:	48 89 f1             	mov    rcx,rsi
    4fa9:	48 c1 c9 1c          	ror    rcx,0x1c
    4fad:	4d 8d 1c 00          	lea    r11,[r8+rax*1]
    4fb1:	49 89 c8             	mov    r8,rcx
    4fb4:	48 89 f1             	mov    rcx,rsi
    4fb7:	48 c1 c1 1e          	rol    rcx,0x1e
    4fbb:	4c 31 c1             	xor    rcx,r8
    4fbe:	49 89 f0             	mov    r8,rsi
    4fc1:	49 c1 c0 19          	rol    r8,0x19
    4fc5:	4c 31 c1             	xor    rcx,r8
    4fc8:	49 89 f8             	mov    r8,rdi
    4fcb:	49 09 f0             	or     r8,rsi
    4fce:	4d 21 d0             	and    r8,r10
    4fd1:	49 09 e8             	or     r8,rbp
    4fd4:	48 8b 6c 24 28       	mov    rbp,QWORD PTR [rsp+0x28]
    4fd9:	4c 01 c1             	add    rcx,r8
    4fdc:	4c 8b 04 24          	mov    r8,QWORD PTR [rsp]
    4fe0:	48 01 c1             	add    rcx,rax
    4fe3:	4d 89 c4             	mov    r12,r8
    4fe6:	4c 89 c0             	mov    rax,r8
    4fe9:	48 d1 c8             	ror    rax,1
    4fec:	49 c1 cc 08          	ror    r12,0x8
    4ff0:	49 31 c4             	xor    r12,rax
    4ff3:	4c 89 c0             	mov    rax,r8
    4ff6:	49 89 e8             	mov    r8,rbp
    4ff9:	48 c1 e8 07          	shr    rax,0x7
    4ffd:	49 c1 c8 13          	ror    r8,0x13
    5001:	49 31 c4             	xor    r12,rax
    5004:	48 89 e8             	mov    rax,rbp
    5007:	4d 01 ec             	add    r12,r13
    500a:	48 c1 c0 03          	rol    rax,0x3
    500e:	4c 03 64 24 50       	add    r12,QWORD PTR [rsp+0x50]
    5013:	4c 31 c0             	xor    rax,r8
    5016:	49 89 e8             	mov    r8,rbp
    5019:	48 89 f5             	mov    rbp,rsi
    501c:	49 c1 e8 06          	shr    r8,0x6
    5020:	4c 31 c0             	xor    rax,r8
    5023:	49 b8 e6 ae ed 47 2e 	movabs r8,0x81c2c92e47edaee6
    502a:	c9 c2 81 
    502d:	4d 8d 2c 04          	lea    r13,[r12+rax*1]
    5031:	4c 89 c8             	mov    rax,r9
    5034:	48 31 d8             	xor    rax,rbx
    5037:	4c 21 d8             	and    rax,r11
    503a:	4d 01 e8             	add    r8,r13
    503d:	4c 89 6c 24 68       	mov    QWORD PTR [rsp+0x68],r13
    5042:	4c 31 c8             	xor    rax,r9
    5045:	4c 01 c2             	add    rdx,r8
    5048:	4d 89 d8             	mov    r8,r11
    504b:	48 01 c2             	add    rdx,rax
    504e:	4c 89 d8             	mov    rax,r11
    5051:	49 c1 c8 0e          	ror    r8,0xe
    5055:	48 c1 c8 12          	ror    rax,0x12
    5059:	4c 8b 6c 24 38       	mov    r13,QWORD PTR [rsp+0x38]
    505e:	48 21 cd             	and    rbp,rcx
    5061:	4c 31 c0             	xor    rax,r8
    5064:	4d 89 d8             	mov    r8,r11
    5067:	49 c1 c0 17          	rol    r8,0x17
    506b:	4c 31 c0             	xor    rax,r8
    506e:	4d 89 ec             	mov    r12,r13
    5071:	48 01 d0             	add    rax,rdx
    5074:	48 89 ca             	mov    rdx,rcx
    5077:	49 c1 cc 08          	ror    r12,0x8
    507b:	48 c1 ca 1c          	ror    rdx,0x1c
    507f:	49 01 c2             	add    r10,rax
    5082:	49 89 d0             	mov    r8,rdx
    5085:	48 89 ca             	mov    rdx,rcx
    5088:	48 c1 c2 1e          	rol    rdx,0x1e
    508c:	4c 31 c2             	xor    rdx,r8
    508f:	49 89 c8             	mov    r8,rcx
    5092:	49 c1 c0 19          	rol    r8,0x19
    5096:	4c 31 c2             	xor    rdx,r8
    5099:	49 89 f0             	mov    r8,rsi
    509c:	49 09 c8             	or     r8,rcx
    509f:	49 21 f8             	and    r8,rdi
    50a2:	49 09 e8             	or     r8,rbp
    50a5:	4c 89 ed             	mov    rbp,r13
    50a8:	48 d1 cd             	ror    rbp,1
    50ab:	4c 01 c2             	add    rdx,r8
    50ae:	49 31 ec             	xor    r12,rbp
    50b1:	4c 89 ed             	mov    rbp,r13
    50b4:	48 01 c2             	add    rdx,rax
    50b7:	48 c1 ed 07          	shr    rbp,0x7
    50bb:	49 31 ec             	xor    r12,rbp
    50be:	48 8b 6c 24 30       	mov    rbp,QWORD PTR [rsp+0x30]
    50c3:	4c 03 24 24          	add    r12,QWORD PTR [rsp]
    50c7:	49 89 e8             	mov    r8,rbp
    50ca:	48 89 e8             	mov    rax,rbp
    50cd:	49 c1 c8 13          	ror    r8,0x13
    50d1:	48 c1 c0 03          	rol    rax,0x3
    50d5:	4d 01 fc             	add    r12,r15
    50d8:	4c 31 c0             	xor    rax,r8
    50db:	49 89 e8             	mov    r8,rbp
    50de:	49 c1 e8 06          	shr    r8,0x6
    50e2:	4c 31 c0             	xor    rax,r8
    50e5:	4c 01 e0             	add    rax,r12
    50e8:	49 bc 3b 35 82 14 85 	movabs r12,0x92722c851482353b
    50ef:	2c 72 92 
    50f2:	49 89 c0             	mov    r8,rax
    50f5:	48 89 d8             	mov    rax,rbx
    50f8:	4c 31 d8             	xor    rax,r11
    50fb:	4d 01 c4             	add    r12,r8
    50fe:	4c 89 44 24 38       	mov    QWORD PTR [rsp+0x38],r8
    5103:	4c 21 d0             	and    rax,r10
    5106:	4d 01 e1             	add    r9,r12
    5109:	4d 89 d4             	mov    r12,r10
    510c:	48 31 d8             	xor    rax,rbx
    510f:	49 c1 c4 17          	rol    r12,0x17
    5113:	49 01 c1             	add    r9,rax
    5116:	4c 89 d0             	mov    rax,r10
    5119:	48 c1 c8 0e          	ror    rax,0xe
    511d:	49 89 c0             	mov    r8,rax
    5120:	4c 89 d0             	mov    rax,r10
    5123:	48 c1 c8 12          	ror    rax,0x12
    5127:	4c 31 c0             	xor    rax,r8
    512a:	4c 31 e0             	xor    rax,r12
    512d:	49 89 d4             	mov    r12,rdx
    5130:	4c 01 c8             	add    rax,r9
    5133:	49 c1 c4 1e          	rol    r12,0x1e
    5137:	4c 8d 0c 07          	lea    r9,[rdi+rax*1]
    513b:	48 89 d7             	mov    rdi,rdx
    513e:	4d 89 e0             	mov    r8,r12
    5141:	48 c1 cf 1c          	ror    rdi,0x1c
    5145:	49 89 cc             	mov    r12,rcx
    5148:	49 31 f8             	xor    r8,rdi
    514b:	48 89 d7             	mov    rdi,rdx
    514e:	49 21 d4             	and    r12,rdx
    5151:	48 c1 c7 19          	rol    rdi,0x19
    5155:	49 31 f8             	xor    r8,rdi
    5158:	48 89 cf             	mov    rdi,rcx
    515b:	48 09 d7             	or     rdi,rdx
    515e:	48 21 f7             	and    rdi,rsi
    5161:	4c 09 e7             	or     rdi,r12
    5164:	4c 01 c7             	add    rdi,r8
    5167:	4c 8d 24 07          	lea    r12,[rdi+rax*1]
    516b:	48 8b 7c 24 08       	mov    rdi,QWORD PTR [rsp+0x8]
    5170:	48 89 f8             	mov    rax,rdi
    5173:	48 89 fd             	mov    rbp,rdi
    5176:	48 d1 c8             	ror    rax,1
    5179:	48 c1 cd 08          	ror    rbp,0x8
    517d:	48 31 c5             	xor    rbp,rax
    5180:	48 89 f8             	mov    rax,rdi
    5183:	48 c1 e8 07          	shr    rax,0x7
    5187:	48 31 c5             	xor    rbp,rax
    518a:	4c 01 ed             	add    rbp,r13
    518d:	4c 8b 6c 24 68       	mov    r13,QWORD PTR [rsp+0x68]
    5192:	4c 01 f5             	add    rbp,r14
    5195:	4c 89 ef             	mov    rdi,r13
    5198:	4c 89 e8             	mov    rax,r13
    519b:	48 c1 cf 13          	ror    rdi,0x13
    519f:	48 c1 c0 03          	rol    rax,0x3
    51a3:	48 31 f8             	xor    rax,rdi
    51a6:	4c 89 ef             	mov    rdi,r13
    51a9:	48 c1 ef 06          	shr    rdi,0x6
    51ad:	48 31 f8             	xor    rax,rdi
    51b0:	48 bf 64 03 f1 4c a1 	movabs rdi,0xa2bfe8a14cf10364
    51b7:	e8 bf a2 
    51ba:	4c 8d 6c 05 00       	lea    r13,[rbp+rax*1+0x0]
    51bf:	4c 89 d8             	mov    rax,r11
    51c2:	4c 31 d0             	xor    rax,r10
    51c5:	4c 01 ef             	add    rdi,r13
    51c8:	4c 21 c8             	and    rax,r9
    51cb:	4c 89 2c 24          	mov    QWORD PTR [rsp],r13
    51cf:	4c 31 d8             	xor    rax,r11
    51d2:	48 01 fb             	add    rbx,rdi
    51d5:	4c 89 cf             	mov    rdi,r9
    51d8:	48 01 c3             	add    rbx,rax
    51db:	4c 89 c8             	mov    rax,r9
    51de:	48 c1 cf 0e          	ror    rdi,0xe
    51e2:	48 c1 c8 12          	ror    rax,0x12
    51e6:	49 89 d5             	mov    r13,rdx
    51e9:	48 31 f8             	xor    rax,rdi
    51ec:	4c 89 cf             	mov    rdi,r9
    51ef:	4d 21 e5             	and    r13,r12
    51f2:	48 c1 c7 17          	rol    rdi,0x17
    51f6:	48 31 f8             	xor    rax,rdi
    51f9:	4c 89 e7             	mov    rdi,r12
    51fc:	48 01 d8             	add    rax,rbx
    51ff:	48 c1 c7 1e          	rol    rdi,0x1e
    5203:	48 8d 1c 06          	lea    rbx,[rsi+rax*1]
    5207:	4c 89 e6             	mov    rsi,r12
    520a:	48 c1 ce 1c          	ror    rsi,0x1c
    520e:	48 31 f7             	xor    rdi,rsi
    5211:	4c 89 e6             	mov    rsi,r12
    5214:	48 c1 c6 19          	rol    rsi,0x19
    5218:	48 31 f7             	xor    rdi,rsi
    521b:	48 89 d6             	mov    rsi,rdx
    521e:	4c 09 e6             	or     rsi,r12
    5221:	48 21 ce             	and    rsi,rcx
    5224:	4c 09 ee             	or     rsi,r13
    5227:	48 01 fe             	add    rsi,rdi
    522a:	48 8b 7c 24 38       	mov    rdi,QWORD PTR [rsp+0x38]
    522f:	48 8d 2c 06          	lea    rbp,[rsi+rax*1]
    5233:	48 8b 74 24 10       	mov    rsi,QWORD PTR [rsp+0x10]
    5238:	49 89 f0             	mov    r8,rsi
    523b:	49 89 f5             	mov    r13,rsi
    523e:	49 d1 c8             	ror    r8,1
    5241:	49 c1 ed 07          	shr    r13,0x7
    5245:	4c 89 c0             	mov    rax,r8
    5248:	49 89 f0             	mov    r8,rsi
    524b:	48 89 fe             	mov    rsi,rdi
    524e:	49 c1 c8 08          	ror    r8,0x8
    5252:	49 31 c0             	xor    r8,rax
    5255:	48 89 f8             	mov    rax,rdi
    5258:	4d 31 e8             	xor    r8,r13
    525b:	4c 03 44 24 08       	add    r8,QWORD PTR [rsp+0x8]
    5260:	48 c1 ce 13          	ror    rsi,0x13
    5264:	4c 03 44 24 60       	add    r8,QWORD PTR [rsp+0x60]
    5269:	48 c1 c0 03          	rol    rax,0x3
    526d:	48 31 f0             	xor    rax,rsi
    5270:	48 89 fe             	mov    rsi,rdi
    5273:	48 c1 ee 06          	shr    rsi,0x6
    5277:	48 31 f0             	xor    rax,rsi
    527a:	48 be 01 30 42 bc 4b 	movabs rsi,0xa81a664bbc423001
    5281:	66 1a a8 
    5284:	4c 01 c0             	add    rax,r8
    5287:	48 89 c7             	mov    rdi,rax
    528a:	4c 89 d0             	mov    rax,r10
    528d:	48 01 fe             	add    rsi,rdi
    5290:	4c 31 c8             	xor    rax,r9
    5293:	48 89 7c 24 70       	mov    QWORD PTR [rsp+0x70],rdi
    5298:	48 21 d8             	and    rax,rbx
    529b:	4e 8d 04 1e          	lea    r8,[rsi+r11*1]
    529f:	4c 89 e7             	mov    rdi,r12
    52a2:	4c 31 d0             	xor    rax,r10
    52a5:	48 21 ef             	and    rdi,rbp
    52a8:	49 01 c0             	add    r8,rax
    52ab:	48 89 d8             	mov    rax,rbx
    52ae:	48 c1 c8 0e          	ror    rax,0xe
    52b2:	48 89 c6             	mov    rsi,rax
    52b5:	48 89 d8             	mov    rax,rbx
    52b8:	48 c1 c8 12          	ror    rax,0x12
    52bc:	48 31 f0             	xor    rax,rsi
    52bf:	48 89 de             	mov    rsi,rbx
    52c2:	48 c1 c6 17          	rol    rsi,0x17
    52c6:	48 31 f0             	xor    rax,rsi
    52c9:	48 89 ee             	mov    rsi,rbp
    52cc:	4c 01 c0             	add    rax,r8
    52cf:	48 c1 c6 1e          	rol    rsi,0x1e
    52d3:	4c 8b 44 24 48       	mov    r8,QWORD PTR [rsp+0x48]
    52d8:	4c 8d 1c 01          	lea    r11,[rcx+rax*1]
    52dc:	48 89 e9             	mov    rcx,rbp
    52df:	48 c1 c9 1c          	ror    rcx,0x1c
    52e3:	48 31 ce             	xor    rsi,rcx
    52e6:	48 89 e9             	mov    rcx,rbp
    52e9:	48 c1 c1 19          	rol    rcx,0x19
    52ed:	48 31 ce             	xor    rsi,rcx
    52f0:	4c 89 e1             	mov    rcx,r12
    52f3:	48 09 e9             	or     rcx,rbp
    52f6:	48 21 d1             	and    rcx,rdx
    52f9:	48 09 f9             	or     rcx,rdi
    52fc:	4c 89 c7             	mov    rdi,r8
    52ff:	48 01 f1             	add    rcx,rsi
    5302:	48 c1 cf 08          	ror    rdi,0x8
    5306:	48 8b 34 24          	mov    rsi,QWORD PTR [rsp]
    530a:	4c 8d 2c 01          	lea    r13,[rcx+rax*1]
    530e:	4c 89 c0             	mov    rax,r8
    5311:	48 d1 c8             	ror    rax,1
    5314:	48 31 c7             	xor    rdi,rax
    5317:	4c 89 c0             	mov    rax,r8
    531a:	48 89 f1             	mov    rcx,rsi
    531d:	48 c1 e8 07          	shr    rax,0x7
    5321:	48 c1 c9 13          	ror    rcx,0x13
    5325:	48 31 c7             	xor    rdi,rax
    5328:	48 89 f0             	mov    rax,rsi
    532b:	48 03 7c 24 10       	add    rdi,QWORD PTR [rsp+0x10]
    5330:	48 03 7c 24 40       	add    rdi,QWORD PTR [rsp+0x40]
    5335:	48 c1 c0 03          	rol    rax,0x3
    5339:	48 31 c8             	xor    rax,rcx
    533c:	48 89 f1             	mov    rcx,rsi
    533f:	48 c1 e9 06          	shr    rcx,0x6
    5343:	48 31 c8             	xor    rax,rcx
    5346:	48 b9 91 97 f8 d0 70 	movabs rcx,0xc24b8b70d0f89791
    534d:	8b 4b c2 
    5350:	48 01 f8             	add    rax,rdi
    5353:	48 8b 7c 24 18       	mov    rdi,QWORD PTR [rsp+0x18]
    5358:	48 89 c6             	mov    rsi,rax
    535b:	4c 89 c8             	mov    rax,r9
    535e:	48 31 d8             	xor    rax,rbx
    5361:	48 01 f1             	add    rcx,rsi
    5364:	48 89 74 24 10       	mov    QWORD PTR [rsp+0x10],rsi
    5369:	4c 21 d8             	and    rax,r11
    536c:	49 01 ca             	add    r10,rcx
    536f:	4c 31 c8             	xor    rax,r9
    5372:	49 01 c2             	add    r10,rax
    5375:	4c 89 d8             	mov    rax,r11
    5378:	48 c1 c8 0e          	ror    rax,0xe
    537c:	48 89 c1             	mov    rcx,rax
    537f:	4c 89 d8             	mov    rax,r11
    5382:	48 c1 c8 12          	ror    rax,0x12
    5386:	48 31 c8             	xor    rax,rcx
    5389:	4c 89 d9             	mov    rcx,r11
    538c:	48 c1 c1 17          	rol    rcx,0x17
    5390:	48 31 c8             	xor    rax,rcx
    5393:	4c 01 d0             	add    rax,r10
    5396:	4d 89 ea             	mov    r10,r13
    5399:	49 c1 ca 1c          	ror    r10,0x1c
    539d:	48 01 c2             	add    rdx,rax
    53a0:	4c 89 d6             	mov    rsi,r10
    53a3:	4d 89 ea             	mov    r10,r13
    53a6:	49 c1 c2 1e          	rol    r10,0x1e
    53aa:	4c 89 d1             	mov    rcx,r10
    53ad:	4d 89 ea             	mov    r10,r13
    53b0:	48 31 f1             	xor    rcx,rsi
    53b3:	49 c1 c2 19          	rol    r10,0x19
    53b7:	4c 31 d1             	xor    rcx,r10
    53ba:	49 89 ea             	mov    r10,rbp
    53bd:	4d 09 ea             	or     r10,r13
    53c0:	4c 89 d6             	mov    rsi,r10
    53c3:	49 89 ea             	mov    r10,rbp
    53c6:	4d 21 ea             	and    r10,r13
    53c9:	4c 21 e6             	and    rsi,r12
    53cc:	4c 09 d6             	or     rsi,r10
    53cf:	48 01 ce             	add    rsi,rcx
    53d2:	4c 8d 14 06          	lea    r10,[rsi+rax*1]
    53d6:	48 89 f8             	mov    rax,rdi
    53d9:	48 89 fe             	mov    rsi,rdi
    53dc:	48 d1 c8             	ror    rax,1
    53df:	48 c1 ce 08          	ror    rsi,0x8
    53e3:	48 31 c6             	xor    rsi,rax
    53e6:	48 89 f8             	mov    rax,rdi
    53e9:	48 c1 e8 07          	shr    rax,0x7
    53ed:	48 31 c6             	xor    rsi,rax
    53f0:	4c 01 c6             	add    rsi,r8
    53f3:	4c 8b 44 24 70       	mov    r8,QWORD PTR [rsp+0x70]
    53f8:	48 03 74 24 28       	add    rsi,QWORD PTR [rsp+0x28]
    53fd:	4c 89 c1             	mov    rcx,r8
    5400:	4c 89 c0             	mov    rax,r8
    5403:	48 c1 c9 13          	ror    rcx,0x13
    5407:	48 c1 c0 03          	rol    rax,0x3
    540b:	48 31 c8             	xor    rax,rcx
    540e:	4c 89 c1             	mov    rcx,r8
    5411:	48 c1 e9 06          	shr    rcx,0x6
    5415:	48 31 c8             	xor    rax,rcx
    5418:	48 b9 30 be 54 06 a3 	movabs rcx,0xc76c51a30654be30
    541f:	51 6c c7 
    5422:	48 01 f0             	add    rax,rsi
    5425:	49 89 c0             	mov    r8,rax
    5428:	48 89 d8             	mov    rax,rbx
    542b:	4c 01 c1             	add    rcx,r8
    542e:	4c 31 d8             	xor    rax,r11
    5431:	4c 89 44 24 48       	mov    QWORD PTR [rsp+0x48],r8
    5436:	4a 8d 3c 09          	lea    rdi,[rcx+r9*1]
    543a:	49 89 d1             	mov    r9,rdx
    543d:	48 21 d0             	and    rax,rdx
    5440:	49 c1 c9 0e          	ror    r9,0xe
    5444:	48 31 d8             	xor    rax,rbx
    5447:	4c 89 c9             	mov    rcx,r9
    544a:	49 89 d1             	mov    r9,rdx
    544d:	48 01 c7             	add    rdi,rax
    5450:	49 c1 c9 12          	ror    r9,0x12
    5454:	4c 89 c8             	mov    rax,r9
    5457:	49 89 d1             	mov    r9,rdx
    545a:	48 31 c8             	xor    rax,rcx
    545d:	49 c1 c1 17          	rol    r9,0x17
    5461:	4c 31 c8             	xor    rax,r9
    5464:	4d 89 d1             	mov    r9,r10
    5467:	49 c1 c9 1c          	ror    r9,0x1c
    546b:	48 01 f8             	add    rax,rdi
    546e:	4c 89 c9             	mov    rcx,r9
    5471:	4d 89 d1             	mov    r9,r10
    5474:	49 01 c4             	add    r12,rax
    5477:	49 c1 c1 1e          	rol    r9,0x1e
    547b:	4c 89 ce             	mov    rsi,r9
    547e:	4d 89 d1             	mov    r9,r10
    5481:	48 31 ce             	xor    rsi,rcx
    5484:	49 c1 c1 19          	rol    r9,0x19
    5488:	4c 31 ce             	xor    rsi,r9
    548b:	4d 89 e9             	mov    r9,r13
    548e:	4d 09 d1             	or     r9,r10
    5491:	4c 89 c9             	mov    rcx,r9
    5494:	4d 89 e9             	mov    r9,r13
    5497:	4d 21 d1             	and    r9,r10
    549a:	48 21 e9             	and    rcx,rbp
    549d:	4c 09 c9             	or     rcx,r9
    54a0:	48 01 f1             	add    rcx,rsi
    54a3:	4c 8d 04 01          	lea    r8,[rcx+rax*1]
    54a7:	48 8b 4c 24 20       	mov    rcx,QWORD PTR [rsp+0x20]
    54ac:	48 89 ce             	mov    rsi,rcx
    54af:	49 89 c9             	mov    r9,rcx
    54b2:	48 d1 ce             	ror    rsi,1
    54b5:	49 c1 e9 07          	shr    r9,0x7
    54b9:	48 89 f0             	mov    rax,rsi
    54bc:	48 89 ce             	mov    rsi,rcx
    54bf:	48 c1 ce 08          	ror    rsi,0x8
    54c3:	48 31 c6             	xor    rsi,rax
    54c6:	4c 31 ce             	xor    rsi,r9
    54c9:	4c 8b 4c 24 10       	mov    r9,QWORD PTR [rsp+0x10]
    54ce:	48 03 74 24 18       	add    rsi,QWORD PTR [rsp+0x18]
    54d3:	48 03 74 24 30       	add    rsi,QWORD PTR [rsp+0x30]
    54d8:	4c 89 c8             	mov    rax,r9
    54db:	48 c1 c8 13          	ror    rax,0x13
    54df:	48 89 c1             	mov    rcx,rax
    54e2:	4c 89 c8             	mov    rax,r9
    54e5:	49 c1 e9 06          	shr    r9,0x6
    54e9:	48 c1 c0 03          	rol    rax,0x3
    54ed:	48 31 c8             	xor    rax,rcx
    54f0:	48 b9 18 52 ef d6 19 	movabs rcx,0xd192e819d6ef5218
    54f7:	e8 92 d1 
    54fa:	4c 31 c8             	xor    rax,r9
    54fd:	4d 89 d1             	mov    r9,r10
    5500:	48 8d 3c 06          	lea    rdi,[rsi+rax*1]
    5504:	4c 89 d8             	mov    rax,r11
    5507:	48 31 d0             	xor    rax,rdx
    550a:	48 01 f9             	add    rcx,rdi
    550d:	4c 21 e0             	and    rax,r12
    5510:	48 89 7c 24 78       	mov    QWORD PTR [rsp+0x78],rdi
    5515:	48 8d 34 19          	lea    rsi,[rcx+rbx*1]
    5519:	4c 31 d8             	xor    rax,r11
    551c:	48 8b 5c 24 58       	mov    rbx,QWORD PTR [rsp+0x58]
    5521:	48 01 c6             	add    rsi,rax
    5524:	4c 89 e0             	mov    rax,r12
    5527:	48 c1 c8 0e          	ror    rax,0xe
    552b:	48 89 df             	mov    rdi,rbx
    552e:	48 89 c1             	mov    rcx,rax
    5531:	4c 89 e0             	mov    rax,r12
    5534:	48 c1 c8 12          	ror    rax,0x12
    5538:	48 31 c8             	xor    rax,rcx
    553b:	4c 89 e1             	mov    rcx,r12
    553e:	48 c1 c1 17          	rol    rcx,0x17
    5542:	48 31 c8             	xor    rax,rcx
    5545:	4c 89 c1             	mov    rcx,r8
    5548:	48 01 f0             	add    rax,rsi
    554b:	4c 89 c6             	mov    rsi,r8
    554e:	48 c1 c1 1e          	rol    rcx,0x1e
    5552:	48 c1 ce 1c          	ror    rsi,0x1c
    5556:	48 01 c5             	add    rbp,rax
    5559:	48 31 f1             	xor    rcx,rsi
    555c:	4c 89 c6             	mov    rsi,r8
    555f:	48 c1 c6 19          	rol    rsi,0x19
    5563:	4d 21 c1             	and    r9,r8
    5566:	48 c1 cf 08          	ror    rdi,0x8
    556a:	48 31 f1             	xor    rcx,rsi
    556d:	4c 89 d6             	mov    rsi,r10
    5570:	4c 09 c6             	or     rsi,r8
    5573:	4c 21 ee             	and    rsi,r13
    5576:	4c 09 ce             	or     rsi,r9
    5579:	48 01 ce             	add    rsi,rcx
    557c:	48 89 f9             	mov    rcx,rdi
    557f:	48 8b 7c 24 48       	mov    rdi,QWORD PTR [rsp+0x48]
    5584:	4c 8d 0c 06          	lea    r9,[rsi+rax*1]
    5588:	48 89 d8             	mov    rax,rbx
    558b:	48 d1 c8             	ror    rax,1
    558e:	48 31 c1             	xor    rcx,rax
    5591:	48 89 d8             	mov    rax,rbx
    5594:	48 89 fe             	mov    rsi,rdi
    5597:	48 c1 e8 07          	shr    rax,0x7
    559b:	48 c1 ce 13          	ror    rsi,0x13
    559f:	48 31 c1             	xor    rcx,rax
    55a2:	48 89 f8             	mov    rax,rdi
    55a5:	48 03 4c 24 20       	add    rcx,QWORD PTR [rsp+0x20]
    55aa:	48 03 4c 24 68       	add    rcx,QWORD PTR [rsp+0x68]
    55af:	48 c1 c0 03          	rol    rax,0x3
    55b3:	48 31 f0             	xor    rax,rsi
    55b6:	48 89 fe             	mov    rsi,rdi
    55b9:	48 c1 ee 06          	shr    rsi,0x6
    55bd:	48 31 f0             	xor    rax,rsi
    55c0:	48 01 c8             	add    rax,rcx
    55c3:	48 b9 10 a9 65 55 24 	movabs rcx,0xd69906245565a910
    55ca:	06 99 d6 
    55cd:	48 89 c6             	mov    rsi,rax
    55d0:	48 89 d0             	mov    rax,rdx
    55d3:	4c 31 e0             	xor    rax,r12
    55d6:	48 01 f1             	add    rcx,rsi
    55d9:	48 89 74 24 58       	mov    QWORD PTR [rsp+0x58],rsi
    55de:	48 21 e8             	and    rax,rbp
    55e1:	4c 01 d9             	add    rcx,r11
    55e4:	49 89 eb             	mov    r11,rbp
    55e7:	48 31 d0             	xor    rax,rdx
    55ea:	49 c1 c3 17          	rol    r11,0x17
    55ee:	48 01 c1             	add    rcx,rax
    55f1:	48 89 e8             	mov    rax,rbp
    55f4:	48 c1 c8 0e          	ror    rax,0xe
    55f8:	48 89 c6             	mov    rsi,rax
    55fb:	48 89 e8             	mov    rax,rbp
    55fe:	48 c1 c8 12          	ror    rax,0x12
    5602:	48 31 f0             	xor    rax,rsi
    5605:	4c 31 d8             	xor    rax,r11
    5608:	4d 89 cb             	mov    r11,r9
    560b:	48 01 c8             	add    rax,rcx
    560e:	4c 89 c9             	mov    rcx,r9
    5611:	49 01 c5             	add    r13,rax
    5614:	49 c1 c3 1e          	rol    r11,0x1e
    5618:	48 c1 c9 1c          	ror    rcx,0x1c
    561c:	4c 89 df             	mov    rdi,r11
    561f:	4d 89 c3             	mov    r11,r8
    5622:	48 31 cf             	xor    rdi,rcx
    5625:	4c 89 c9             	mov    rcx,r9
    5628:	4d 21 cb             	and    r11,r9
    562b:	48 c1 c1 19          	rol    rcx,0x19
    562f:	48 31 cf             	xor    rdi,rcx
    5632:	4c 89 c1             	mov    rcx,r8
    5635:	4c 09 c9             	or     rcx,r9
    5638:	4c 21 d1             	and    rcx,r10
    563b:	4c 09 d9             	or     rcx,r11
    563e:	4c 8b 5c 24 50       	mov    r11,QWORD PTR [rsp+0x50]
    5643:	48 01 cf             	add    rdi,rcx
    5646:	48 01 c7             	add    rdi,rax
    5649:	4c 89 d9             	mov    rcx,r11
    564c:	4c 89 d8             	mov    rax,r11
    564f:	48 d1 c9             	ror    rcx,1
    5652:	48 c1 c8 08          	ror    rax,0x8
    5656:	48 31 c8             	xor    rax,rcx
    5659:	4c 89 d9             	mov    rcx,r11
    565c:	48 c1 e9 07          	shr    rcx,0x7
    5660:	48 31 c8             	xor    rax,rcx
    5663:	48 01 d8             	add    rax,rbx
    5666:	48 8b 5c 24 78       	mov    rbx,QWORD PTR [rsp+0x78]
    566b:	48 03 44 24 38       	add    rax,QWORD PTR [rsp+0x38]
    5670:	48 89 de             	mov    rsi,rbx
    5673:	48 89 d9             	mov    rcx,rbx
    5676:	48 c1 eb 06          	shr    rbx,0x6
    567a:	48 c1 ce 13          	ror    rsi,0x13
    567e:	48 c1 c1 03          	rol    rcx,0x3
    5682:	48 31 f1             	xor    rcx,rsi
    5685:	4c 89 ce             	mov    rsi,r9
    5688:	48 31 d9             	xor    rcx,rbx
    568b:	48 01 c8             	add    rax,rcx
    568e:	48 b9 2a 20 71 57 85 	movabs rcx,0xf40e35855771202a
    5695:	35 0e f4 
    5698:	48 89 c3             	mov    rbx,rax
    569b:	4c 89 e0             	mov    rax,r12
    569e:	48 31 e8             	xor    rax,rbp
    56a1:	48 01 d9             	add    rcx,rbx
    56a4:	48 89 9c 24 c8 00 00 	mov    QWORD PTR [rsp+0xc8],rbx
    56ab:	00 
    56ac:	4c 21 e8             	and    rax,r13
    56af:	48 01 ca             	add    rdx,rcx
    56b2:	4c 31 e0             	xor    rax,r12
    56b5:	48 01 c2             	add    rdx,rax
    56b8:	4c 89 e8             	mov    rax,r13
    56bb:	48 c1 c8 0e          	ror    rax,0xe
    56bf:	48 89 c1             	mov    rcx,rax
    56c2:	4c 89 e8             	mov    rax,r13
    56c5:	48 c1 c8 12          	ror    rax,0x12
    56c9:	48 21 fe             	and    rsi,rdi
    56cc:	48 31 c8             	xor    rax,rcx
    56cf:	4c 89 e9             	mov    rcx,r13
    56d2:	48 c1 c1 17          	rol    rcx,0x17
    56d6:	48 31 c8             	xor    rax,rcx
    56d9:	48 01 d0             	add    rax,rdx
    56dc:	48 89 fa             	mov    rdx,rdi
    56df:	48 c1 ca 1c          	ror    rdx,0x1c
    56e3:	49 01 c2             	add    r10,rax
    56e6:	48 89 d1             	mov    rcx,rdx
    56e9:	48 89 fa             	mov    rdx,rdi
    56ec:	48 c1 c2 1e          	rol    rdx,0x1e
    56f0:	48 31 ca             	xor    rdx,rcx
    56f3:	48 89 f9             	mov    rcx,rdi
    56f6:	48 c1 c1 19          	rol    rcx,0x19
    56fa:	48 31 ca             	xor    rdx,rcx
    56fd:	4c 89 c9             	mov    rcx,r9
    5700:	48 09 f9             	or     rcx,rdi
    5703:	4c 21 c1             	and    rcx,r8
    5706:	48 09 f1             	or     rcx,rsi
    5709:	48 01 ca             	add    rdx,rcx
    570c:	48 01 c2             	add    rdx,rax
    570f:	4c 89 f8             	mov    rax,r15
    5712:	48 d1 c8             	ror    rax,1
    5715:	48 89 c1             	mov    rcx,rax
    5718:	4c 89 f8             	mov    rax,r15
    571b:	48 c1 c8 08          	ror    rax,0x8
    571f:	48 31 c8             	xor    rax,rcx
    5722:	4c 89 f9             	mov    rcx,r15
    5725:	48 c1 e9 07          	shr    rcx,0x7
    5729:	48 31 c8             	xor    rax,rcx
    572c:	4c 01 d8             	add    rax,r11
    572f:	4c 8b 5c 24 58       	mov    r11,QWORD PTR [rsp+0x58]
    5734:	48 03 04 24          	add    rax,QWORD PTR [rsp]
    5738:	4c 89 d9             	mov    rcx,r11
    573b:	48 c1 c9 13          	ror    rcx,0x13
    573f:	48 89 ce             	mov    rsi,rcx
    5742:	4c 89 d9             	mov    rcx,r11
    5745:	49 c1 eb 06          	shr    r11,0x6
    5749:	48 c1 c1 03          	rol    rcx,0x3
    574d:	48 31 f1             	xor    rcx,rsi
    5750:	4c 31 d9             	xor    rcx,r11
    5753:	48 01 c8             	add    rax,rcx
    5756:	48 b9 b8 d1 bb 32 70 	movabs rcx,0x106aa07032bbd1b8
    575d:	a0 6a 10 
    5760:	49 89 c3             	mov    r11,rax
    5763:	48 89 e8             	mov    rax,rbp
    5766:	4c 31 e8             	xor    rax,r13
    5769:	4c 89 5c 24 50       	mov    QWORD PTR [rsp+0x50],r11
    576e:	4c 21 d0             	and    rax,r10
    5771:	48 31 e8             	xor    rax,rbp
    5774:	4c 01 d9             	add    rcx,r11
    5777:	49 89 fb             	mov    r11,rdi
    577a:	49 01 cc             	add    r12,rcx
    577d:	4c 89 d1             	mov    rcx,r10
    5780:	49 21 d3             	and    r11,rdx
    5783:	49 01 c4             	add    r12,rax
    5786:	4c 89 d0             	mov    rax,r10
    5789:	48 c1 c9 0e          	ror    rcx,0xe
    578d:	48 c1 c8 12          	ror    rax,0x12
    5791:	48 31 c8             	xor    rax,rcx
    5794:	4c 89 d1             	mov    rcx,r10
    5797:	48 c1 c1 17          	rol    rcx,0x17
    579b:	48 31 c8             	xor    rax,rcx
    579e:	48 89 d1             	mov    rcx,rdx
    57a1:	48 c1 c9 1c          	ror    rcx,0x1c
    57a5:	4c 01 e0             	add    rax,r12
    57a8:	48 89 ce             	mov    rsi,rcx
    57ab:	48 89 d1             	mov    rcx,rdx
    57ae:	49 01 c0             	add    r8,rax
    57b1:	48 c1 c1 1e          	rol    rcx,0x1e
    57b5:	48 31 f1             	xor    rcx,rsi
    57b8:	48 89 d6             	mov    rsi,rdx
    57bb:	48 c1 c6 19          	rol    rsi,0x19
    57bf:	48 31 f1             	xor    rcx,rsi
    57c2:	48 89 fe             	mov    rsi,rdi
    57c5:	48 09 d6             	or     rsi,rdx
    57c8:	4c 21 ce             	and    rsi,r9
    57cb:	4c 09 de             	or     rsi,r11
    57ce:	49 89 db             	mov    r11,rbx
    57d1:	48 01 f1             	add    rcx,rsi
    57d4:	49 c1 cb 13          	ror    r11,0x13
    57d8:	48 01 c1             	add    rcx,rax
    57db:	4c 89 f0             	mov    rax,r14
    57de:	48 d1 c8             	ror    rax,1
    57e1:	48 89 c6             	mov    rsi,rax
    57e4:	4c 89 f0             	mov    rax,r14
    57e7:	48 c1 c8 08          	ror    rax,0x8
    57eb:	48 31 f0             	xor    rax,rsi
    57ee:	4c 89 f6             	mov    rsi,r14
    57f1:	48 c1 ee 07          	shr    rsi,0x7
    57f5:	48 31 f0             	xor    rax,rsi
    57f8:	48 89 de             	mov    rsi,rbx
    57fb:	4c 01 f8             	add    rax,r15
    57fe:	48 c1 c6 03          	rol    rsi,0x3
    5802:	48 03 44 24 70       	add    rax,QWORD PTR [rsp+0x70]
    5807:	4c 31 de             	xor    rsi,r11
    580a:	49 89 db             	mov    r11,rbx
    580d:	4c 8b 64 24 60       	mov    r12,QWORD PTR [rsp+0x60]
    5812:	49 c1 eb 06          	shr    r11,0x6
    5816:	4c 31 de             	xor    rsi,r11
    5819:	4c 8d 3c 30          	lea    r15,[rax+rsi*1]
    581d:	4c 89 e8             	mov    rax,r13
    5820:	48 be c8 d0 d2 b8 16 	movabs rsi,0x19a4c116b8d2d0c8
    5827:	c1 a4 19 
    582a:	4c 31 d0             	xor    rax,r10
    582d:	4c 01 fe             	add    rsi,r15
    5830:	4c 21 c0             	and    rax,r8
    5833:	4c 31 e8             	xor    rax,r13
    5836:	48 01 f5             	add    rbp,rsi
    5839:	48 01 c5             	add    rbp,rax
    583c:	4c 89 c0             	mov    rax,r8
    583f:	48 c1 c8 0e          	ror    rax,0xe
    5843:	48 89 c6             	mov    rsi,rax
    5846:	4c 89 c0             	mov    rax,r8
    5849:	48 c1 c8 12          	ror    rax,0x12
    584d:	48 31 f0             	xor    rax,rsi
    5850:	4c 89 c6             	mov    rsi,r8
    5853:	48 c1 c6 17          	rol    rsi,0x17
    5857:	48 31 f0             	xor    rax,rsi
    585a:	48 89 ce             	mov    rsi,rcx
    585d:	48 c1 ce 1c          	ror    rsi,0x1c
    5861:	48 01 e8             	add    rax,rbp
    5864:	48 89 cd             	mov    rbp,rcx
    5867:	49 89 f3             	mov    r11,rsi
    586a:	48 89 ce             	mov    rsi,rcx
    586d:	48 c1 c5 19          	rol    rbp,0x19
    5871:	48 c1 c6 1e          	rol    rsi,0x1e
    5875:	49 01 c1             	add    r9,rax
    5878:	4c 31 de             	xor    rsi,r11
    587b:	48 31 ee             	xor    rsi,rbp
    587e:	48 89 d5             	mov    rbp,rdx
    5881:	48 09 cd             	or     rbp,rcx
    5884:	49 89 eb             	mov    r11,rbp
    5887:	48 89 d5             	mov    rbp,rdx
    588a:	48 21 cd             	and    rbp,rcx
    588d:	49 21 fb             	and    r11,rdi
    5890:	49 09 eb             	or     r11,rbp
    5893:	48 8b 6c 24 50       	mov    rbp,QWORD PTR [rsp+0x50]
    5898:	4c 01 de             	add    rsi,r11
    589b:	4d 89 e3             	mov    r11,r12
    589e:	48 01 c6             	add    rsi,rax
    58a1:	4c 89 e0             	mov    rax,r12
    58a4:	49 d1 cb             	ror    r11,1
    58a7:	48 c1 c8 08          	ror    rax,0x8
    58ab:	48 89 eb             	mov    rbx,rbp
    58ae:	4c 31 d8             	xor    rax,r11
    58b1:	4d 89 e3             	mov    r11,r12
    58b4:	49 c1 eb 07          	shr    r11,0x7
    58b8:	4c 31 d8             	xor    rax,r11
    58bb:	49 89 eb             	mov    r11,rbp
    58be:	4c 01 f0             	add    rax,r14
    58c1:	48 03 44 24 10       	add    rax,QWORD PTR [rsp+0x10]
    58c6:	48 c1 cb 13          	ror    rbx,0x13
    58ca:	49 c1 c3 03          	rol    r11,0x3
    58ce:	4c 8b 74 24 40       	mov    r14,QWORD PTR [rsp+0x40]
    58d3:	49 31 db             	xor    r11,rbx
    58d6:	48 89 eb             	mov    rbx,rbp
    58d9:	48 c1 eb 06          	shr    rbx,0x6
    58dd:	49 31 db             	xor    r11,rbx
    58e0:	4c 01 d8             	add    rax,r11
    58e3:	49 bb 53 ab 41 51 08 	movabs r11,0x1e376c085141ab53
    58ea:	6c 37 1e 
    58ed:	48 89 c3             	mov    rbx,rax
    58f0:	4c 89 d0             	mov    rax,r10
    58f3:	4c 31 c0             	xor    rax,r8
    58f6:	49 01 db             	add    r11,rbx
    58f9:	48 89 5c 24 60       	mov    QWORD PTR [rsp+0x60],rbx
    58fe:	4c 21 c8             	and    rax,r9
    5901:	4d 01 dd             	add    r13,r11
    5904:	4c 31 d0             	xor    rax,r10
    5907:	49 01 c5             	add    r13,rax
    590a:	4c 89 c8             	mov    rax,r9
    590d:	48 c1 c8 0e          	ror    rax,0xe
    5911:	49 89 c3             	mov    r11,rax
    5914:	4c 89 c8             	mov    rax,r9
    5917:	48 c1 c8 12          	ror    rax,0x12
    591b:	4c 31 d8             	xor    rax,r11
    591e:	4d 89 cb             	mov    r11,r9
    5921:	49 c1 c3 17          	rol    r11,0x17
    5925:	4c 31 d8             	xor    rax,r11
    5928:	49 89 f3             	mov    r11,rsi
    592b:	4c 01 e8             	add    rax,r13
    592e:	49 89 f5             	mov    r13,rsi
    5931:	49 c1 c3 1e          	rol    r11,0x1e
    5935:	49 c1 cd 1c          	ror    r13,0x1c
    5939:	48 01 c7             	add    rdi,rax
    593c:	4d 31 eb             	xor    r11,r13
    593f:	49 89 f5             	mov    r13,rsi
    5942:	49 c1 c5 19          	rol    r13,0x19
    5946:	4d 31 eb             	xor    r11,r13
    5949:	49 89 cd             	mov    r13,rcx
    594c:	49 09 f5             	or     r13,rsi
    594f:	4c 89 eb             	mov    rbx,r13
    5952:	49 89 cd             	mov    r13,rcx
    5955:	49 21 f5             	and    r13,rsi
    5958:	48 21 d3             	and    rbx,rdx
    595b:	4c 09 eb             	or     rbx,r13
    595e:	4d 89 fd             	mov    r13,r15
    5961:	4c 01 db             	add    rbx,r11
    5964:	4d 89 f3             	mov    r11,r14
    5967:	48 01 c3             	add    rbx,rax
    596a:	4c 89 f0             	mov    rax,r14
    596d:	49 d1 cb             	ror    r11,1
    5970:	48 c1 c8 08          	ror    rax,0x8
    5974:	49 c1 cd 13          	ror    r13,0x13
    5978:	4c 31 d8             	xor    rax,r11
    597b:	4d 89 f3             	mov    r11,r14
    597e:	4c 89 ed             	mov    rbp,r13
    5981:	49 c1 eb 07          	shr    r11,0x7
    5985:	4d 89 fd             	mov    r13,r15
    5988:	4c 31 d8             	xor    rax,r11
    598b:	49 c1 c5 03          	rol    r13,0x3
    598f:	4c 01 e0             	add    rax,r12
    5992:	48 03 44 24 48       	add    rax,QWORD PTR [rsp+0x48]
    5997:	4d 89 eb             	mov    r11,r13
    599a:	4d 89 fd             	mov    r13,r15
    599d:	49 31 eb             	xor    r11,rbp
    59a0:	48 89 f5             	mov    rbp,rsi
    59a3:	49 c1 ed 06          	shr    r13,0x6
    59a7:	4c 8b 64 24 28       	mov    r12,QWORD PTR [rsp+0x28]
    59ac:	4d 31 eb             	xor    r11,r13
    59af:	4c 01 d8             	add    rax,r11
    59b2:	49 bb 99 eb 8e df 4c 	movabs r11,0x2748774cdf8eeb99
    59b9:	77 48 27 
    59bc:	49 89 c5             	mov    r13,rax
    59bf:	4c 89 c0             	mov    rax,r8
    59c2:	4c 31 c8             	xor    rax,r9
    59c5:	4d 01 eb             	add    r11,r13
    59c8:	4c 89 6c 24 40       	mov    QWORD PTR [rsp+0x40],r13
    59cd:	48 21 f8             	and    rax,rdi
    59d0:	4d 01 da             	add    r10,r11
    59d3:	4c 8b 6c 24 60       	mov    r13,QWORD PTR [rsp+0x60]
    59d8:	4c 31 c0             	xor    rax,r8
    59db:	49 01 c2             	add    r10,rax
    59de:	48 89 f8             	mov    rax,rdi
    59e1:	48 c1 c8 0e          	ror    rax,0xe
    59e5:	49 89 c3             	mov    r11,rax
    59e8:	48 89 f8             	mov    rax,rdi
    59eb:	48 c1 c8 12          	ror    rax,0x12
    59ef:	4c 31 d8             	xor    rax,r11
    59f2:	49 89 fb             	mov    r11,rdi
    59f5:	49 c1 c3 17          	rol    r11,0x17
    59f9:	4c 31 d8             	xor    rax,r11
    59fc:	4c 01 d0             	add    rax,r10
    59ff:	49 89 da             	mov    r10,rbx
    5a02:	49 c1 ca 1c          	ror    r10,0x1c
    5a06:	48 01 c2             	add    rdx,rax
    5a09:	4d 89 d3             	mov    r11,r10
    5a0c:	49 89 da             	mov    r10,rbx
    5a0f:	49 c1 c2 1e          	rol    r10,0x1e
    5a13:	4d 31 da             	xor    r10,r11
    5a16:	49 89 db             	mov    r11,rbx
    5a19:	49 c1 c3 19          	rol    r11,0x19
    5a1d:	4d 31 da             	xor    r10,r11
    5a20:	49 89 f3             	mov    r11,rsi
    5a23:	49 09 db             	or     r11,rbx
    5a26:	49 21 cb             	and    r11,rcx
    5a29:	48 21 dd             	and    rbp,rbx
    5a2c:	49 09 eb             	or     r11,rbp
    5a2f:	4c 89 ed             	mov    rbp,r13
    5a32:	4d 01 da             	add    r10,r11
    5a35:	4d 89 e3             	mov    r11,r12
    5a38:	48 c1 cd 13          	ror    rbp,0x13
    5a3c:	49 01 c2             	add    r10,rax
    5a3f:	4c 89 e0             	mov    rax,r12
    5a42:	49 d1 cb             	ror    r11,1
    5a45:	48 c1 c8 08          	ror    rax,0x8
    5a49:	4c 31 d8             	xor    rax,r11
    5a4c:	4d 89 e3             	mov    r11,r12
    5a4f:	49 c1 eb 07          	shr    r11,0x7
    5a53:	4c 31 d8             	xor    rax,r11
    5a56:	4d 89 eb             	mov    r11,r13
    5a59:	4c 01 f0             	add    rax,r14
    5a5c:	49 c1 c3 03          	rol    r11,0x3
    5a60:	48 03 44 24 78       	add    rax,QWORD PTR [rsp+0x78]
    5a65:	49 31 eb             	xor    r11,rbp
    5a68:	4c 89 ed             	mov    rbp,r13
    5a6b:	4c 8b 74 24 30       	mov    r14,QWORD PTR [rsp+0x30]
    5a70:	48 c1 ed 06          	shr    rbp,0x6
    5a74:	49 31 eb             	xor    r11,rbp
    5a77:	48 89 dd             	mov    rbp,rbx
    5a7a:	4c 01 d8             	add    rax,r11
    5a7d:	49 bb a8 48 9b e1 b5 	movabs r11,0x34b0bcb5e19b48a8
    5a84:	bc b0 34 
    5a87:	49 89 c5             	mov    r13,rax
    5a8a:	4c 89 c8             	mov    rax,r9
    5a8d:	48 31 f8             	xor    rax,rdi
    5a90:	4d 01 eb             	add    r11,r13
    5a93:	48 21 d0             	and    rax,rdx
    5a96:	4d 01 d8             	add    r8,r11
    5a99:	4c 31 c8             	xor    rax,r9
    5a9c:	49 01 c0             	add    r8,rax
    5a9f:	48 89 d0             	mov    rax,rdx
    5aa2:	48 c1 c8 0e          	ror    rax,0xe
    5aa6:	49 89 c3             	mov    r11,rax
    5aa9:	48 89 d0             	mov    rax,rdx
    5aac:	48 c1 c8 12          	ror    rax,0x12
    5ab0:	4c 31 d8             	xor    rax,r11
    5ab3:	49 89 d3             	mov    r11,rdx
    5ab6:	49 c1 c3 17          	rol    r11,0x17
    5aba:	4c 31 d8             	xor    rax,r11
    5abd:	4c 01 c0             	add    rax,r8
    5ac0:	4d 89 d0             	mov    r8,r10
    5ac3:	49 c1 c8 1c          	ror    r8,0x1c
    5ac7:	48 01 c1             	add    rcx,rax
    5aca:	4d 89 c3             	mov    r11,r8
    5acd:	4d 89 d0             	mov    r8,r10
    5ad0:	49 c1 c0 1e          	rol    r8,0x1e
    5ad4:	4d 31 d8             	xor    r8,r11
    5ad7:	4d 89 d3             	mov    r11,r10
    5ada:	4c 21 d5             	and    rbp,r10
    5add:	49 c1 c3 19          	rol    r11,0x19
    5ae1:	4d 31 d8             	xor    r8,r11
    5ae4:	49 89 db             	mov    r11,rbx
    5ae7:	4d 09 d3             	or     r11,r10
    5aea:	49 21 f3             	and    r11,rsi
    5aed:	49 09 eb             	or     r11,rbp
    5af0:	4d 01 d8             	add    r8,r11
    5af3:	4d 89 f3             	mov    r11,r14
    5af6:	49 01 c0             	add    r8,rax
    5af9:	4c 89 f0             	mov    rax,r14
    5afc:	49 c1 cb 08          	ror    r11,0x8
    5b00:	48 d1 c8             	ror    rax,1
    5b03:	49 31 c3             	xor    r11,rax
    5b06:	4c 89 f0             	mov    rax,r14
    5b09:	48 c1 e8 07          	shr    rax,0x7
    5b0d:	49 31 c3             	xor    r11,rax
    5b10:	48 8b 44 24 40       	mov    rax,QWORD PTR [rsp+0x40]
    5b15:	4d 01 e3             	add    r11,r12
    5b18:	4c 03 5c 24 58       	add    r11,QWORD PTR [rsp+0x58]
    5b1d:	49 89 c4             	mov    r12,rax
    5b20:	49 c1 cc 13          	ror    r12,0x13
    5b24:	4c 89 e5             	mov    rbp,r12
    5b27:	49 89 c4             	mov    r12,rax
    5b2a:	48 c1 c0 03          	rol    rax,0x3
    5b2e:	48 31 e8             	xor    rax,rbp
    5b31:	49 c1 ec 06          	shr    r12,0x6
    5b35:	4c 89 d5             	mov    rbp,r10
    5b38:	4c 31 e0             	xor    rax,r12
    5b3b:	4c 01 d8             	add    rax,r11
    5b3e:	49 bb 63 5a c9 c5 b3 	movabs r11,0x391c0cb3c5c95a63
    5b45:	0c 1c 39 
    5b48:	49 89 c4             	mov    r12,rax
    5b4b:	48 89 f8             	mov    rax,rdi
    5b4e:	48 31 d0             	xor    rax,rdx
    5b51:	4d 01 e3             	add    r11,r12
    5b54:	4c 89 a4 24 80 00 00 	mov    QWORD PTR [rsp+0x80],r12
    5b5b:	00 
    5b5c:	48 21 c8             	and    rax,rcx
    5b5f:	4d 01 d9             	add    r9,r11
    5b62:	4c 8b 64 24 68       	mov    r12,QWORD PTR [rsp+0x68]
    5b67:	48 31 f8             	xor    rax,rdi
    5b6a:	49 01 c1             	add    r9,rax
    5b6d:	48 89 c8             	mov    rax,rcx
    5b70:	48 c1 c8 0e          	ror    rax,0xe
    5b74:	49 89 c3             	mov    r11,rax
    5b77:	48 89 c8             	mov    rax,rcx
    5b7a:	48 c1 c8 12          	ror    rax,0x12
    5b7e:	4c 31 d8             	xor    rax,r11
    5b81:	49 89 cb             	mov    r11,rcx
    5b84:	49 c1 c3 17          	rol    r11,0x17
    5b88:	4c 31 d8             	xor    rax,r11
    5b8b:	4c 21 c5             	and    rbp,r8
    5b8e:	4c 01 c8             	add    rax,r9
    5b91:	4d 89 c1             	mov    r9,r8
    5b94:	49 c1 c9 1c          	ror    r9,0x1c
    5b98:	48 01 c6             	add    rsi,rax
    5b9b:	4d 89 cb             	mov    r11,r9
    5b9e:	4d 89 c1             	mov    r9,r8
    5ba1:	49 c1 c1 1e          	rol    r9,0x1e
    5ba5:	4d 31 d9             	xor    r9,r11
    5ba8:	4d 89 c3             	mov    r11,r8
    5bab:	49 c1 c3 19          	rol    r11,0x19
    5baf:	4d 31 d9             	xor    r9,r11
    5bb2:	4d 89 d3             	mov    r11,r10
    5bb5:	4d 09 c3             	or     r11,r8
    5bb8:	49 21 db             	and    r11,rbx
    5bbb:	49 09 eb             	or     r11,rbp
    5bbe:	4d 01 d9             	add    r9,r11
    5bc1:	4d 89 e3             	mov    r11,r12
    5bc4:	49 01 c1             	add    r9,rax
    5bc7:	4c 89 e0             	mov    rax,r12
    5bca:	49 c1 cb 08          	ror    r11,0x8
    5bce:	48 d1 c8             	ror    rax,1
    5bd1:	49 31 c3             	xor    r11,rax
    5bd4:	4c 89 e0             	mov    rax,r12
    5bd7:	48 c1 e8 07          	shr    rax,0x7
    5bdb:	49 31 c3             	xor    r11,rax
    5bde:	4c 89 e8             	mov    rax,r13
    5be1:	49 c1 cd 13          	ror    r13,0x13
    5be5:	4d 01 f3             	add    r11,r14
    5be8:	4c 03 9c 24 c8 00 00 	add    r11,QWORD PTR [rsp+0xc8]
    5bef:	00 
    5bf0:	4c 89 ed             	mov    rbp,r13
    5bf3:	49 89 c5             	mov    r13,rax
    5bf6:	48 c1 c0 03          	rol    rax,0x3
    5bfa:	4c 8b 74 24 38       	mov    r14,QWORD PTR [rsp+0x38]
    5bff:	48 31 e8             	xor    rax,rbp
    5c02:	4c 89 6c 24 68       	mov    QWORD PTR [rsp+0x68],r13
    5c07:	49 c1 ed 06          	shr    r13,0x6
    5c0b:	4c 31 e8             	xor    rax,r13
    5c0e:	4c 89 c5             	mov    rbp,r8
    5c11:	4c 01 d8             	add    rax,r11
    5c14:	49 bb cb 8a 41 e3 4a 	movabs r11,0x4ed8aa4ae3418acb
    5c1b:	aa d8 4e 
    5c1e:	49 89 c5             	mov    r13,rax
    5c21:	48 89 d0             	mov    rax,rdx
    5c24:	48 31 c8             	xor    rax,rcx
    5c27:	4d 01 eb             	add    r11,r13
    5c2a:	48 21 f0             	and    rax,rsi
    5c2d:	4c 01 df             	add    rdi,r11
    5c30:	48 31 d0             	xor    rax,rdx
    5c33:	48 01 c7             	add    rdi,rax
    5c36:	48 89 f0             	mov    rax,rsi
    5c39:	4c 21 cd             	and    rbp,r9
    5c3c:	48 c1 c8 0e          	ror    rax,0xe
    5c40:	49 89 c3             	mov    r11,rax
    5c43:	48 89 f0             	mov    rax,rsi
    5c46:	48 c1 c8 12          	ror    rax,0x12
    5c4a:	4c 31 d8             	xor    rax,r11
    5c4d:	49 89 f3             	mov    r11,rsi
    5c50:	49 c1 c3 17          	rol    r11,0x17
    5c54:	4c 31 d8             	xor    rax,r11
    5c57:	48 01 f8             	add    rax,rdi
    5c5a:	4c 89 cf             	mov    rdi,r9
    5c5d:	48 c1 cf 1c          	ror    rdi,0x1c
    5c61:	48 01 c3             	add    rbx,rax
    5c64:	49 89 fb             	mov    r11,rdi
    5c67:	4c 89 cf             	mov    rdi,r9
    5c6a:	48 c1 c7 1e          	rol    rdi,0x1e
    5c6e:	4c 31 df             	xor    rdi,r11
    5c71:	4d 89 cb             	mov    r11,r9
    5c74:	49 c1 c3 19          	rol    r11,0x19
    5c78:	4c 31 df             	xor    rdi,r11
    5c7b:	4d 89 c3             	mov    r11,r8
    5c7e:	4d 09 cb             	or     r11,r9
    5c81:	4d 21 d3             	and    r11,r10
    5c84:	49 09 eb             	or     r11,rbp
    5c87:	4c 01 df             	add    rdi,r11
    5c8a:	4d 89 f3             	mov    r11,r14
    5c8d:	48 01 c7             	add    rdi,rax
    5c90:	4c 89 f0             	mov    rax,r14
    5c93:	49 d1 cb             	ror    r11,1
    5c96:	48 c1 c8 08          	ror    rax,0x8
    5c9a:	4c 31 d8             	xor    rax,r11
    5c9d:	4d 89 f3             	mov    r11,r14
    5ca0:	49 c1 eb 07          	shr    r11,0x7
    5ca4:	4c 31 d8             	xor    rax,r11
    5ca7:	4c 8b 9c 24 80 00 00 	mov    r11,QWORD PTR [rsp+0x80]
    5cae:	00 
    5caf:	4c 01 e0             	add    rax,r12
    5cb2:	48 03 44 24 50       	add    rax,QWORD PTR [rsp+0x50]
    5cb7:	4d 89 dc             	mov    r12,r11
    5cba:	49 c1 cc 13          	ror    r12,0x13
    5cbe:	4c 89 e5             	mov    rbp,r12
    5cc1:	4d 89 dc             	mov    r12,r11
    5cc4:	49 c1 c3 03          	rol    r11,0x3
    5cc8:	49 31 eb             	xor    r11,rbp
    5ccb:	49 c1 ec 06          	shr    r12,0x6
    5ccf:	4d 31 e3             	xor    r11,r12
    5cd2:	4d 89 cc             	mov    r12,r9
    5cd5:	4c 01 d8             	add    rax,r11
    5cd8:	49 bb 73 e3 63 77 4f 	movabs r11,0x5b9cca4f7763e373
    5cdf:	ca 9c 5b 
    5ce2:	48 89 c5             	mov    rbp,rax
    5ce5:	48 89 c8             	mov    rax,rcx
    5ce8:	48 31 f0             	xor    rax,rsi
    5ceb:	49 01 eb             	add    r11,rbp
    5cee:	49 21 fc             	and    r12,rdi
    5cf1:	48 21 d8             	and    rax,rbx
    5cf4:	4c 01 da             	add    rdx,r11
    5cf7:	49 89 db             	mov    r11,rbx
    5cfa:	48 31 c8             	xor    rax,rcx
    5cfd:	49 c1 cb 0e          	ror    r11,0xe
    5d01:	48 89 6c 24 08       	mov    QWORD PTR [rsp+0x8],rbp
    5d06:	48 01 c2             	add    rdx,rax
    5d09:	48 89 d8             	mov    rax,rbx
    5d0c:	48 8b 2c 24          	mov    rbp,QWORD PTR [rsp]
    5d10:	48 c1 c8 12          	ror    rax,0x12
    5d14:	4c 31 d8             	xor    rax,r11
    5d17:	49 89 db             	mov    r11,rbx
    5d1a:	49 c1 c3 17          	rol    r11,0x17
    5d1e:	4c 31 d8             	xor    rax,r11
    5d21:	48 01 d0             	add    rax,rdx
    5d24:	48 89 fa             	mov    rdx,rdi
    5d27:	48 c1 ca 1c          	ror    rdx,0x1c
    5d2b:	49 01 c2             	add    r10,rax
    5d2e:	49 89 d3             	mov    r11,rdx
    5d31:	48 89 fa             	mov    rdx,rdi
    5d34:	48 c1 c2 1e          	rol    rdx,0x1e
    5d38:	4c 31 da             	xor    rdx,r11
    5d3b:	49 89 fb             	mov    r11,rdi
    5d3e:	49 c1 c3 19          	rol    r11,0x19
    5d42:	4c 31 da             	xor    rdx,r11
    5d45:	4d 89 cb             	mov    r11,r9
    5d48:	49 09 fb             	or     r11,rdi
    5d4b:	4d 21 c3             	and    r11,r8
    5d4e:	4d 09 e3             	or     r11,r12
    5d51:	4c 01 da             	add    rdx,r11
    5d54:	49 89 eb             	mov    r11,rbp
    5d57:	48 01 c2             	add    rdx,rax
    5d5a:	48 89 e8             	mov    rax,rbp
    5d5d:	49 d1 cb             	ror    r11,1
    5d60:	48 c1 c8 08          	ror    rax,0x8
    5d64:	4c 31 d8             	xor    rax,r11
    5d67:	49 89 eb             	mov    r11,rbp
    5d6a:	48 8b 6c 24 08       	mov    rbp,QWORD PTR [rsp+0x8]
    5d6f:	49 c1 eb 07          	shr    r11,0x7
    5d73:	4c 31 d8             	xor    rax,r11
    5d76:	4d 89 eb             	mov    r11,r13
    5d79:	4c 01 f0             	add    rax,r14
    5d7c:	49 c1 cb 13          	ror    r11,0x13
    5d80:	4d 89 ee             	mov    r14,r13
    5d83:	4c 01 f8             	add    rax,r15
    5d86:	49 c1 c5 03          	rol    r13,0x3
    5d8a:	4c 89 74 24 38       	mov    QWORD PTR [rsp+0x38],r14
    5d8f:	4d 31 dd             	xor    r13,r11
    5d92:	4d 89 f3             	mov    r11,r14
    5d95:	49 89 fe             	mov    r14,rdi
    5d98:	49 c1 eb 06          	shr    r11,0x6
    5d9c:	49 21 d6             	and    r14,rdx
    5d9f:	4d 31 dd             	xor    r13,r11
    5da2:	49 bb a3 b8 b2 d6 f3 	movabs r11,0x682e6ff3d6b2b8a3
    5da9:	6f 2e 68 
    5dac:	4c 01 e8             	add    rax,r13
    5daf:	49 89 c5             	mov    r13,rax
    5db2:	48 89 f0             	mov    rax,rsi
    5db5:	48 31 d8             	xor    rax,rbx
    5db8:	4d 01 eb             	add    r11,r13
    5dbb:	4c 21 d0             	and    rax,r10
    5dbe:	4c 01 d9             	add    rcx,r11
    5dc1:	48 31 f0             	xor    rax,rsi
    5dc4:	48 01 c1             	add    rcx,rax
    5dc7:	4c 89 d0             	mov    rax,r10
    5dca:	48 c1 c8 0e          	ror    rax,0xe
    5dce:	49 89 c3             	mov    r11,rax
    5dd1:	4c 89 d0             	mov    rax,r10
    5dd4:	48 c1 c8 12          	ror    rax,0x12
    5dd8:	4c 31 d8             	xor    rax,r11
    5ddb:	4d 89 d3             	mov    r11,r10
    5dde:	49 c1 c3 17          	rol    r11,0x17
    5de2:	4c 31 d8             	xor    rax,r11
    5de5:	48 01 c8             	add    rax,rcx
    5de8:	48 89 d1             	mov    rcx,rdx
    5deb:	48 c1 c9 1c          	ror    rcx,0x1c
    5def:	49 01 c0             	add    r8,rax
    5df2:	49 89 cb             	mov    r11,rcx
    5df5:	48 89 d1             	mov    rcx,rdx
    5df8:	48 c1 c1 1e          	rol    rcx,0x1e
    5dfc:	4c 31 d9             	xor    rcx,r11
    5dff:	49 89 d3             	mov    r11,rdx
    5e02:	49 c1 c3 19          	rol    r11,0x19
    5e06:	4c 31 d9             	xor    rcx,r11
    5e09:	49 89 fb             	mov    r11,rdi
    5e0c:	49 09 d3             	or     r11,rdx
    5e0f:	4d 21 cb             	and    r11,r9
    5e12:	4d 09 f3             	or     r11,r14
    5e15:	4c 8b 74 24 70       	mov    r14,QWORD PTR [rsp+0x70]
    5e1a:	4c 89 6c 24 70       	mov    QWORD PTR [rsp+0x70],r13
    5e1f:	49 01 cb             	add    r11,rcx
    5e22:	4d 8d 24 03          	lea    r12,[r11+rax*1]
    5e26:	49 89 eb             	mov    r11,rbp
    5e29:	4c 89 f1             	mov    rcx,r14
    5e2c:	4c 89 f0             	mov    rax,r14
    5e2f:	48 d1 c9             	ror    rcx,1
    5e32:	48 c1 c8 08          	ror    rax,0x8
    5e36:	48 31 c8             	xor    rax,rcx
    5e39:	4c 89 f1             	mov    rcx,r14
    5e3c:	48 c1 e9 07          	shr    rcx,0x7
    5e40:	48 31 c8             	xor    rax,rcx
    5e43:	48 03 04 24          	add    rax,QWORD PTR [rsp]
    5e47:	48 8b 4c 24 60       	mov    rcx,QWORD PTR [rsp+0x60]
    5e4c:	49 c1 cb 13          	ror    r11,0x13
    5e50:	48 01 c1             	add    rcx,rax
    5e53:	48 89 e8             	mov    rax,rbp
    5e56:	48 c1 c0 03          	rol    rax,0x3
    5e5a:	4c 31 d8             	xor    rax,r11
    5e5d:	49 89 eb             	mov    r11,rbp
    5e60:	48 8b 6c 24 10       	mov    rbp,QWORD PTR [rsp+0x10]
    5e65:	49 c1 eb 06          	shr    r11,0x6
    5e69:	4c 31 d8             	xor    rax,r11
    5e6c:	48 01 c8             	add    rax,rcx
    5e6f:	48 b9 fc b2 ef 5d ee 	movabs rcx,0x748f82ee5defb2fc
    5e76:	82 8f 74 
    5e79:	49 89 c3             	mov    r11,rax
    5e7c:	48 89 d8             	mov    rax,rbx
    5e7f:	4c 31 d0             	xor    rax,r10
    5e82:	4c 01 d9             	add    rcx,r11
    5e85:	4c 89 1c 24          	mov    QWORD PTR [rsp],r11
    5e89:	4c 21 c0             	and    rax,r8
    5e8c:	48 01 ce             	add    rsi,rcx
    5e8f:	4c 89 c1             	mov    rcx,r8
    5e92:	48 31 d8             	xor    rax,rbx
    5e95:	48 c1 c9 12          	ror    rcx,0x12
    5e99:	49 89 d3             	mov    r11,rdx
    5e9c:	48 01 c6             	add    rsi,rax
    5e9f:	4c 89 c0             	mov    rax,r8
    5ea2:	4d 21 e3             	and    r11,r12
    5ea5:	48 c1 c8 0e          	ror    rax,0xe
    5ea9:	48 31 c1             	xor    rcx,rax
    5eac:	4c 89 c0             	mov    rax,r8
    5eaf:	48 c1 c0 17          	rol    rax,0x17
    5eb3:	48 31 c8             	xor    rax,rcx
    5eb6:	48 01 f0             	add    rax,rsi
    5eb9:	4c 89 e6             	mov    rsi,r12
    5ebc:	48 c1 ce 1c          	ror    rsi,0x1c
    5ec0:	49 01 c1             	add    r9,rax
    5ec3:	48 89 f1             	mov    rcx,rsi
    5ec6:	4c 89 e6             	mov    rsi,r12
    5ec9:	48 c1 c6 1e          	rol    rsi,0x1e
    5ecd:	48 31 ce             	xor    rsi,rcx
    5ed0:	4c 89 e1             	mov    rcx,r12
    5ed3:	48 c1 c1 19          	rol    rcx,0x19
    5ed7:	48 31 ce             	xor    rsi,rcx
    5eda:	48 89 d1             	mov    rcx,rdx
    5edd:	4c 09 e1             	or     rcx,r12
    5ee0:	48 21 f9             	and    rcx,rdi
    5ee3:	4c 09 d9             	or     rcx,r11
    5ee6:	4d 89 eb             	mov    r11,r13
    5ee9:	48 01 f1             	add    rcx,rsi
    5eec:	48 89 ee             	mov    rsi,rbp
    5eef:	48 01 c1             	add    rcx,rax
    5ef2:	48 89 e8             	mov    rax,rbp
    5ef5:	48 d1 ce             	ror    rsi,1
    5ef8:	48 c1 c8 08          	ror    rax,0x8
    5efc:	49 c1 cb 13          	ror    r11,0x13
    5f00:	48 31 f0             	xor    rax,rsi
    5f03:	48 89 ee             	mov    rsi,rbp
    5f06:	48 c1 ee 07          	shr    rsi,0x7
    5f0a:	48 31 f0             	xor    rax,rsi
    5f0d:	48 8b 74 24 40       	mov    rsi,QWORD PTR [rsp+0x40]
    5f12:	4c 01 f0             	add    rax,r14
    5f15:	49 89 ce             	mov    r14,rcx
    5f18:	49 c1 c6 19          	rol    r14,0x19
    5f1c:	48 01 c6             	add    rsi,rax
    5f1f:	4c 89 e8             	mov    rax,r13
    5f22:	48 c1 c0 03          	rol    rax,0x3
    5f26:	4c 31 d8             	xor    rax,r11
    5f29:	4d 89 eb             	mov    r11,r13
    5f2c:	49 c1 eb 06          	shr    r11,0x6
    5f30:	4c 31 d8             	xor    rax,r11
    5f33:	48 01 c6             	add    rsi,rax
    5f36:	49 89 f5             	mov    r13,rsi
    5f39:	4c 89 d6             	mov    rsi,r10
    5f3c:	4c 31 c6             	xor    rsi,r8
    5f3f:	4c 89 6c 24 10       	mov    QWORD PTR [rsp+0x10],r13
    5f44:	48 89 f0             	mov    rax,rsi
    5f47:	48 be 60 2f 17 43 6f 	movabs rsi,0x78a5636f43172f60
    5f4e:	63 a5 78 
    5f51:	4c 01 ee             	add    rsi,r13
    5f54:	4c 21 c8             	and    rax,r9
    5f57:	48 01 f3             	add    rbx,rsi
    5f5a:	4c 89 ce             	mov    rsi,r9
    5f5d:	4c 31 d0             	xor    rax,r10
    5f60:	48 c1 ce 0e          	ror    rsi,0xe
    5f64:	48 01 c3             	add    rbx,rax
    5f67:	48 89 f0             	mov    rax,rsi
    5f6a:	4c 89 ce             	mov    rsi,r9
    5f6d:	48 c1 ce 12          	ror    rsi,0x12
    5f71:	49 89 f3             	mov    r11,rsi
    5f74:	4c 89 ce             	mov    rsi,r9
    5f77:	48 c1 c6 17          	rol    rsi,0x17
    5f7b:	49 31 c3             	xor    r11,rax
    5f7e:	48 89 f0             	mov    rax,rsi
    5f81:	48 89 ce             	mov    rsi,rcx
    5f84:	48 c1 ce 1c          	ror    rsi,0x1c
    5f88:	4c 31 d8             	xor    rax,r11
    5f8b:	49 89 f3             	mov    r11,rsi
    5f8e:	48 89 ce             	mov    rsi,rcx
    5f91:	48 01 d8             	add    rax,rbx
    5f94:	48 c1 c6 1e          	rol    rsi,0x1e
    5f98:	48 01 c7             	add    rdi,rax
    5f9b:	4c 89 e3             	mov    rbx,r12
    5f9e:	4c 31 de             	xor    rsi,r11
    5fa1:	4c 31 f6             	xor    rsi,r14
    5fa4:	4d 89 e6             	mov    r14,r12
    5fa7:	49 09 ce             	or     r14,rcx
    5faa:	48 21 cb             	and    rbx,rcx
    5fad:	4d 89 f3             	mov    r11,r14
    5fb0:	4c 8b 74 24 48       	mov    r14,QWORD PTR [rsp+0x48]
    5fb5:	4c 8b 6c 24 78       	mov    r13,QWORD PTR [rsp+0x78]
    5fba:	49 21 d3             	and    r11,rdx
    5fbd:	49 09 db             	or     r11,rbx
    5fc0:	49 01 f3             	add    r11,rsi
    5fc3:	4c 89 f6             	mov    rsi,r14
    5fc6:	49 01 c3             	add    r11,rax
    5fc9:	4c 89 f0             	mov    rax,r14
    5fcc:	48 d1 ce             	ror    rsi,1
    5fcf:	48 c1 c8 08          	ror    rax,0x8
    5fd3:	48 31 f0             	xor    rax,rsi
    5fd6:	4c 89 f6             	mov    rsi,r14
    5fd9:	48 c1 ee 07          	shr    rsi,0x7
    5fdd:	48 31 f0             	xor    rax,rsi
    5fe0:	48 8b 74 24 68       	mov    rsi,QWORD PTR [rsp+0x68]
    5fe5:	48 01 e8             	add    rax,rbp
    5fe8:	48 8b 2c 24          	mov    rbp,QWORD PTR [rsp]
    5fec:	48 01 c6             	add    rsi,rax
    5fef:	48 89 eb             	mov    rbx,rbp
    5ff2:	48 89 e8             	mov    rax,rbp
    5ff5:	48 c1 cb 13          	ror    rbx,0x13
    5ff9:	48 c1 c0 03          	rol    rax,0x3
    5ffd:	48 31 d8             	xor    rax,rbx
    6000:	48 89 eb             	mov    rbx,rbp
    6003:	48 89 cd             	mov    rbp,rcx
    6006:	48 c1 eb 06          	shr    rbx,0x6
    600a:	48 31 d8             	xor    rax,rbx
    600d:	48 bb 72 ab f0 a1 14 	movabs rbx,0x84c87814a1f0ab72
    6014:	78 c8 84 
    6017:	48 01 c6             	add    rsi,rax
    601a:	4c 89 c0             	mov    rax,r8
    601d:	4c 31 c8             	xor    rax,r9
    6020:	48 01 f3             	add    rbx,rsi
    6023:	48 89 74 24 18       	mov    QWORD PTR [rsp+0x18],rsi
    6028:	48 21 f8             	and    rax,rdi
    602b:	49 01 da             	add    r10,rbx
    602e:	4c 31 c0             	xor    rax,r8
    6031:	4a 8d 34 10          	lea    rsi,[rax+r10*1]
    6035:	49 89 fa             	mov    r10,rdi
    6038:	49 c1 ca 0e          	ror    r10,0xe
    603c:	4c 89 d0             	mov    rax,r10
    603f:	49 89 fa             	mov    r10,rdi
    6042:	49 c1 ca 12          	ror    r10,0x12
    6046:	49 31 c2             	xor    r10,rax
    6049:	48 89 f8             	mov    rax,rdi
    604c:	48 c1 c0 17          	rol    rax,0x17
    6050:	4c 31 d0             	xor    rax,r10
    6053:	4d 89 da             	mov    r10,r11
    6056:	48 01 f0             	add    rax,rsi
    6059:	4c 89 de             	mov    rsi,r11
    605c:	49 c1 ca 1c          	ror    r10,0x1c
    6060:	48 01 c2             	add    rdx,rax
    6063:	48 c1 c6 1e          	rol    rsi,0x1e
    6067:	4c 21 dd             	and    rbp,r11
    606a:	4c 31 d6             	xor    rsi,r10
    606d:	4d 89 da             	mov    r10,r11
    6070:	49 c1 c2 19          	rol    r10,0x19
    6074:	4c 31 d6             	xor    rsi,r10
    6077:	49 89 ca             	mov    r10,rcx
    607a:	4d 09 da             	or     r10,r11
    607d:	4d 21 e2             	and    r10,r12
    6080:	49 09 ea             	or     r10,rbp
    6083:	49 01 f2             	add    r10,rsi
    6086:	4c 89 ee             	mov    rsi,r13
    6089:	49 01 c2             	add    r10,rax
    608c:	4c 89 e8             	mov    rax,r13
    608f:	48 d1 ce             	ror    rsi,1
    6092:	48 c1 c8 08          	ror    rax,0x8
    6096:	48 31 f0             	xor    rax,rsi
    6099:	4c 89 ee             	mov    rsi,r13
    609c:	48 c1 ee 07          	shr    rsi,0x7
    60a0:	48 31 f0             	xor    rax,rsi
    60a3:	48 8b b4 24 80 00 00 	mov    rsi,QWORD PTR [rsp+0x80]
    60aa:	00 
    60ab:	4c 01 f0             	add    rax,r14
    60ae:	4c 8b 74 24 10       	mov    r14,QWORD PTR [rsp+0x10]
    60b3:	48 01 c6             	add    rsi,rax
    60b6:	4c 89 f3             	mov    rbx,r14
    60b9:	4c 89 f0             	mov    rax,r14
    60bc:	48 c1 cb 13          	ror    rbx,0x13
    60c0:	48 c1 c0 03          	rol    rax,0x3
    60c4:	48 31 d8             	xor    rax,rbx
    60c7:	4c 89 f3             	mov    rbx,r14
    60ca:	4c 8b 74 24 58       	mov    r14,QWORD PTR [rsp+0x58]
    60cf:	48 c1 eb 06          	shr    rbx,0x6
    60d3:	48 31 d8             	xor    rax,rbx
    60d6:	48 01 f0             	add    rax,rsi
    60d9:	48 89 c5             	mov    rbp,rax
    60dc:	4c 89 c8             	mov    rax,r9
    60df:	48 31 f8             	xor    rax,rdi
    60e2:	48 89 6c 24 20       	mov    QWORD PTR [rsp+0x20],rbp
    60e7:	48 89 c6             	mov    rsi,rax
    60ea:	48 b8 ec 39 64 1a 08 	movabs rax,0x8cc702081a6439ec
    60f1:	02 c7 8c 
    60f4:	48 01 e8             	add    rax,rbp
    60f7:	48 21 d6             	and    rsi,rdx
    60fa:	49 01 c0             	add    r8,rax
    60fd:	48 89 d0             	mov    rax,rdx
    6100:	4c 31 ce             	xor    rsi,r9
    6103:	48 c1 c8 0e          	ror    rax,0xe
    6107:	49 01 f0             	add    r8,rsi
    610a:	48 89 c6             	mov    rsi,rax
    610d:	48 89 d0             	mov    rax,rdx
    6110:	48 c1 c8 12          	ror    rax,0x12
    6114:	48 89 c3             	mov    rbx,rax
    6117:	48 89 d0             	mov    rax,rdx
    611a:	48 31 f3             	xor    rbx,rsi
    611d:	48 c1 c0 17          	rol    rax,0x17
    6121:	48 89 c6             	mov    rsi,rax
    6124:	4c 89 d0             	mov    rax,r10
    6127:	48 c1 c8 1c          	ror    rax,0x1c
    612b:	48 31 de             	xor    rsi,rbx
    612e:	48 89 c3             	mov    rbx,rax
    6131:	4c 89 d0             	mov    rax,r10
    6134:	4c 01 c6             	add    rsi,r8
    6137:	48 c1 c0 1e          	rol    rax,0x1e
    613b:	4d 8d 04 34          	lea    r8,[r12+rsi*1]
    613f:	4d 89 dc             	mov    r12,r11
    6142:	48 89 c5             	mov    rbp,rax
    6145:	4c 89 d0             	mov    rax,r10
    6148:	4d 21 d4             	and    r12,r10
    614b:	48 31 dd             	xor    rbp,rbx
    614e:	48 c1 c0 19          	rol    rax,0x19
    6152:	48 31 c5             	xor    rbp,rax
    6155:	4c 89 d8             	mov    rax,r11
    6158:	4c 09 d0             	or     rax,r10
    615b:	48 21 c8             	and    rax,rcx
    615e:	4c 09 e0             	or     rax,r12
    6161:	4c 8b 64 24 50       	mov    r12,QWORD PTR [rsp+0x50]
    6166:	48 01 e8             	add    rax,rbp
    6169:	48 8d 1c 30          	lea    rbx,[rax+rsi*1]
    616d:	4c 89 f6             	mov    rsi,r14
    6170:	4c 89 f0             	mov    rax,r14
    6173:	48 d1 ce             	ror    rsi,1
    6176:	48 c1 c8 08          	ror    rax,0x8
    617a:	48 31 f0             	xor    rax,rsi
    617d:	4c 89 f6             	mov    rsi,r14
    6180:	48 c1 ee 07          	shr    rsi,0x7
    6184:	48 31 f0             	xor    rax,rsi
    6187:	4c 01 e8             	add    rax,r13
    618a:	4c 8b 6c 24 18       	mov    r13,QWORD PTR [rsp+0x18]
    618f:	48 03 44 24 38       	add    rax,QWORD PTR [rsp+0x38]
    6194:	4c 89 ee             	mov    rsi,r13
    6197:	48 c1 ce 13          	ror    rsi,0x13
    619b:	48 89 f5             	mov    rbp,rsi
    619e:	4c 89 ee             	mov    rsi,r13
    61a1:	49 c1 ed 06          	shr    r13,0x6
    61a5:	48 c1 c6 03          	rol    rsi,0x3
    61a9:	48 31 ee             	xor    rsi,rbp
    61ac:	48 8b ac 24 c8 00 00 	mov    rbp,QWORD PTR [rsp+0xc8]
    61b3:	00 
    61b4:	4c 31 ee             	xor    rsi,r13
    61b7:	48 01 f0             	add    rax,rsi
    61ba:	48 be 28 1e 63 23 fa 	movabs rsi,0x90befffa23631e28
    61c1:	ff be 90 
    61c4:	49 89 c5             	mov    r13,rax
    61c7:	48 89 f8             	mov    rax,rdi
    61ca:	48 31 d0             	xor    rax,rdx
    61cd:	4c 01 ee             	add    rsi,r13
    61d0:	4c 89 6c 24 48       	mov    QWORD PTR [rsp+0x48],r13
    61d5:	4c 21 c0             	and    rax,r8
    61d8:	49 01 f1             	add    r9,rsi
    61db:	4c 89 c6             	mov    rsi,r8
    61de:	48 31 f8             	xor    rax,rdi
    61e1:	49 01 c1             	add    r9,rax
    61e4:	4c 89 c0             	mov    rax,r8
    61e7:	48 c1 c8 0e          	ror    rax,0xe
    61eb:	48 c1 ce 12          	ror    rsi,0x12
    61ef:	49 89 f5             	mov    r13,rsi
    61f2:	49 31 c5             	xor    r13,rax
    61f5:	4c 89 c0             	mov    rax,r8
    61f8:	48 c1 c0 17          	rol    rax,0x17
    61fc:	4c 31 e8             	xor    rax,r13
    61ff:	4c 01 c8             	add    rax,r9
    6202:	49 89 d9             	mov    r9,rbx
    6205:	49 c1 c9 1c          	ror    r9,0x1c
    6209:	48 01 c1             	add    rcx,rax
    620c:	4d 89 cd             	mov    r13,r9
    620f:	49 89 d9             	mov    r9,rbx
    6212:	49 c1 c1 1e          	rol    r9,0x1e
    6216:	4c 89 ce             	mov    rsi,r9
    6219:	49 89 d9             	mov    r9,rbx
    621c:	4c 31 ee             	xor    rsi,r13
    621f:	49 c1 c1 19          	rol    r9,0x19
    6223:	4c 31 ce             	xor    rsi,r9
    6226:	4d 89 d1             	mov    r9,r10
    6229:	49 09 d9             	or     r9,rbx
    622c:	4d 89 cd             	mov    r13,r9
    622f:	4d 89 d1             	mov    r9,r10
    6232:	49 21 d9             	and    r9,rbx
    6235:	4d 21 dd             	and    r13,r11
    6238:	4d 09 cd             	or     r13,r9
    623b:	49 01 f5             	add    r13,rsi
    623e:	48 89 ee             	mov    rsi,rbp
    6241:	49 01 c5             	add    r13,rax
    6244:	48 89 e8             	mov    rax,rbp
    6247:	48 d1 ce             	ror    rsi,1
    624a:	48 c1 c8 08          	ror    rax,0x8
    624e:	48 31 f0             	xor    rax,rsi
    6251:	48 89 ee             	mov    rsi,rbp
    6254:	48 c1 ee 07          	shr    rsi,0x7
    6258:	48 31 f0             	xor    rax,rsi
    625b:	4c 01 f0             	add    rax,r14
    625e:	4c 8b 74 24 20       	mov    r14,QWORD PTR [rsp+0x20]
    6263:	48 03 44 24 08       	add    rax,QWORD PTR [rsp+0x8]
    6268:	4d 89 f1             	mov    r9,r14
    626b:	4c 89 f6             	mov    rsi,r14
    626e:	49 c1 c9 13          	ror    r9,0x13
    6272:	48 c1 c6 03          	rol    rsi,0x3
    6276:	4c 31 ce             	xor    rsi,r9
    6279:	4d 89 f1             	mov    r9,r14
    627c:	49 c1 e9 06          	shr    r9,0x6
    6280:	4c 31 ce             	xor    rsi,r9
    6283:	48 01 f0             	add    rax,rsi
    6286:	48 be e9 bd 82 de eb 	movabs rsi,0xa4506cebde82bde9
    628d:	6c 50 a4 
    6290:	49 89 c1             	mov    r9,rax
    6293:	48 89 d0             	mov    rax,rdx
    6296:	4c 31 c0             	xor    rax,r8
    6299:	4c 89 4c 24 28       	mov    QWORD PTR [rsp+0x28],r9
    629e:	48 21 c8             	and    rax,rcx
    62a1:	4c 01 ce             	add    rsi,r9
    62a4:	48 31 d0             	xor    rax,rdx
    62a7:	48 01 f7             	add    rdi,rsi
    62aa:	48 89 ce             	mov    rsi,rcx
    62ad:	48 01 c7             	add    rdi,rax
    62b0:	48 c1 ce 12          	ror    rsi,0x12
    62b4:	48 89 c8             	mov    rax,rcx
    62b7:	48 c1 c8 0e          	ror    rax,0xe
    62bb:	49 89 f6             	mov    r14,rsi
    62be:	49 31 c6             	xor    r14,rax
    62c1:	48 89 c8             	mov    rax,rcx
    62c4:	48 c1 c0 17          	rol    rax,0x17
    62c8:	4c 31 f0             	xor    rax,r14
    62cb:	48 01 f8             	add    rax,rdi
    62ce:	4c 89 ef             	mov    rdi,r13
    62d1:	48 c1 cf 1c          	ror    rdi,0x1c
    62d5:	49 01 c3             	add    r11,rax
    62d8:	49 89 fe             	mov    r14,rdi
    62db:	4c 89 ef             	mov    rdi,r13
    62de:	48 c1 c7 1e          	rol    rdi,0x1e
    62e2:	48 89 fe             	mov    rsi,rdi
    62e5:	4c 89 ef             	mov    rdi,r13
    62e8:	4c 31 f6             	xor    rsi,r14
    62eb:	48 c1 c7 19          	rol    rdi,0x19
    62ef:	48 31 fe             	xor    rsi,rdi
    62f2:	48 89 df             	mov    rdi,rbx
    62f5:	4c 09 ef             	or     rdi,r13
    62f8:	49 89 fe             	mov    r14,rdi
    62fb:	48 89 df             	mov    rdi,rbx
    62fe:	4c 21 ef             	and    rdi,r13
    6301:	4d 21 d6             	and    r14,r10
    6304:	49 09 fe             	or     r14,rdi
    6307:	49 01 f6             	add    r14,rsi
    630a:	4c 89 e6             	mov    rsi,r12
    630d:	49 01 c6             	add    r14,rax
    6310:	4c 89 e0             	mov    rax,r12
    6313:	48 d1 ce             	ror    rsi,1
    6316:	48 c1 c8 08          	ror    rax,0x8
    631a:	48 31 f0             	xor    rax,rsi
    631d:	4c 89 e6             	mov    rsi,r12
    6320:	48 c1 ee 07          	shr    rsi,0x7
    6324:	48 31 f0             	xor    rax,rsi
    6327:	48 01 e8             	add    rax,rbp
    632a:	48 8b 6c 24 48       	mov    rbp,QWORD PTR [rsp+0x48]
    632f:	48 03 44 24 70       	add    rax,QWORD PTR [rsp+0x70]
    6334:	48 89 ef             	mov    rdi,rbp
    6337:	48 89 ee             	mov    rsi,rbp
    633a:	48 c1 cf 13          	ror    rdi,0x13
    633e:	48 c1 c6 03          	rol    rsi,0x3
    6342:	48 31 fe             	xor    rsi,rdi
    6345:	48 89 ef             	mov    rdi,rbp
    6348:	48 c1 ef 06          	shr    rdi,0x6
    634c:	48 31 fe             	xor    rsi,rdi
    634f:	48 bf 15 79 c6 b2 f7 	movabs rdi,0xbef9a3f7b2c67915
    6356:	a3 f9 be 
    6359:	48 01 f0             	add    rax,rsi
    635c:	48 89 c5             	mov    rbp,rax
    635f:	4c 89 c0             	mov    rax,r8
    6362:	48 31 c8             	xor    rax,rcx
    6365:	48 01 ef             	add    rdi,rbp
    6368:	48 89 6c 24 50       	mov    QWORD PTR [rsp+0x50],rbp
    636d:	4c 21 d8             	and    rax,r11
    6370:	48 01 fa             	add    rdx,rdi
    6373:	4c 89 f7             	mov    rdi,r14
    6376:	4c 31 c0             	xor    rax,r8
    6379:	48 c1 c7 1e          	rol    rdi,0x1e
    637d:	48 8d 34 10          	lea    rsi,[rax+rdx*1]
    6381:	4c 89 d8             	mov    rax,r11
    6384:	4c 89 da             	mov    rdx,r11
    6387:	48 c1 c8 0e          	ror    rax,0xe
    638b:	48 c1 ca 12          	ror    rdx,0x12
    638f:	48 31 c2             	xor    rdx,rax
    6392:	4c 89 d8             	mov    rax,r11
    6395:	48 c1 c0 17          	rol    rax,0x17
    6399:	48 31 d0             	xor    rax,rdx
    639c:	4c 89 f2             	mov    rdx,r14
    639f:	48 c1 ca 1c          	ror    rdx,0x1c
    63a3:	48 01 f0             	add    rax,rsi
    63a6:	48 31 d7             	xor    rdi,rdx
    63a9:	4c 89 f2             	mov    rdx,r14
    63ac:	49 8d 34 02          	lea    rsi,[r10+rax*1]
    63b0:	48 c1 c2 19          	rol    rdx,0x19
    63b4:	4d 89 ea             	mov    r10,r13
    63b7:	48 31 d7             	xor    rdi,rdx
    63ba:	4c 89 ea             	mov    rdx,r13
    63bd:	4d 21 f2             	and    r10,r14
    63c0:	4c 09 f2             	or     rdx,r14
    63c3:	48 21 da             	and    rdx,rbx
    63c6:	4c 09 d2             	or     rdx,r10
    63c9:	4c 8b 54 24 28       	mov    r10,QWORD PTR [rsp+0x28]
    63ce:	48 01 fa             	add    rdx,rdi
    63d1:	48 01 c2             	add    rdx,rax
    63d4:	4c 89 f8             	mov    rax,r15
    63d7:	48 d1 c8             	ror    rax,1
    63da:	4d 89 d1             	mov    r9,r10
    63dd:	48 89 c7             	mov    rdi,rax
    63e0:	4c 89 f8             	mov    rax,r15
    63e3:	48 c1 c8 08          	ror    rax,0x8
    63e7:	48 31 f8             	xor    rax,rdi
    63ea:	4c 89 ff             	mov    rdi,r15
    63ed:	48 c1 ef 07          	shr    rdi,0x7
    63f1:	48 31 f8             	xor    rax,rdi
    63f4:	4c 89 d7             	mov    rdi,r10
    63f7:	4c 01 e0             	add    rax,r12
    63fa:	48 03 04 24          	add    rax,QWORD PTR [rsp]
    63fe:	49 c1 c9 13          	ror    r9,0x13
    6402:	48 c1 c7 03          	rol    rdi,0x3
    6406:	4c 31 cf             	xor    rdi,r9
    6409:	4d 89 d1             	mov    r9,r10
    640c:	49 c1 e9 06          	shr    r9,0x6
    6410:	4c 31 cf             	xor    rdi,r9
    6413:	48 01 f8             	add    rax,rdi
    6416:	48 bf 2b 53 72 e3 f2 	movabs rdi,0xc67178f2e372532b
    641d:	78 71 c6 
    6420:	49 89 c2             	mov    r10,rax
    6423:	48 89 c8             	mov    rax,rcx
    6426:	4c 31 d8             	xor    rax,r11
    6429:	4c 01 d7             	add    rdi,r10
    642c:	4c 89 54 24 30       	mov    QWORD PTR [rsp+0x30],r10
    6431:	48 21 f0             	and    rax,rsi
    6434:	49 01 f8             	add    r8,rdi
    6437:	48 89 f7             	mov    rdi,rsi
    643a:	48 31 c8             	xor    rax,rcx
    643d:	48 c1 cf 12          	ror    rdi,0x12
    6441:	4d 89 f2             	mov    r10,r14
    6444:	49 89 c1             	mov    r9,rax
    6447:	49 21 d2             	and    r10,rdx
    644a:	4b 8d 04 01          	lea    rax,[r9+r8*1]
    644e:	49 89 f0             	mov    r8,rsi
    6451:	49 89 d1             	mov    r9,rdx
    6454:	49 c1 c8 0e          	ror    r8,0xe
    6458:	49 c1 c1 1e          	rol    r9,0x1e
    645c:	4c 31 c7             	xor    rdi,r8
    645f:	49 89 f0             	mov    r8,rsi
    6462:	49 c1 c0 17          	rol    r8,0x17
    6466:	49 31 f8             	xor    r8,rdi
    6469:	48 89 d7             	mov    rdi,rdx
    646c:	48 c1 cf 1c          	ror    rdi,0x1c
    6470:	49 01 c0             	add    r8,rax
    6473:	49 31 f9             	xor    r9,rdi
    6476:	48 89 d7             	mov    rdi,rdx
    6479:	4a 8d 04 03          	lea    rax,[rbx+r8*1]
    647d:	48 c1 c7 19          	rol    rdi,0x19
    6481:	48 8b 5c 24 60       	mov    rbx,QWORD PTR [rsp+0x60]
    6486:	49 31 f9             	xor    r9,rdi
    6489:	4c 89 f7             	mov    rdi,r14
    648c:	48 09 d7             	or     rdi,rdx
    648f:	4c 21 ef             	and    rdi,r13
    6492:	4c 09 d7             	or     rdi,r10
    6495:	4c 01 cf             	add    rdi,r9
    6498:	49 89 d9             	mov    r9,rbx
    649b:	4c 01 c7             	add    rdi,r8
    649e:	49 89 d8             	mov    r8,rbx
    64a1:	49 d1 c9             	ror    r9,1
    64a4:	49 c1 c8 08          	ror    r8,0x8
    64a8:	4d 31 c8             	xor    r8,r9
    64ab:	49 89 d9             	mov    r9,rbx
    64ae:	49 c1 e9 07          	shr    r9,0x7
    64b2:	4d 31 c8             	xor    r8,r9
    64b5:	4d 01 c7             	add    r15,r8
    64b8:	49 89 e8             	mov    r8,rbp
    64bb:	4c 03 7c 24 10       	add    r15,QWORD PTR [rsp+0x10]
    64c0:	49 c1 c8 13          	ror    r8,0x13
    64c4:	4d 89 c1             	mov    r9,r8
    64c7:	49 89 e8             	mov    r8,rbp
    64ca:	48 c1 ed 06          	shr    rbp,0x6
    64ce:	49 c1 c0 03          	rol    r8,0x3
    64d2:	4d 31 c8             	xor    r8,r9
    64d5:	49 b9 9c 61 26 ea ce 	movabs r9,0xca273eceea26619c
    64dc:	3e 27 ca 
    64df:	49 31 e8             	xor    r8,rbp
    64e2:	4d 01 f8             	add    r8,r15
    64e5:	4c 8b 7c 24 40       	mov    r15,QWORD PTR [rsp+0x40]
    64ea:	4d 89 c4             	mov    r12,r8
    64ed:	4c 89 84 24 f0 00 00 	mov    QWORD PTR [rsp+0xf0],r8
    64f4:	00 
    64f5:	4d 89 d8             	mov    r8,r11
    64f8:	49 31 f0             	xor    r8,rsi
    64fb:	4d 01 e1             	add    r9,r12
    64fe:	4c 89 64 24 58       	mov    QWORD PTR [rsp+0x58],r12
    6503:	49 21 c0             	and    r8,rax
    6506:	4c 01 c9             	add    rcx,r9
    6509:	49 89 d1             	mov    r9,rdx
    650c:	4d 31 d8             	xor    r8,r11
    650f:	49 21 f9             	and    r9,rdi
    6512:	4d 89 fc             	mov    r12,r15
    6515:	4d 89 c2             	mov    r10,r8
    6518:	4d 8d 04 0a          	lea    r8,[r10+rcx*1]
    651c:	48 89 c1             	mov    rcx,rax
    651f:	49 89 c2             	mov    r10,rax
    6522:	48 c1 c9 0e          	ror    rcx,0xe
    6526:	49 c1 ca 12          	ror    r10,0x12
    652a:	49 31 ca             	xor    r10,rcx
    652d:	48 89 c1             	mov    rcx,rax
    6530:	48 c1 c1 17          	rol    rcx,0x17
    6534:	4c 31 d1             	xor    rcx,r10
    6537:	49 89 fa             	mov    r10,rdi
    653a:	4c 01 c1             	add    rcx,r8
    653d:	49 89 f8             	mov    r8,rdi
    6540:	49 c1 ca 1c          	ror    r10,0x1c
    6544:	49 c1 c0 1e          	rol    r8,0x1e
    6548:	49 01 cd             	add    r13,rcx
    654b:	4d 31 d0             	xor    r8,r10
    654e:	49 89 fa             	mov    r10,rdi
    6551:	49 c1 c2 19          	rol    r10,0x19
    6555:	4d 31 d0             	xor    r8,r10
    6558:	49 89 d2             	mov    r10,rdx
    655b:	49 09 fa             	or     r10,rdi
    655e:	4d 21 f2             	and    r10,r14
    6561:	4d 09 ca             	or     r10,r9
    6564:	4d 89 e9             	mov    r9,r13
    6567:	4d 01 c2             	add    r10,r8
    656a:	49 01 ca             	add    r10,rcx
    656d:	4c 89 f9             	mov    rcx,r15
    6570:	49 d1 cc             	ror    r12,1
    6573:	48 c1 c9 08          	ror    rcx,0x8
    6577:	49 c1 c9 12          	ror    r9,0x12
    657b:	4c 31 e1             	xor    rcx,r12
    657e:	4d 89 fc             	mov    r12,r15
    6581:	49 c1 ec 07          	shr    r12,0x7
    6585:	4c 31 e1             	xor    rcx,r12
    6588:	48 01 d9             	add    rcx,rbx
    658b:	48 8b 5c 24 30       	mov    rbx,QWORD PTR [rsp+0x30]
    6590:	48 03 4c 24 18       	add    rcx,QWORD PTR [rsp+0x18]
    6595:	49 89 d8             	mov    r8,rbx
    6598:	49 89 dc             	mov    r12,rbx
    659b:	49 c1 c8 13          	ror    r8,0x13
    659f:	49 c1 c4 03          	rol    r12,0x3
    65a3:	4d 31 c4             	xor    r12,r8
    65a6:	49 89 d8             	mov    r8,rbx
    65a9:	48 8b 5c 24 68       	mov    rbx,QWORD PTR [rsp+0x68]
    65ae:	49 c1 e8 06          	shr    r8,0x6
    65b2:	4d 31 c4             	xor    r12,r8
    65b5:	49 b8 07 c2 c0 21 c7 	movabs r8,0xd186b8c721c0c207
    65bc:	b8 86 d1 
    65bf:	49 01 cc             	add    r12,rcx
    65c2:	48 89 f1             	mov    rcx,rsi
    65c5:	48 89 dd             	mov    rbp,rbx
    65c8:	48 31 c1             	xor    rcx,rax
    65cb:	4d 01 e0             	add    r8,r12
    65ce:	4c 89 a4 24 f8 00 00 	mov    QWORD PTR [rsp+0xf8],r12
    65d5:	00 
    65d6:	4c 21 e9             	and    rcx,r13
    65d9:	4d 01 c3             	add    r11,r8
    65dc:	48 31 f1             	xor    rcx,rsi
    65df:	49 01 cb             	add    r11,rcx
    65e2:	4c 89 e9             	mov    rcx,r13
    65e5:	48 c1 c9 0e          	ror    rcx,0xe
    65e9:	49 31 c9             	xor    r9,rcx
    65ec:	4c 89 e9             	mov    rcx,r13
    65ef:	48 c1 c1 17          	rol    rcx,0x17
    65f3:	4c 31 c9             	xor    rcx,r9
    65f6:	4c 01 d9             	add    rcx,r11
    65f9:	4d 89 d3             	mov    r11,r10
    65fc:	49 c1 cb 1c          	ror    r11,0x1c
    6600:	49 01 ce             	add    r14,rcx
    6603:	4d 89 d9             	mov    r9,r11
    6606:	4d 89 d3             	mov    r11,r10
    6609:	49 c1 c3 1e          	rol    r11,0x1e
    660d:	4d 89 d8             	mov    r8,r11
    6610:	4d 89 d3             	mov    r11,r10
    6613:	4d 31 c8             	xor    r8,r9
    6616:	49 c1 c3 19          	rol    r11,0x19
    661a:	4d 31 d8             	xor    r8,r11
    661d:	49 89 fb             	mov    r11,rdi
    6620:	4d 09 d3             	or     r11,r10
    6623:	48 d1 cd             	ror    rbp,1
    6626:	4d 89 d9             	mov    r9,r11
    6629:	49 89 fb             	mov    r11,rdi
    662c:	4d 21 d3             	and    r11,r10
    662f:	49 21 d1             	and    r9,rdx
    6632:	4d 09 d9             	or     r9,r11
    6635:	49 89 db             	mov    r11,rbx
    6638:	49 c1 cb 08          	ror    r11,0x8
    663c:	4d 01 c1             	add    r9,r8
    663f:	49 31 eb             	xor    r11,rbp
    6642:	48 89 dd             	mov    rbp,rbx
    6645:	49 01 c9             	add    r9,rcx
    6648:	48 c1 ed 07          	shr    rbp,0x7
    664c:	49 31 eb             	xor    r11,rbp
    664f:	4d 01 fb             	add    r11,r15
    6652:	4c 03 5c 24 20       	add    r11,QWORD PTR [rsp+0x20]
    6657:	4c 8b 44 24 58       	mov    r8,QWORD PTR [rsp+0x58]
    665c:	4c 8b bc 24 80 00 00 	mov    r15,QWORD PTR [rsp+0x80]
    6663:	00 
    6664:	4c 89 c3             	mov    rbx,r8
    6667:	4c 89 c1             	mov    rcx,r8
    666a:	48 c1 c3 03          	rol    rbx,0x3
    666e:	48 c1 c9 13          	ror    rcx,0x13
    6672:	48 89 dd             	mov    rbp,rbx
    6675:	48 31 cd             	xor    rbp,rcx
    6678:	4c 89 c1             	mov    rcx,r8
    667b:	49 b8 1e eb e0 cd d6 	movabs r8,0xeada7dd6cde0eb1e
    6682:	7d da ea 
    6685:	48 c1 e9 06          	shr    rcx,0x6
    6689:	48 31 cd             	xor    rbp,rcx
    668c:	48 89 c1             	mov    rcx,rax
    668f:	4c 01 dd             	add    rbp,r11
    6692:	4c 31 e9             	xor    rcx,r13
    6695:	4d 89 f3             	mov    r11,r14
    6698:	49 01 e8             	add    r8,rbp
    669b:	4c 21 f1             	and    rcx,r14
    669e:	49 c1 cb 12          	ror    r11,0x12
    66a2:	48 31 c1             	xor    rcx,rax
    66a5:	4c 01 c6             	add    rsi,r8
    66a8:	4d 89 d8             	mov    r8,r11
    66ab:	48 01 ce             	add    rsi,rcx
    66ae:	4c 89 f1             	mov    rcx,r14
    66b1:	4d 89 cb             	mov    r11,r9
    66b4:	48 c1 c9 0e          	ror    rcx,0xe
    66b8:	48 89 ac 24 00 01 00 	mov    QWORD PTR [rsp+0x100],rbp
    66bf:	00 
    66c0:	49 31 c8             	xor    r8,rcx
    66c3:	4c 89 f1             	mov    rcx,r14
    66c6:	48 c1 c1 17          	rol    rcx,0x17
    66ca:	4c 31 c1             	xor    rcx,r8
    66cd:	48 01 f1             	add    rcx,rsi
    66d0:	48 01 ca             	add    rdx,rcx
    66d3:	49 c1 cb 1c          	ror    r11,0x1c
    66d7:	4d 89 d8             	mov    r8,r11
    66da:	4d 89 cb             	mov    r11,r9
    66dd:	49 c1 c3 1e          	rol    r11,0x1e
    66e1:	4c 89 de             	mov    rsi,r11
    66e4:	4d 89 cb             	mov    r11,r9
    66e7:	4c 31 c6             	xor    rsi,r8
    66ea:	49 c1 c3 19          	rol    r11,0x19
    66ee:	4c 31 de             	xor    rsi,r11
    66f1:	4d 89 d3             	mov    r11,r10
    66f4:	4d 09 cb             	or     r11,r9
    66f7:	4d 89 d8             	mov    r8,r11
    66fa:	4d 89 d3             	mov    r11,r10
    66fd:	4d 21 cb             	and    r11,r9
    6700:	49 21 f8             	and    r8,rdi
    6703:	4d 09 d8             	or     r8,r11
    6706:	4d 89 fb             	mov    r11,r15
    6709:	49 01 f0             	add    r8,rsi
    670c:	4c 89 fe             	mov    rsi,r15
    670f:	49 c1 cb 08          	ror    r11,0x8
    6713:	48 d1 ce             	ror    rsi,1
    6716:	49 01 c8             	add    r8,rcx
    6719:	4c 89 e1             	mov    rcx,r12
    671c:	49 31 f3             	xor    r11,rsi
    671f:	4c 89 fe             	mov    rsi,r15
    6722:	48 c1 c9 13          	ror    rcx,0x13
    6726:	48 c1 ee 07          	shr    rsi,0x7
    672a:	49 31 f3             	xor    r11,rsi
    672d:	4c 89 e6             	mov    rsi,r12
    6730:	4c 03 5c 24 68       	add    r11,QWORD PTR [rsp+0x68]
    6735:	48 c1 c6 03          	rol    rsi,0x3
    6739:	4c 03 5c 24 48       	add    r11,QWORD PTR [rsp+0x48]
    673e:	48 89 f3             	mov    rbx,rsi
    6741:	48 31 cb             	xor    rbx,rcx
    6744:	4c 89 e1             	mov    rcx,r12
    6747:	48 c1 e9 06          	shr    rcx,0x6
    674b:	48 31 cb             	xor    rbx,rcx
    674e:	4c 89 e9             	mov    rcx,r13
    6751:	4c 01 db             	add    rbx,r11
    6754:	4c 31 f1             	xor    rcx,r14
    6757:	49 bb 78 d1 6e ee 7f 	movabs r11,0xf57d4f7fee6ed178
    675e:	4f 7d f5 
    6761:	49 01 db             	add    r11,rbx
    6764:	48 21 d1             	and    rcx,rdx
    6767:	48 89 9c 24 08 01 00 	mov    QWORD PTR [rsp+0x108],rbx
    676e:	00 
    676f:	4c 31 e9             	xor    rcx,r13
    6772:	4c 01 d8             	add    rax,r11
    6775:	49 89 d3             	mov    r11,rdx
    6778:	48 8d 34 01          	lea    rsi,[rcx+rax*1]
    677c:	49 c1 cb 12          	ror    r11,0x12
    6780:	48 89 d1             	mov    rcx,rdx
    6783:	48 c1 c9 0e          	ror    rcx,0xe
    6787:	4c 89 d8             	mov    rax,r11
    678a:	4d 89 c3             	mov    r11,r8
    678d:	48 31 c8             	xor    rax,rcx
    6790:	48 89 d1             	mov    rcx,rdx
    6793:	48 c1 c1 17          	rol    rcx,0x17
    6797:	49 c1 cb 1c          	ror    r11,0x1c
    679b:	48 31 c1             	xor    rcx,rax
    679e:	4c 89 d8             	mov    rax,r11
    67a1:	4d 89 c3             	mov    r11,r8
    67a4:	49 c1 c3 1e          	rol    r11,0x1e
    67a8:	48 01 f1             	add    rcx,rsi
    67ab:	4c 89 de             	mov    rsi,r11
    67ae:	4d 89 c3             	mov    r11,r8
    67b1:	48 01 cf             	add    rdi,rcx
    67b4:	48 31 c6             	xor    rsi,rax
    67b7:	49 c1 c3 19          	rol    r11,0x19
    67bb:	4c 31 de             	xor    rsi,r11
    67be:	4d 89 cb             	mov    r11,r9
    67c1:	4d 09 c3             	or     r11,r8
    67c4:	4c 89 d8             	mov    rax,r11
    67c7:	4d 89 cb             	mov    r11,r9
    67ca:	4d 21 c3             	and    r11,r8
    67cd:	4c 21 d0             	and    rax,r10
    67d0:	4c 09 d8             	or     rax,r11
    67d3:	48 01 f0             	add    rax,rsi
    67d6:	48 8b 74 24 38       	mov    rsi,QWORD PTR [rsp+0x38]
    67db:	48 01 c8             	add    rax,rcx
    67de:	49 89 f3             	mov    r11,rsi
    67e1:	48 89 f1             	mov    rcx,rsi
    67e4:	49 d1 cb             	ror    r11,1
    67e7:	48 c1 c9 08          	ror    rcx,0x8
    67eb:	4c 31 d9             	xor    rcx,r11
    67ee:	49 89 f3             	mov    r11,rsi
    67f1:	48 89 ee             	mov    rsi,rbp
    67f4:	49 c1 eb 07          	shr    r11,0x7
    67f8:	48 c1 ce 13          	ror    rsi,0x13
    67fc:	4c 31 d9             	xor    rcx,r11
    67ff:	4e 8d 1c 39          	lea    r11,[rcx+r15*1]
    6803:	48 8b 4c 24 28       	mov    rcx,QWORD PTR [rsp+0x28]
    6808:	4d 89 c7             	mov    r15,r8
    680b:	4c 01 d9             	add    rcx,r11
    680e:	49 89 eb             	mov    r11,rbp
    6811:	49 c1 c3 03          	rol    r11,0x3
    6815:	49 31 f3             	xor    r11,rsi
    6818:	48 89 ee             	mov    rsi,rbp
    681b:	48 c1 ee 06          	shr    rsi,0x6
    681f:	49 31 f3             	xor    r11,rsi
    6822:	4c 89 f6             	mov    rsi,r14
    6825:	48 31 d6             	xor    rsi,rdx
    6828:	49 01 cb             	add    r11,rcx
    682b:	48 89 f1             	mov    rcx,rsi
    682e:	48 be ba 6f 17 72 aa 	movabs rsi,0x6f067aa72176fba
    6835:	67 f0 06 
    6838:	4c 89 9c 24 10 01 00 	mov    QWORD PTR [rsp+0x110],r11
    683f:	00 
    6840:	4c 01 de             	add    rsi,r11
    6843:	48 21 f9             	and    rcx,rdi
    6846:	4c 31 f1             	xor    rcx,r14
    6849:	49 01 f5             	add    r13,rsi
    684c:	48 89 fe             	mov    rsi,rdi
    684f:	49 01 cd             	add    r13,rcx
    6852:	48 c1 ce 0e          	ror    rsi,0xe
    6856:	49 21 c7             	and    r15,rax
    6859:	48 89 f1             	mov    rcx,rsi
    685c:	48 89 fe             	mov    rsi,rdi
    685f:	48 c1 ce 12          	ror    rsi,0x12
    6863:	48 31 ce             	xor    rsi,rcx
    6866:	48 89 f9             	mov    rcx,rdi
    6869:	48 c1 c1 17          	rol    rcx,0x17
    686d:	48 31 f1             	xor    rcx,rsi
    6870:	48 89 c6             	mov    rsi,rax
    6873:	4c 01 e9             	add    rcx,r13
    6876:	49 89 c5             	mov    r13,rax
    6879:	48 c1 ce 1c          	ror    rsi,0x1c
    687d:	49 c1 c5 1e          	rol    r13,0x1e
    6881:	49 01 ca             	add    r10,rcx
    6884:	49 31 f5             	xor    r13,rsi
    6887:	48 89 c6             	mov    rsi,rax
    688a:	48 c1 c6 19          	rol    rsi,0x19
    688e:	49 31 f5             	xor    r13,rsi
    6891:	4c 89 c6             	mov    rsi,r8
    6894:	48 09 c6             	or     rsi,rax
    6897:	4c 21 ce             	and    rsi,r9
    689a:	4c 09 fe             	or     rsi,r15
    689d:	4c 8b 7c 24 08       	mov    r15,QWORD PTR [rsp+0x8]
    68a2:	4c 01 ee             	add    rsi,r13
    68a5:	48 01 ce             	add    rsi,rcx
    68a8:	4d 89 fd             	mov    r13,r15
    68ab:	4c 89 f9             	mov    rcx,r15
    68ae:	49 d1 cd             	ror    r13,1
    68b1:	48 c1 c9 08          	ror    rcx,0x8
    68b5:	4c 31 e9             	xor    rcx,r13
    68b8:	4d 89 fd             	mov    r13,r15
    68bb:	49 89 df             	mov    r15,rbx
    68be:	49 c1 ed 07          	shr    r13,0x7
    68c2:	49 c1 cf 13          	ror    r15,0x13
    68c6:	4c 31 e9             	xor    rcx,r13
    68c9:	49 89 dd             	mov    r13,rbx
    68cc:	48 03 4c 24 38       	add    rcx,QWORD PTR [rsp+0x38]
    68d1:	48 03 4c 24 50       	add    rcx,QWORD PTR [rsp+0x50]
    68d6:	49 c1 c5 03          	rol    r13,0x3
    68da:	4d 31 fd             	xor    r13,r15
    68dd:	49 89 df             	mov    r15,rbx
    68e0:	49 c1 ef 06          	shr    r15,0x6
    68e4:	4d 31 fd             	xor    r13,r15
    68e7:	4e 8d 3c 29          	lea    r15,[rcx+r13*1]
    68eb:	48 89 d1             	mov    rcx,rdx
    68ee:	48 31 f9             	xor    rcx,rdi
    68f1:	49 89 cd             	mov    r13,rcx
    68f4:	48 b9 a6 98 c8 a2 c5 	movabs rcx,0xa637dc5a2c898a6
    68fb:	7d 63 0a 
    68fe:	4c 89 7c 24 38       	mov    QWORD PTR [rsp+0x38],r15
    6903:	4d 21 d5             	and    r13,r10
    6906:	4c 01 f9             	add    rcx,r15
    6909:	4c 89 bc 24 18 01 00 	mov    QWORD PTR [rsp+0x118],r15
    6910:	00 
    6911:	49 01 ce             	add    r14,rcx
    6914:	4c 89 d1             	mov    rcx,r10
    6917:	49 31 d5             	xor    r13,rdx
    691a:	48 c1 c9 0e          	ror    rcx,0xe
    691e:	4d 01 ee             	add    r14,r13
    6921:	49 89 c7             	mov    r15,rax
    6924:	49 89 cd             	mov    r13,rcx
    6927:	4c 89 d1             	mov    rcx,r10
    692a:	49 21 f7             	and    r15,rsi
    692d:	48 c1 c9 12          	ror    rcx,0x12
    6931:	4c 31 e9             	xor    rcx,r13
    6934:	4d 89 d5             	mov    r13,r10
    6937:	49 c1 c5 17          	rol    r13,0x17
    693b:	49 31 cd             	xor    r13,rcx
    693e:	48 89 f1             	mov    rcx,rsi
    6941:	4d 01 f5             	add    r13,r14
    6944:	49 89 f6             	mov    r14,rsi
    6947:	48 c1 c9 1c          	ror    rcx,0x1c
    694b:	49 c1 c6 1e          	rol    r14,0x1e
    694f:	4d 01 e9             	add    r9,r13
    6952:	49 31 ce             	xor    r14,rcx
    6955:	48 89 f1             	mov    rcx,rsi
    6958:	48 c1 c1 19          	rol    rcx,0x19
    695c:	49 31 ce             	xor    r14,rcx
    695f:	48 89 c1             	mov    rcx,rax
    6962:	48 09 f1             	or     rcx,rsi
    6965:	4c 21 c1             	and    rcx,r8
    6968:	4c 09 f9             	or     rcx,r15
    696b:	4c 8b 7c 24 70       	mov    r15,QWORD PTR [rsp+0x70]
    6970:	4c 01 f1             	add    rcx,r14
    6973:	4c 01 e9             	add    rcx,r13
    6976:	4d 89 fe             	mov    r14,r15
    6979:	4d 89 fd             	mov    r13,r15
    697c:	49 d1 ce             	ror    r14,1
    697f:	49 c1 cd 08          	ror    r13,0x8
    6983:	4d 31 f5             	xor    r13,r14
    6986:	4d 89 fe             	mov    r14,r15
    6989:	4d 89 df             	mov    r15,r11
    698c:	49 c1 ee 07          	shr    r14,0x7
    6990:	49 c1 cf 13          	ror    r15,0x13
    6994:	4d 31 f5             	xor    r13,r14
    6997:	4d 89 de             	mov    r14,r11
    699a:	4c 03 6c 24 08       	add    r13,QWORD PTR [rsp+0x8]
    699f:	4c 03 6c 24 30       	add    r13,QWORD PTR [rsp+0x30]
    69a4:	49 c1 c6 03          	rol    r14,0x3
    69a8:	4d 31 fe             	xor    r14,r15
    69ab:	4d 89 df             	mov    r15,r11
    69ae:	49 c1 ef 06          	shr    r15,0x6
    69b2:	4d 31 fe             	xor    r14,r15
    69b5:	49 bf ae 0d f9 be 04 	movabs r15,0x113f9804bef90dae
    69bc:	98 3f 11 
    69bf:	4d 01 f5             	add    r13,r14
    69c2:	4d 89 ee             	mov    r14,r13
    69c5:	4c 89 ac 24 20 01 00 	mov    QWORD PTR [rsp+0x120],r13
    69cc:	00 
    69cd:	49 89 fd             	mov    r13,rdi
    69d0:	4d 31 d5             	xor    r13,r10
    69d3:	4d 01 f7             	add    r15,r14
    69d6:	4c 89 74 24 08       	mov    QWORD PTR [rsp+0x8],r14
    69db:	4d 21 cd             	and    r13,r9
    69de:	4c 01 fa             	add    rdx,r15
    69e1:	49 89 cf             	mov    r15,rcx
    69e4:	49 31 fd             	xor    r13,rdi
    69e7:	49 c1 c7 1e          	rol    r15,0x1e
    69eb:	4d 8d 74 15 00       	lea    r14,[r13+rdx*1+0x0]
    69f0:	4c 89 ca             	mov    rdx,r9
    69f3:	48 c1 ca 0e          	ror    rdx,0xe
    69f7:	49 89 d5             	mov    r13,rdx
    69fa:	4c 89 ca             	mov    rdx,r9
    69fd:	48 c1 ca 12          	ror    rdx,0x12
    6a01:	4c 31 ea             	xor    rdx,r13
    6a04:	4d 89 cd             	mov    r13,r9
    6a07:	49 c1 c5 17          	rol    r13,0x17
    6a0b:	49 31 d5             	xor    r13,rdx
    6a0e:	48 89 ca             	mov    rdx,rcx
    6a11:	4d 01 f5             	add    r13,r14
    6a14:	48 c1 ca 1c          	ror    rdx,0x1c
    6a18:	4d 89 fe             	mov    r14,r15
    6a1b:	49 31 d6             	xor    r14,rdx
    6a1e:	48 89 ca             	mov    rdx,rcx
    6a21:	49 89 f7             	mov    r15,rsi
    6a24:	48 c1 c2 19          	rol    rdx,0x19
    6a28:	49 21 cf             	and    r15,rcx
    6a2b:	4d 01 e8             	add    r8,r13
    6a2e:	49 31 d6             	xor    r14,rdx
    6a31:	48 89 f2             	mov    rdx,rsi
    6a34:	48 09 ca             	or     rdx,rcx
    6a37:	48 21 c2             	and    rdx,rax
    6a3a:	4c 09 fa             	or     rdx,r15
    6a3d:	4c 8b 3c 24          	mov    r15,QWORD PTR [rsp]
    6a41:	4c 01 f2             	add    rdx,r14
    6a44:	4c 01 ea             	add    rdx,r13
    6a47:	4d 89 fe             	mov    r14,r15
    6a4a:	4d 89 fd             	mov    r13,r15
    6a4d:	49 d1 ce             	ror    r14,1
    6a50:	49 c1 cd 08          	ror    r13,0x8
    6a54:	4d 31 f5             	xor    r13,r14
    6a57:	4d 89 fe             	mov    r14,r15
    6a5a:	49 c1 ee 07          	shr    r14,0x7
    6a5e:	4d 31 f5             	xor    r13,r14
    6a61:	4c 8b 74 24 38       	mov    r14,QWORD PTR [rsp+0x38]
    6a66:	4c 03 6c 24 70       	add    r13,QWORD PTR [rsp+0x70]
    6a6b:	4c 03 6c 24 58       	add    r13,QWORD PTR [rsp+0x58]
    6a70:	4d 89 f7             	mov    r15,r14
    6a73:	49 c1 c6 03          	rol    r14,0x3
    6a77:	49 c1 cf 13          	ror    r15,0x13
    6a7b:	4d 31 fe             	xor    r14,r15
    6a7e:	4c 8b 7c 24 38       	mov    r15,QWORD PTR [rsp+0x38]
    6a83:	49 c1 ef 06          	shr    r15,0x6
    6a87:	4d 31 fe             	xor    r14,r15
    6a8a:	4d 01 f5             	add    r13,r14
    6a8d:	49 be 1b 47 1c 13 35 	movabs r14,0x1b710b35131c471b
    6a94:	0b 71 1b 
    6a97:	4d 89 ef             	mov    r15,r13
    6a9a:	4c 89 ac 24 28 01 00 	mov    QWORD PTR [rsp+0x128],r13
    6aa1:	00 
    6aa2:	4d 89 d5             	mov    r13,r10
    6aa5:	4d 31 cd             	xor    r13,r9
    6aa8:	4d 01 fe             	add    r14,r15
    6aab:	4c 89 7c 24 40       	mov    QWORD PTR [rsp+0x40],r15
    6ab0:	4d 21 c5             	and    r13,r8
    6ab3:	4c 01 f7             	add    rdi,r14
    6ab6:	4d 89 c7             	mov    r15,r8
    6ab9:	4d 31 d5             	xor    r13,r10
    6abc:	49 c1 c7 17          	rol    r15,0x17
    6ac0:	4c 01 ef             	add    rdi,r13
    6ac3:	4d 89 c5             	mov    r13,r8
    6ac6:	49 c1 cd 0e          	ror    r13,0xe
    6aca:	4d 89 ee             	mov    r14,r13
    6acd:	4d 89 c5             	mov    r13,r8
    6ad0:	49 c1 cd 12          	ror    r13,0x12
    6ad4:	4d 31 f5             	xor    r13,r14
    6ad7:	4d 31 fd             	xor    r13,r15
    6ada:	49 89 d7             	mov    r15,rdx
    6add:	49 01 fd             	add    r13,rdi
    6ae0:	49 c1 c7 19          	rol    r15,0x19
    6ae4:	4a 8d 3c 28          	lea    rdi,[rax+r13*1]
    6ae8:	48 89 d0             	mov    rax,rdx
    6aeb:	48 c1 c8 1c          	ror    rax,0x1c
    6aef:	49 89 c6             	mov    r14,rax
    6af2:	48 89 d0             	mov    rax,rdx
    6af5:	48 c1 c0 1e          	rol    rax,0x1e
    6af9:	4c 31 f0             	xor    rax,r14
    6afc:	4c 31 f8             	xor    rax,r15
    6aff:	49 89 cf             	mov    r15,rcx
    6b02:	49 09 d7             	or     r15,rdx
    6b05:	4d 89 fe             	mov    r14,r15
    6b08:	49 89 cf             	mov    r15,rcx
    6b0b:	49 21 d7             	and    r15,rdx
    6b0e:	49 21 f6             	and    r14,rsi
    6b11:	4d 09 fe             	or     r14,r15
    6b14:	4c 8b 7c 24 10       	mov    r15,QWORD PTR [rsp+0x10]
    6b19:	49 01 c6             	add    r14,rax
    6b1c:	4d 01 f5             	add    r13,r14
    6b1f:	4c 89 f8             	mov    rax,r15
    6b22:	4d 89 fe             	mov    r14,r15
    6b25:	49 d1 ce             	ror    r14,1
    6b28:	48 c1 c8 08          	ror    rax,0x8
    6b2c:	4c 31 f0             	xor    rax,r14
    6b2f:	4d 89 fe             	mov    r14,r15
    6b32:	49 c1 ee 07          	shr    r14,0x7
    6b36:	4c 31 f0             	xor    rax,r14
    6b39:	48 03 04 24          	add    rax,QWORD PTR [rsp]
    6b3d:	49 01 c4             	add    r12,rax
    6b40:	48 8b 44 24 08       	mov    rax,QWORD PTR [rsp+0x8]
    6b45:	49 89 c7             	mov    r15,rax
    6b48:	49 c1 cf 13          	ror    r15,0x13
    6b4c:	4d 89 fe             	mov    r14,r15
    6b4f:	49 89 c7             	mov    r15,rax
    6b52:	48 c1 c0 03          	rol    rax,0x3
    6b56:	4c 31 f0             	xor    rax,r14
    6b59:	49 c1 ef 06          	shr    r15,0x6
    6b5d:	49 be 84 7d 04 23 f5 	movabs r14,0x28db77f523047d84
    6b64:	77 db 28 
    6b67:	4c 31 f8             	xor    rax,r15
    6b6a:	4d 8d 3c 04          	lea    r15,[r12+rax*1]
    6b6e:	4d 89 cc             	mov    r12,r9
    6b71:	4d 31 c4             	xor    r12,r8
    6b74:	4c 89 e0             	mov    rax,r12
    6b77:	4d 01 fe             	add    r14,r15
    6b7a:	4c 89 bc 24 30 01 00 	mov    QWORD PTR [rsp+0x130],r15
    6b81:	00 
    6b82:	48 21 f8             	and    rax,rdi
    6b85:	4d 01 f2             	add    r10,r14
    6b88:	49 89 d6             	mov    r14,rdx
    6b8b:	4c 31 c8             	xor    rax,r9
    6b8e:	4d 21 ee             	and    r14,r13
    6b91:	4e 8d 24 10          	lea    r12,[rax+r10*1]
    6b95:	49 89 fa             	mov    r10,rdi
    6b98:	49 c1 ca 0e          	ror    r10,0xe
    6b9c:	4c 89 d0             	mov    rax,r10
    6b9f:	49 89 fa             	mov    r10,rdi
    6ba2:	49 c1 ca 12          	ror    r10,0x12
    6ba6:	49 31 c2             	xor    r10,rax
    6ba9:	48 89 f8             	mov    rax,rdi
    6bac:	48 c1 c0 17          	rol    rax,0x17
    6bb0:	4c 31 d0             	xor    rax,r10
    6bb3:	4d 89 ea             	mov    r10,r13
    6bb6:	4c 01 e0             	add    rax,r12
    6bb9:	4d 89 ec             	mov    r12,r13
    6bbc:	49 c1 ca 1c          	ror    r10,0x1c
    6bc0:	49 c1 c4 1e          	rol    r12,0x1e
    6bc4:	48 01 c6             	add    rsi,rax
    6bc7:	4d 31 d4             	xor    r12,r10
    6bca:	4d 89 ea             	mov    r10,r13
    6bcd:	49 c1 c2 19          	rol    r10,0x19
    6bd1:	4d 31 d4             	xor    r12,r10
    6bd4:	49 89 d2             	mov    r10,rdx
    6bd7:	4d 09 ea             	or     r10,r13
    6bda:	49 21 ca             	and    r10,rcx
    6bdd:	4d 09 f2             	or     r10,r14
    6be0:	4c 8b 74 24 18       	mov    r14,QWORD PTR [rsp+0x18]
    6be5:	4d 01 e2             	add    r10,r12
    6be8:	49 01 c2             	add    r10,rax
    6beb:	4d 89 f4             	mov    r12,r14
    6bee:	4c 89 f0             	mov    rax,r14
    6bf1:	49 d1 cc             	ror    r12,1
    6bf4:	48 c1 c8 08          	ror    rax,0x8
    6bf8:	4c 31 e0             	xor    rax,r12
    6bfb:	4d 89 f4             	mov    r12,r14
    6bfe:	49 c1 ec 07          	shr    r12,0x7
    6c02:	4c 31 e0             	xor    rax,r12
    6c05:	48 03 44 24 10       	add    rax,QWORD PTR [rsp+0x10]
    6c0a:	4c 8b 74 24 40       	mov    r14,QWORD PTR [rsp+0x40]
    6c0f:	4d 89 f4             	mov    r12,r14
    6c12:	48 01 e8             	add    rax,rbp
    6c15:	4c 89 f5             	mov    rbp,r14
    6c18:	49 c1 cc 13          	ror    r12,0x13
    6c1c:	48 c1 c5 03          	rol    rbp,0x3
    6c20:	4c 31 e5             	xor    rbp,r12
    6c23:	4d 89 f4             	mov    r12,r14
    6c26:	49 be 93 24 c7 40 7b 	movabs r14,0x32caab7b40c72493
    6c2d:	ab ca 32 
    6c30:	49 c1 ec 06          	shr    r12,0x6
    6c34:	4c 31 e5             	xor    rbp,r12
    6c37:	48 01 c5             	add    rbp,rax
    6c3a:	4c 89 c0             	mov    rax,r8
    6c3d:	48 31 f8             	xor    rax,rdi
    6c40:	49 01 ee             	add    r14,rbp
    6c43:	48 89 ac 24 38 01 00 	mov    QWORD PTR [rsp+0x138],rbp
    6c4a:	00 
    6c4b:	48 21 f0             	and    rax,rsi
    6c4e:	4d 01 f1             	add    r9,r14
    6c51:	4d 89 ee             	mov    r14,r13
    6c54:	4c 31 c0             	xor    rax,r8
    6c57:	4e 8d 24 08          	lea    r12,[rax+r9*1]
    6c5b:	49 89 f1             	mov    r9,rsi
    6c5e:	49 c1 c9 0e          	ror    r9,0xe
    6c62:	4c 89 c8             	mov    rax,r9
    6c65:	49 89 f1             	mov    r9,rsi
    6c68:	49 c1 c9 12          	ror    r9,0x12
    6c6c:	49 31 c1             	xor    r9,rax
    6c6f:	48 89 f0             	mov    rax,rsi
    6c72:	48 c1 c0 17          	rol    rax,0x17
    6c76:	4c 31 c8             	xor    rax,r9
    6c79:	4d 89 d1             	mov    r9,r10
    6c7c:	4c 01 e0             	add    rax,r12
    6c7f:	4d 89 d4             	mov    r12,r10
    6c82:	49 c1 c9 1c          	ror    r9,0x1c
    6c86:	49 c1 c4 1e          	rol    r12,0x1e
    6c8a:	48 01 c1             	add    rcx,rax
    6c8d:	4d 31 cc             	xor    r12,r9
    6c90:	4d 89 d1             	mov    r9,r10
    6c93:	49 c1 c1 19          	rol    r9,0x19
    6c97:	4d 31 cc             	xor    r12,r9
    6c9a:	4d 89 e9             	mov    r9,r13
    6c9d:	4d 09 d1             	or     r9,r10
    6ca0:	4d 21 d6             	and    r14,r10
    6ca3:	49 21 d1             	and    r9,rdx
    6ca6:	4d 09 f1             	or     r9,r14
    6ca9:	4c 8b 74 24 20       	mov    r14,QWORD PTR [rsp+0x20]
    6cae:	4d 01 e1             	add    r9,r12
    6cb1:	49 01 c1             	add    r9,rax
    6cb4:	4d 89 f4             	mov    r12,r14
    6cb7:	4c 89 f0             	mov    rax,r14
    6cba:	49 d1 cc             	ror    r12,1
    6cbd:	48 c1 c8 08          	ror    rax,0x8
    6cc1:	4c 31 e0             	xor    rax,r12
    6cc4:	4d 89 f4             	mov    r12,r14
    6cc7:	4d 89 d6             	mov    r14,r10
    6cca:	49 c1 ec 07          	shr    r12,0x7
    6cce:	4c 31 e0             	xor    rax,r12
    6cd1:	48 03 44 24 18       	add    rax,QWORD PTR [rsp+0x18]
    6cd6:	4d 89 fc             	mov    r12,r15
    6cd9:	49 c1 cc 13          	ror    r12,0x13
    6cdd:	48 01 d8             	add    rax,rbx
    6ce0:	4c 89 fb             	mov    rbx,r15
    6ce3:	48 c1 c3 03          	rol    rbx,0x3
    6ce7:	4c 31 e3             	xor    rbx,r12
    6cea:	4d 89 fc             	mov    r12,r15
    6ced:	49 c1 ec 06          	shr    r12,0x6
    6cf1:	4c 31 e3             	xor    rbx,r12
    6cf4:	49 bc bc be c9 15 0a 	movabs r12,0x3c9ebe0a15c9bebc
    6cfb:	be 9e 3c 
    6cfe:	48 01 c3             	add    rbx,rax
    6d01:	48 89 f8             	mov    rax,rdi
    6d04:	48 31 f0             	xor    rax,rsi
    6d07:	49 01 dc             	add    r12,rbx
    6d0a:	48 89 9c 24 40 01 00 	mov    QWORD PTR [rsp+0x140],rbx
    6d11:	00 
    6d12:	48 21 c8             	and    rax,rcx
    6d15:	4d 01 e0             	add    r8,r12
    6d18:	48 31 f8             	xor    rax,rdi
    6d1b:	4a 8d 04 00          	lea    rax,[rax+r8*1]
    6d1f:	49 89 c8             	mov    r8,rcx
    6d22:	49 c1 c8 0e          	ror    r8,0xe
    6d26:	4d 89 c4             	mov    r12,r8
    6d29:	49 89 c8             	mov    r8,rcx
    6d2c:	49 c1 c8 12          	ror    r8,0x12
    6d30:	4d 31 e0             	xor    r8,r12
    6d33:	49 89 cc             	mov    r12,rcx
    6d36:	49 c1 c4 17          	rol    r12,0x17
    6d3a:	4d 31 e0             	xor    r8,r12
    6d3d:	49 01 c0             	add    r8,rax
    6d40:	4c 89 c8             	mov    rax,r9
    6d43:	48 c1 c8 1c          	ror    rax,0x1c
    6d47:	4c 01 c2             	add    rdx,r8
    6d4a:	49 89 c4             	mov    r12,rax
    6d4d:	4c 89 c8             	mov    rax,r9
    6d50:	48 c1 c0 1e          	rol    rax,0x1e
    6d54:	4d 21 ce             	and    r14,r9
    6d57:	4c 31 e0             	xor    rax,r12
    6d5a:	4d 89 cc             	mov    r12,r9
    6d5d:	49 c1 c4 19          	rol    r12,0x19
    6d61:	4c 31 e0             	xor    rax,r12
    6d64:	4d 89 d4             	mov    r12,r10
    6d67:	4d 09 cc             	or     r12,r9
    6d6a:	4d 21 ec             	and    r12,r13
    6d6d:	4d 09 f4             	or     r12,r14
    6d70:	4c 8b 74 24 48       	mov    r14,QWORD PTR [rsp+0x48]
    6d75:	49 01 c4             	add    r12,rax
    6d78:	4d 01 e0             	add    r8,r12
    6d7b:	4c 89 f0             	mov    rax,r14
    6d7e:	4d 89 f4             	mov    r12,r14
    6d81:	49 d1 cc             	ror    r12,1
    6d84:	48 c1 c8 08          	ror    rax,0x8
    6d88:	4c 31 e0             	xor    rax,r12
    6d8b:	4d 89 f4             	mov    r12,r14
    6d8e:	49 c1 ec 07          	shr    r12,0x7
    6d92:	4c 31 e0             	xor    rax,r12
    6d95:	48 03 44 24 20       	add    rax,QWORD PTR [rsp+0x20]
    6d9a:	4c 01 d8             	add    rax,r11
    6d9d:	49 89 eb             	mov    r11,rbp
    6da0:	49 c1 cb 13          	ror    r11,0x13
    6da4:	4d 89 dc             	mov    r12,r11
    6da7:	49 89 eb             	mov    r11,rbp
    6daa:	48 c1 ed 06          	shr    rbp,0x6
    6dae:	49 c1 c3 03          	rol    r11,0x3
    6db2:	4d 31 e3             	xor    r11,r12
    6db5:	4d 89 cc             	mov    r12,r9
    6db8:	49 31 eb             	xor    r11,rbp
    6dbb:	48 bd 4c 0d 10 9c c4 	movabs rbp,0x431d67c49c100d4c
    6dc2:	67 1d 43 
    6dc5:	49 01 c3             	add    r11,rax
    6dc8:	48 89 f0             	mov    rax,rsi
    6dcb:	48 31 c8             	xor    rax,rcx
    6dce:	4c 01 dd             	add    rbp,r11
    6dd1:	4c 89 9c 24 48 01 00 	mov    QWORD PTR [rsp+0x148],r11
    6dd8:	00 
    6dd9:	48 21 d0             	and    rax,rdx
    6ddc:	48 01 ef             	add    rdi,rbp
    6ddf:	48 31 f0             	xor    rax,rsi
    6de2:	48 01 c7             	add    rdi,rax
    6de5:	48 89 d0             	mov    rax,rdx
    6de8:	48 c1 c8 0e          	ror    rax,0xe
    6dec:	48 89 c5             	mov    rbp,rax
    6def:	48 89 d0             	mov    rax,rdx
    6df2:	48 c1 c8 12          	ror    rax,0x12
    6df6:	48 31 e8             	xor    rax,rbp
    6df9:	48 89 d5             	mov    rbp,rdx
    6dfc:	48 c1 c5 17          	rol    rbp,0x17
    6e00:	4d 21 c4             	and    r12,r8
    6e03:	48 31 e8             	xor    rax,rbp
    6e06:	48 01 f8             	add    rax,rdi
    6e09:	4c 89 c7             	mov    rdi,r8
    6e0c:	48 c1 cf 1c          	ror    rdi,0x1c
    6e10:	49 01 c5             	add    r13,rax
    6e13:	48 89 fd             	mov    rbp,rdi
    6e16:	4c 89 c7             	mov    rdi,r8
    6e19:	48 c1 c7 1e          	rol    rdi,0x1e
    6e1d:	48 31 ef             	xor    rdi,rbp
    6e20:	4c 89 c5             	mov    rbp,r8
    6e23:	48 c1 c5 19          	rol    rbp,0x19
    6e27:	48 31 ef             	xor    rdi,rbp
    6e2a:	4c 89 cd             	mov    rbp,r9
    6e2d:	4c 09 c5             	or     rbp,r8
    6e30:	4c 21 d5             	and    rbp,r10
    6e33:	4c 09 e5             	or     rbp,r12
    6e36:	4c 8b 64 24 28       	mov    r12,QWORD PTR [rsp+0x28]
    6e3b:	48 01 fd             	add    rbp,rdi
    6e3e:	48 01 e8             	add    rax,rbp
    6e41:	4c 89 e7             	mov    rdi,r12
    6e44:	4c 89 e5             	mov    rbp,r12
    6e47:	48 d1 cd             	ror    rbp,1
    6e4a:	48 c1 cf 08          	ror    rdi,0x8
    6e4e:	48 31 ef             	xor    rdi,rbp
    6e51:	4c 89 e5             	mov    rbp,r12
    6e54:	48 c1 ed 07          	shr    rbp,0x7
    6e58:	48 31 ef             	xor    rdi,rbp
    6e5b:	4c 01 f7             	add    rdi,r14
    6e5e:	4c 8b 74 24 38       	mov    r14,QWORD PTR [rsp+0x38]
    6e63:	4a 8d 2c 37          	lea    rbp,[rdi+r14*1]
    6e67:	48 89 df             	mov    rdi,rbx
    6e6a:	48 c1 cf 13          	ror    rdi,0x13
    6e6e:	49 89 fc             	mov    r12,rdi
    6e71:	48 89 df             	mov    rdi,rbx
    6e74:	48 c1 eb 06          	shr    rbx,0x6
    6e78:	48 c1 c7 03          	rol    rdi,0x3
    6e7c:	4c 31 e7             	xor    rdi,r12
    6e7f:	4d 89 c4             	mov    r12,r8
    6e82:	48 31 df             	xor    rdi,rbx
    6e85:	48 89 cb             	mov    rbx,rcx
    6e88:	48 01 ef             	add    rdi,rbp
    6e8b:	48 31 d3             	xor    rbx,rdx
    6e8e:	48 bd b6 42 3e cb be 	movabs rbp,0x4cc5d4becb3e42b6
    6e95:	d4 c5 4c 
    6e98:	48 01 fd             	add    rbp,rdi
    6e9b:	4c 21 eb             	and    rbx,r13
    6e9e:	48 89 bc 24 50 01 00 	mov    QWORD PTR [rsp+0x150],rdi
    6ea5:	00 
    6ea6:	48 31 cb             	xor    rbx,rcx
    6ea9:	48 01 ee             	add    rsi,rbp
    6eac:	48 01 de             	add    rsi,rbx
    6eaf:	4c 89 eb             	mov    rbx,r13
    6eb2:	49 21 c4             	and    r12,rax
    6eb5:	48 c1 cb 0e          	ror    rbx,0xe
    6eb9:	48 89 dd             	mov    rbp,rbx
    6ebc:	4c 89 eb             	mov    rbx,r13
    6ebf:	48 c1 cb 12          	ror    rbx,0x12
    6ec3:	48 31 eb             	xor    rbx,rbp
    6ec6:	4c 89 ed             	mov    rbp,r13
    6ec9:	48 c1 c5 17          	rol    rbp,0x17
    6ecd:	48 31 eb             	xor    rbx,rbp
    6ed0:	48 01 f3             	add    rbx,rsi
    6ed3:	48 89 c6             	mov    rsi,rax
    6ed6:	48 c1 ce 1c          	ror    rsi,0x1c
    6eda:	49 01 da             	add    r10,rbx
    6edd:	48 89 f5             	mov    rbp,rsi
    6ee0:	48 89 c6             	mov    rsi,rax
    6ee3:	48 c1 c6 1e          	rol    rsi,0x1e
    6ee7:	48 31 ee             	xor    rsi,rbp
    6eea:	48 89 c5             	mov    rbp,rax
    6eed:	48 c1 c5 19          	rol    rbp,0x19
    6ef1:	48 31 ee             	xor    rsi,rbp
    6ef4:	4c 89 c5             	mov    rbp,r8
    6ef7:	48 09 c5             	or     rbp,rax
    6efa:	4c 21 cd             	and    rbp,r9
    6efd:	4c 09 e5             	or     rbp,r12
    6f00:	4c 8b 64 24 50       	mov    r12,QWORD PTR [rsp+0x50]
    6f05:	48 01 f5             	add    rbp,rsi
    6f08:	48 01 eb             	add    rbx,rbp
    6f0b:	4c 89 dd             	mov    rbp,r11
    6f0e:	4c 89 e6             	mov    rsi,r12
    6f11:	4d 89 e6             	mov    r14,r12
    6f14:	48 c1 cd 13          	ror    rbp,0x13
    6f18:	48 d1 ce             	ror    rsi,1
    6f1b:	49 c1 ce 08          	ror    r14,0x8
    6f1f:	49 31 f6             	xor    r14,rsi
    6f22:	4c 89 e6             	mov    rsi,r12
    6f25:	4c 8b 64 24 58       	mov    r12,QWORD PTR [rsp+0x58]
    6f2a:	48 c1 ee 07          	shr    rsi,0x7
    6f2e:	49 31 f6             	xor    r14,rsi
    6f31:	4c 03 74 24 28       	add    r14,QWORD PTR [rsp+0x28]
    6f36:	4c 89 de             	mov    rsi,r11
    6f39:	4c 03 74 24 08       	add    r14,QWORD PTR [rsp+0x8]
    6f3e:	48 c1 c6 03          	rol    rsi,0x3
    6f42:	49 c1 eb 06          	shr    r11,0x6
    6f46:	48 31 ee             	xor    rsi,rbp
    6f49:	48 bd 2a 7e 65 fc 9c 	movabs rbp,0x597f299cfc657e2a
    6f50:	29 7f 59 
    6f53:	49 31 f3             	xor    r11,rsi
    6f56:	48 89 d6             	mov    rsi,rdx
    6f59:	4d 01 f3             	add    r11,r14
    6f5c:	4c 31 ee             	xor    rsi,r13
    6f5f:	49 89 c6             	mov    r14,rax
    6f62:	4c 01 dd             	add    rbp,r11
    6f65:	4c 21 d6             	and    rsi,r10
    6f68:	49 21 de             	and    r14,rbx
    6f6b:	48 31 d6             	xor    rsi,rdx
    6f6e:	48 01 e9             	add    rcx,rbp
    6f71:	4c 89 d5             	mov    rbp,r10
    6f74:	48 01 f1             	add    rcx,rsi
    6f77:	4c 89 d6             	mov    rsi,r10
    6f7a:	48 c1 cd 0e          	ror    rbp,0xe
    6f7e:	48 c1 ce 12          	ror    rsi,0x12
    6f82:	4c 89 9c 24 58 01 00 	mov    QWORD PTR [rsp+0x158],r11
    6f89:	00 
    6f8a:	48 31 ee             	xor    rsi,rbp
    6f8d:	4c 89 d5             	mov    rbp,r10
    6f90:	48 c1 c5 17          	rol    rbp,0x17
    6f94:	48 31 ee             	xor    rsi,rbp
    6f97:	48 89 dd             	mov    rbp,rbx
    6f9a:	48 01 ce             	add    rsi,rcx
    6f9d:	48 89 d9             	mov    rcx,rbx
    6fa0:	48 c1 cd 1c          	ror    rbp,0x1c
    6fa4:	48 c1 c1 1e          	rol    rcx,0x1e
    6fa8:	49 01 f1             	add    r9,rsi
    6fab:	48 31 e9             	xor    rcx,rbp
    6fae:	48 89 dd             	mov    rbp,rbx
    6fb1:	48 c1 c5 19          	rol    rbp,0x19
    6fb5:	48 31 e9             	xor    rcx,rbp
    6fb8:	48 89 c5             	mov    rbp,rax
    6fbb:	48 09 dd             	or     rbp,rbx
    6fbe:	4c 21 c5             	and    rbp,r8
    6fc1:	4c 09 f5             	or     rbp,r14
    6fc4:	4c 8b 74 24 30       	mov    r14,QWORD PTR [rsp+0x30]
    6fc9:	48 01 cd             	add    rbp,rcx
    6fcc:	48 01 ee             	add    rsi,rbp
    6fcf:	4c 89 f1             	mov    rcx,r14
    6fd2:	4c 89 f5             	mov    rbp,r14
    6fd5:	48 d1 cd             	ror    rbp,1
    6fd8:	48 c1 c9 08          	ror    rcx,0x8
    6fdc:	48 31 e9             	xor    rcx,rbp
    6fdf:	4c 89 f5             	mov    rbp,r14
    6fe2:	48 c1 ed 07          	shr    rbp,0x7
    6fe6:	48 31 e9             	xor    rcx,rbp
    6fe9:	48 03 4c 24 50       	add    rcx,QWORD PTR [rsp+0x50]
    6fee:	48 8b 6c 24 40       	mov    rbp,QWORD PTR [rsp+0x40]
    6ff3:	4c 8d 34 29          	lea    r14,[rcx+rbp*1]
    6ff7:	48 89 f9             	mov    rcx,rdi
    6ffa:	48 c1 c9 13          	ror    rcx,0x13
    6ffe:	48 89 cd             	mov    rbp,rcx
    7001:	48 89 f9             	mov    rcx,rdi
    7004:	48 c1 c1 03          	rol    rcx,0x3
    7008:	48 31 e9             	xor    rcx,rbp
    700b:	48 c1 ef 06          	shr    rdi,0x6
    700f:	48 89 dd             	mov    rbp,rbx
    7012:	48 31 f9             	xor    rcx,rdi
    7015:	48 bf ec fa d6 3a ab 	movabs rdi,0x5fcb6fab3ad6faec
    701c:	6f cb 5f 
    701f:	48 21 f5             	and    rbp,rsi
    7022:	49 01 ce             	add    r14,rcx
    7025:	4c 89 e9             	mov    rcx,r13
    7028:	4c 31 d1             	xor    rcx,r10
    702b:	4c 89 b4 24 60 01 00 	mov    QWORD PTR [rsp+0x160],r14
    7032:	00 
    7033:	49 01 fe             	add    r14,rdi
    7036:	4c 21 c9             	and    rcx,r9
    7039:	4c 01 f2             	add    rdx,r14
    703c:	4c 89 cf             	mov    rdi,r9
    703f:	4c 31 e9             	xor    rcx,r13
    7042:	48 c1 cf 0e          	ror    rdi,0xe
    7046:	48 01 d1             	add    rcx,rdx
    7049:	4c 89 ca             	mov    rdx,r9
    704c:	48 c1 ca 12          	ror    rdx,0x12
    7050:	48 31 fa             	xor    rdx,rdi
    7053:	4c 89 cf             	mov    rdi,r9
    7056:	48 c1 c7 17          	rol    rdi,0x17
    705a:	48 31 fa             	xor    rdx,rdi
    705d:	48 89 f7             	mov    rdi,rsi
    7060:	48 01 ca             	add    rdx,rcx
    7063:	48 89 f1             	mov    rcx,rsi
    7066:	48 c1 cf 1c          	ror    rdi,0x1c
    706a:	48 c1 c1 1e          	rol    rcx,0x1e
    706e:	49 01 d0             	add    r8,rdx
    7071:	48 31 f9             	xor    rcx,rdi
    7074:	48 89 f7             	mov    rdi,rsi
    7077:	48 c1 c7 19          	rol    rdi,0x19
    707b:	48 31 f9             	xor    rcx,rdi
    707e:	48 89 df             	mov    rdi,rbx
    7081:	48 09 f7             	or     rdi,rsi
    7084:	48 21 c7             	and    rdi,rax
    7087:	48 09 ef             	or     rdi,rbp
    708a:	48 89 f5             	mov    rbp,rsi
    708d:	48 01 cf             	add    rdi,rcx
    7090:	4c 89 e1             	mov    rcx,r12
    7093:	48 01 fa             	add    rdx,rdi
    7096:	4c 89 e7             	mov    rdi,r12
    7099:	48 d1 c9             	ror    rcx,1
    709c:	48 c1 cf 08          	ror    rdi,0x8
    70a0:	48 31 cf             	xor    rdi,rcx
    70a3:	4c 89 e1             	mov    rcx,r12
    70a6:	48 c1 e9 07          	shr    rcx,0x7
    70aa:	48 31 cf             	xor    rdi,rcx
    70ad:	48 03 7c 24 30       	add    rdi,QWORD PTR [rsp+0x30]
    70b2:	4c 89 d9             	mov    rcx,r11
    70b5:	48 c1 c1 03          	rol    rcx,0x3
    70b9:	48 21 d5             	and    rbp,rdx
    70bc:	48 01 94 24 90 00 00 	add    QWORD PTR [rsp+0x90],rdx
    70c3:	00 
    70c4:	4e 8d 24 3f          	lea    r12,[rdi+r15*1]
    70c8:	4d 89 df             	mov    r15,r11
    70cb:	49 c1 eb 06          	shr    r11,0x6
    70cf:	49 c1 cf 13          	ror    r15,0x13
    70d3:	48 bf 17 58 47 4a 8c 	movabs rdi,0x6c44198c4a475817
    70da:	19 44 6c 
    70dd:	4c 31 f9             	xor    rcx,r15
    70e0:	4c 31 d9             	xor    rcx,r11
    70e3:	49 89 d3             	mov    r11,rdx
    70e6:	49 01 cc             	add    r12,rcx
    70e9:	4c 89 d1             	mov    rcx,r10
    70ec:	49 c1 cb 1c          	ror    r11,0x1c
    70f0:	4c 31 c9             	xor    rcx,r9
    70f3:	4c 89 a4 24 68 01 00 	mov    QWORD PTR [rsp+0x168],r12
    70fa:	00 
    70fb:	49 01 fc             	add    r12,rdi
    70fe:	4c 21 c1             	and    rcx,r8
    7101:	4d 01 e5             	add    r13,r12
    7104:	4c 89 c7             	mov    rdi,r8
    7107:	4c 31 d1             	xor    rcx,r10
    710a:	48 c1 cf 0e          	ror    rdi,0xe
    710e:	49 01 cd             	add    r13,rcx
    7111:	4c 89 c1             	mov    rcx,r8
    7114:	48 c1 c9 12          	ror    rcx,0x12
    7118:	48 31 f9             	xor    rcx,rdi
    711b:	4c 89 c7             	mov    rdi,r8
    711e:	48 c1 c7 17          	rol    rdi,0x17
    7122:	48 31 f9             	xor    rcx,rdi
    7125:	48 89 d7             	mov    rdi,rdx
    7128:	48 c1 c7 1e          	rol    rdi,0x1e
    712c:	4c 01 e9             	add    rcx,r13
    712f:	4c 31 df             	xor    rdi,r11
    7132:	49 89 d3             	mov    r11,rdx
    7135:	49 c1 c3 19          	rol    r11,0x19
    7139:	4c 31 df             	xor    rdi,r11
    713c:	49 89 f3             	mov    r11,rsi
    713f:	49 09 d3             	or     r11,rdx
    7142:	49 21 db             	and    r11,rbx
    7145:	49 09 eb             	or     r11,rbp
    7148:	48 8b ac 24 90 00 00 	mov    rbp,QWORD PTR [rsp+0x90]
    714f:	00 
    7150:	4c 01 df             	add    rdi,r11
    7153:	48 03 bc 24 d0 00 00 	add    rdi,QWORD PTR [rsp+0xd0]
    715a:	00 
    715b:	4c 8d 3c 0f          	lea    r15,[rdi+rcx*1]
    715f:	48 8b bc 24 e0 00 00 	mov    rdi,QWORD PTR [rsp+0xe0]
    7166:	00 
    7167:	4c 89 bc 24 d0 00 00 	mov    QWORD PTR [rsp+0xd0],r15
    716e:	00 
    716f:	4c 89 3f             	mov    QWORD PTR [rdi],r15
    7172:	48 89 6f 08          	mov    QWORD PTR [rdi+0x8],rbp
    7176:	48 89 fa             	mov    rdx,rdi
    7179:	48 01 b4 24 98 00 00 	add    QWORD PTR [rsp+0x98],rsi
    7180:	00 
    7181:	4c 8b ac 24 98 00 00 	mov    r13,QWORD PTR [rsp+0x98]
    7188:	00 
    7189:	48 01 c8             	add    rax,rcx
    718c:	48 01 9c 24 a0 00 00 	add    QWORD PTR [rsp+0xa0],rbx
    7193:	00 
    7194:	48 89 d3             	mov    rbx,rdx
    7197:	48 01 84 24 a8 00 00 	add    QWORD PTR [rsp+0xa8],rax
    719e:	00 
    719f:	4c 89 f8             	mov    rax,r15
    71a2:	4c 89 6f 10          	mov    QWORD PTR [rdi+0x10],r13
    71a6:	48 8b bc 24 a0 00 00 	mov    rdi,QWORD PTR [rsp+0xa0]
    71ad:	00 
    71ae:	4c 01 84 24 b0 00 00 	add    QWORD PTR [rsp+0xb0],r8
    71b5:	00 
    71b6:	4c 01 8c 24 b8 00 00 	add    QWORD PTR [rsp+0xb8],r9
    71bd:	00 
    71be:	48 8b b4 24 a8 00 00 	mov    rsi,QWORD PTR [rsp+0xa8]
    71c5:	00 
    71c6:	4c 8b a4 24 b0 00 00 	mov    r12,QWORD PTR [rsp+0xb0]
    71cd:	00 
    71ce:	4c 01 94 24 c0 00 00 	add    QWORD PTR [rsp+0xc0],r10
    71d5:	00 
    71d6:	48 89 fa             	mov    rdx,rdi
    71d9:	48 89 7b 18          	mov    QWORD PTR [rbx+0x18],rdi
    71dd:	49 89 d0             	mov    r8,rdx
    71e0:	49 89 f1             	mov    r9,rsi
    71e3:	48 8b bc 24 b8 00 00 	mov    rdi,QWORD PTR [rsp+0xb8]
    71ea:	00 
    71eb:	4c 8b 94 24 c0 00 00 	mov    r10,QWORD PTR [rsp+0xc0]
    71f2:	00 
    71f3:	48 89 73 20          	mov    QWORD PTR [rbx+0x20],rsi
    71f7:	4c 89 63 28          	mov    QWORD PTR [rbx+0x28],r12
    71fb:	48 89 7b 30          	mov    QWORD PTR [rbx+0x30],rdi
    71ff:	4c 89 53 38          	mov    QWORD PTR [rbx+0x38],r10
    7203:	48 8b 9c 24 88 00 00 	mov    rbx,QWORD PTR [rsp+0x88]
    720a:	00 
    720b:	48 39 9c 24 d8 00 00 	cmp    QWORD PTR [rsp+0xd8],rbx
    7212:	00 
    7213:	0f 87 f7 c3 ff ff    	ja     3610 <sha512_process_block+0xe0>
    7219:	48 8b 84 24 78 01 00 	mov    rax,QWORD PTR [rsp+0x178]
    7220:	00 
    7221:	64 48 33 04 25 28 00 	xor    rax,QWORD PTR fs:0x28
    7228:	00 00 
    722a:	75 12                	jne    723e <sha512_process_block+0x3d0e>
    722c:	48 81 c4 88 01 00 00 	add    rsp,0x188
    7233:	5b                   	pop    rbx
    7234:	5d                   	pop    rbp
    7235:	41 5c                	pop    r12
    7237:	41 5d                	pop    r13
    7239:	41 5e                	pop    r14
    723b:	41 5f                	pop    r15
    723d:	c3                   	ret    
    723e:	e8 4d a4 ff ff       	call   1690 <__stack_chk_fail@plt>
    7243:	0f 1f 00             	nop    DWORD PTR [rax]
    7246:	66 2e 0f 1f 84 00 00 	nop    WORD PTR cs:[rax+rax*1+0x0]
    724d:	00 00 00 

0000000000007250 <sha512_conclude_ctx>:
    7250:	41 54                	push   r12
    7252:	55                   	push   rbp
    7253:	53                   	push   rbx
    7254:	48 8b 57 50          	mov    rdx,QWORD PTR [rdi+0x50]
    7258:	48 89 fb             	mov    rbx,rdi
    725b:	48 8b 43 48          	mov    rax,QWORD PTR [rbx+0x48]
    725f:	48 83 fa 70          	cmp    rdx,0x70
    7263:	48 89 d1             	mov    rcx,rdx
    7266:	48 19 ed             	sbb    rbp,rbp
    7269:	48 83 e5 80          	and    rbp,0xffffffffffffff80
    726d:	48 81 c5 00 01 00 00 	add    rbp,0x100
    7274:	48 83 fa 70          	cmp    rdx,0x70
    7278:	48 19 f6             	sbb    rsi,rsi
    727b:	48 83 e6 f0          	and    rsi,0xfffffffffffffff0
    727f:	48 83 c6 1f          	add    rsi,0x1f
    7283:	48 83 fa 70          	cmp    rdx,0x70
    7287:	48 19 ff             	sbb    rdi,rdi
    728a:	45 31 c0             	xor    r8d,r8d
    728d:	48 83 e7 f0          	and    rdi,0xfffffffffffffff0
    7291:	48 83 c7 1e          	add    rdi,0x1e
    7295:	48 03 4b 40          	add    rcx,QWORD PTR [rbx+0x40]
    7299:	41 0f 92 c0          	setb   r8b
    729d:	48 89 4b 40          	mov    QWORD PTR [rbx+0x40],rcx
    72a1:	4d 85 c0             	test   r8,r8
    72a4:	74 08                	je     72ae <sha512_conclude_ctx+0x5e>
    72a6:	48 83 c0 01          	add    rax,0x1
    72aa:	48 89 43 48          	mov    QWORD PTR [rbx+0x48],rax
    72ae:	49 89 c8             	mov    r8,rcx
    72b1:	48 c1 e0 03          	shl    rax,0x3
    72b5:	4c 8d 63 58          	lea    r12,[rbx+0x58]
    72b9:	49 c1 e8 3d          	shr    r8,0x3d
    72bd:	48 c1 e1 03          	shl    rcx,0x3
    72c1:	4c 09 c0             	or     rax,r8
    72c4:	48 0f c9             	bswap  rcx
    72c7:	48 0f c8             	bswap  rax
    72ca:	48 89 44 fb 58       	mov    QWORD PTR [rbx+rdi*8+0x58],rax
    72cf:	48 89 e8             	mov    rax,rbp
    72d2:	49 8d 3c 14          	lea    rdi,[r12+rdx*1]
    72d6:	48 29 d0             	sub    rax,rdx
    72d9:	48 89 4c f3 58       	mov    QWORD PTR [rbx+rsi*8+0x58],rcx
    72de:	48 8d 35 7b 3f 00 00 	lea    rsi,[rip+0x3f7b]        # b260 <fillbuf>
    72e5:	48 8d 50 f0          	lea    rdx,[rax-0x10]
    72e9:	e8 82 a4 ff ff       	call   1770 <memcpy@plt>
    72ee:	48 89 da             	mov    rdx,rbx
    72f1:	48 89 ee             	mov    rsi,rbp
    72f4:	4c 89 e7             	mov    rdi,r12
    72f7:	5b                   	pop    rbx
    72f8:	5d                   	pop    rbp
    72f9:	41 5c                	pop    r12
    72fb:	e9 30 c2 ff ff       	jmp    3530 <sha512_process_block>

0000000000007300 <sha512_finish_ctx>:
    7300:	55                   	push   rbp
    7301:	53                   	push   rbx
    7302:	48 89 f5             	mov    rbp,rsi
    7305:	48 89 fb             	mov    rbx,rdi
    7308:	48 83 ec 08          	sub    rsp,0x8
    730c:	e8 3f ff ff ff       	call   7250 <sha512_conclude_ctx>
    7311:	48 83 c4 08          	add    rsp,0x8
    7315:	48 89 ee             	mov    rsi,rbp
    7318:	48 89 df             	mov    rdi,rbx
    731b:	5b                   	pop    rbx
    731c:	5d                   	pop    rbp
    731d:	e9 ce c1 ff ff       	jmp    34f0 <sha512_read_ctx>
    7322:	0f 1f 40 00          	nop    DWORD PTR [rax+0x0]
    7326:	66 2e 0f 1f 84 00 00 	nop    WORD PTR cs:[rax+rax*1+0x0]
    732d:	00 00 00 

0000000000007330 <sha384_finish_ctx>:
    7330:	55                   	push   rbp
    7331:	53                   	push   rbx
    7332:	48 89 f5             	mov    rbp,rsi
    7335:	48 89 fb             	mov    rbx,rdi
    7338:	48 83 ec 08          	sub    rsp,0x8
    733c:	e8 0f ff ff ff       	call   7250 <sha512_conclude_ctx>
    7341:	48 83 c4 08          	add    rsp,0x8
    7345:	48 89 ee             	mov    rsi,rbp
    7348:	48 89 df             	mov    rdi,rbx
    734b:	5b                   	pop    rbx
    734c:	5d                   	pop    rbp
    734d:	e9 be c1 ff ff       	jmp    3510 <sha384_read_ctx>
    7352:	0f 1f 40 00          	nop    DWORD PTR [rax+0x0]
    7356:	66 2e 0f 1f 84 00 00 	nop    WORD PTR cs:[rax+rax*1+0x0]
    735d:	00 00 00 

0000000000007360 <sha512_process_bytes>:
    7360:	41 57                	push   r15
    7362:	41 56                	push   r14
    7364:	41 55                	push   r13
    7366:	41 54                	push   r12
    7368:	49 89 d5             	mov    r13,rdx
    736b:	55                   	push   rbp
    736c:	53                   	push   rbx
    736d:	49 89 f4             	mov    r12,rsi
    7370:	48 89 fb             	mov    rbx,rdi
    7373:	48 83 ec 08          	sub    rsp,0x8
    7377:	48 8b 6a 50          	mov    rbp,QWORD PTR [rdx+0x50]
    737b:	48 85 ed             	test   rbp,rbp
    737e:	0f 85 34 01 00 00    	jne    74b8 <sha512_process_bytes+0x158>
    7384:	49 83 fc 7f          	cmp    r12,0x7f
    7388:	0f 86 0e 01 00 00    	jbe    749c <sha512_process_bytes+0x13c>
    738e:	f6 c3 07             	test   bl,0x7
    7391:	0f 84 e9 00 00 00    	je     7480 <sha512_process_bytes+0x120>
    7397:	49 81 fc 80 00 00 00 	cmp    r12,0x80
    739e:	49 8d 6d 58          	lea    rbp,[r13+0x58]
    73a2:	0f 84 84 00 00 00    	je     742c <sha512_process_bytes+0xcc>
    73a8:	4d 8d bc 24 7f ff ff 	lea    r15,[r12-0x81]
    73af:	ff 
    73b0:	49 c1 ef 07          	shr    r15,0x7
    73b4:	4d 8d 77 01          	lea    r14,[r15+0x1]
    73b8:	49 c1 e6 07          	shl    r14,0x7
    73bc:	49 01 de             	add    r14,rbx
    73bf:	90                   	nop
    73c0:	f3 0f 6f 03          	movdqu xmm0,XMMWORD PTR [rbx]
    73c4:	4c 89 ea             	mov    rdx,r13
    73c7:	be 80 00 00 00       	mov    esi,0x80
    73cc:	48 89 ef             	mov    rdi,rbp
    73cf:	48 83 eb 80          	sub    rbx,0xffffffffffffff80
    73d3:	0f 11 45 00          	movups XMMWORD PTR [rbp+0x0],xmm0
    73d7:	f3 0f 6f 43 90       	movdqu xmm0,XMMWORD PTR [rbx-0x70]
    73dc:	0f 11 45 10          	movups XMMWORD PTR [rbp+0x10],xmm0
    73e0:	f3 0f 6f 43 a0       	movdqu xmm0,XMMWORD PTR [rbx-0x60]
    73e5:	0f 11 45 20          	movups XMMWORD PTR [rbp+0x20],xmm0
    73e9:	f3 0f 6f 43 b0       	movdqu xmm0,XMMWORD PTR [rbx-0x50]
    73ee:	0f 11 45 30          	movups XMMWORD PTR [rbp+0x30],xmm0
    73f2:	f3 0f 6f 43 c0       	movdqu xmm0,XMMWORD PTR [rbx-0x40]
    73f7:	0f 11 45 40          	movups XMMWORD PTR [rbp+0x40],xmm0
    73fb:	f3 0f 6f 43 d0       	movdqu xmm0,XMMWORD PTR [rbx-0x30]
    7400:	0f 11 45 50          	movups XMMWORD PTR [rbp+0x50],xmm0
    7404:	f3 0f 6f 43 e0       	movdqu xmm0,XMMWORD PTR [rbx-0x20]
    7409:	0f 11 45 60          	movups XMMWORD PTR [rbp+0x60],xmm0
    740d:	f3 0f 6f 43 f0       	movdqu xmm0,XMMWORD PTR [rbx-0x10]
    7412:	0f 11 45 70          	movups XMMWORD PTR [rbp+0x70],xmm0
    7416:	e8 15 c1 ff ff       	call   3530 <sha512_process_block>
    741b:	4c 39 f3             	cmp    rbx,r14
    741e:	75 a0                	jne    73c0 <sha512_process_bytes+0x60>
    7420:	49 f7 df             	neg    r15
    7423:	49 c1 e7 07          	shl    r15,0x7
    7427:	4f 8d 64 3c 80       	lea    r12,[r12+r15*1-0x80]
    742c:	49 8b 55 50          	mov    rdx,QWORD PTR [r13+0x50]
    7430:	41 83 fc 08          	cmp    r12d,0x8
    7434:	48 8d 74 15 00       	lea    rsi,[rbp+rdx*1+0x0]
    7439:	0f 83 c1 00 00 00    	jae    7500 <sha512_process_bytes+0x1a0>
    743f:	41 f6 c4 04          	test   r12b,0x4
    7443:	0f 85 e0 01 00 00    	jne    7629 <sha512_process_bytes+0x2c9>
    7449:	45 85 e4             	test   r12d,r12d
    744c:	74 0f                	je     745d <sha512_process_bytes+0xfd>
    744e:	0f b6 03             	movzx  eax,BYTE PTR [rbx]
    7451:	41 f6 c4 02          	test   r12b,0x2
    7455:	88 06                	mov    BYTE PTR [rsi],al
    7457:	0f 85 e0 01 00 00    	jne    763d <sha512_process_bytes+0x2dd>
    745d:	49 01 d4             	add    r12,rdx
    7460:	49 83 fc 7f          	cmp    r12,0x7f
    7464:	0f 87 d3 00 00 00    	ja     753d <sha512_process_bytes+0x1dd>
    746a:	4d 89 65 50          	mov    QWORD PTR [r13+0x50],r12
    746e:	48 83 c4 08          	add    rsp,0x8
    7472:	5b                   	pop    rbx
    7473:	5d                   	pop    rbp
    7474:	41 5c                	pop    r12
    7476:	41 5d                	pop    r13
    7478:	41 5e                	pop    r14
    747a:	41 5f                	pop    r15
    747c:	c3                   	ret    
    747d:	0f 1f 00             	nop    DWORD PTR [rax]
    7480:	4c 89 e5             	mov    rbp,r12
    7483:	48 89 df             	mov    rdi,rbx
    7486:	4c 89 ea             	mov    rdx,r13
    7489:	48 83 e5 80          	and    rbp,0xffffffffffffff80
    748d:	41 83 e4 7f          	and    r12d,0x7f
    7491:	48 89 ee             	mov    rsi,rbp
    7494:	48 01 eb             	add    rbx,rbp
    7497:	e8 94 c0 ff ff       	call   3530 <sha512_process_block>
    749c:	4d 85 e4             	test   r12,r12
    749f:	0f 85 7b 01 00 00    	jne    7620 <sha512_process_bytes+0x2c0>
    74a5:	48 83 c4 08          	add    rsp,0x8
    74a9:	5b                   	pop    rbx
    74aa:	5d                   	pop    rbp
    74ab:	41 5c                	pop    r12
    74ad:	41 5d                	pop    r13
    74af:	41 5e                	pop    r14
    74b1:	41 5f                	pop    r15
    74b3:	c3                   	ret    
    74b4:	0f 1f 40 00          	nop    DWORD PTR [rax+0x0]
    74b8:	41 be 00 01 00 00    	mov    r14d,0x100
    74be:	4c 8d 7a 58          	lea    r15,[rdx+0x58]
    74c2:	49 29 ee             	sub    r14,rbp
    74c5:	49 39 f6             	cmp    r14,rsi
    74c8:	49 8d 3c 2f          	lea    rdi,[r15+rbp*1]
    74cc:	4c 0f 47 f6          	cmova  r14,rsi
    74d0:	48 89 de             	mov    rsi,rbx
    74d3:	4c 89 f2             	mov    rdx,r14
    74d6:	e8 95 a2 ff ff       	call   1770 <memcpy@plt>
    74db:	49 8b 75 50          	mov    rsi,QWORD PTR [r13+0x50]
    74df:	4c 01 f6             	add    rsi,r14
    74e2:	48 81 fe 80 00 00 00 	cmp    rsi,0x80
    74e9:	49 89 75 50          	mov    QWORD PTR [r13+0x50],rsi
    74ed:	0f 87 7d 00 00 00    	ja     7570 <sha512_process_bytes+0x210>
    74f3:	4c 01 f3             	add    rbx,r14
    74f6:	4d 29 f4             	sub    r12,r14
    74f9:	e9 86 fe ff ff       	jmp    7384 <sha512_process_bytes+0x24>
    74fe:	66 90                	xchg   ax,ax
    7500:	48 8b 03             	mov    rax,QWORD PTR [rbx]
    7503:	48 8d 7e 08          	lea    rdi,[rsi+0x8]
    7507:	48 83 e7 f8          	and    rdi,0xfffffffffffffff8
    750b:	48 89 06             	mov    QWORD PTR [rsi],rax
    750e:	44 89 e0             	mov    eax,r12d
    7511:	48 8b 4c 03 f8       	mov    rcx,QWORD PTR [rbx+rax*1-0x8]
    7516:	48 89 4c 06 f8       	mov    QWORD PTR [rsi+rax*1-0x8],rcx
    751b:	48 89 f1             	mov    rcx,rsi
    751e:	48 89 de             	mov    rsi,rbx
    7521:	48 29 f9             	sub    rcx,rdi
    7524:	48 29 ce             	sub    rsi,rcx
    7527:	44 01 e1             	add    ecx,r12d
    752a:	49 01 d4             	add    r12,rdx
    752d:	c1 e9 03             	shr    ecx,0x3
    7530:	49 83 fc 7f          	cmp    r12,0x7f
    7534:	f3 48 a5             	rep movs QWORD PTR es:[rdi],QWORD PTR ds:[rsi]
    7537:	0f 86 2d ff ff ff    	jbe    746a <sha512_process_bytes+0x10a>
    753d:	4c 89 ea             	mov    rdx,r13
    7540:	48 89 ef             	mov    rdi,rbp
    7543:	be 80 00 00 00       	mov    esi,0x80
    7548:	e8 e3 bf ff ff       	call   3530 <sha512_process_block>
    754d:	49 83 c4 80          	add    r12,0xffffffffffffff80
    7551:	49 8d b5 d8 00 00 00 	lea    rsi,[r13+0xd8]
    7558:	48 89 ef             	mov    rdi,rbp
    755b:	4c 89 e2             	mov    rdx,r12
    755e:	e8 0d a2 ff ff       	call   1770 <memcpy@plt>
    7563:	e9 02 ff ff ff       	jmp    746a <sha512_process_bytes+0x10a>
    7568:	0f 1f 84 00 00 00 00 	nop    DWORD PTR [rax+rax*1+0x0]
    756f:	00 
    7570:	48 83 e6 80          	and    rsi,0xffffffffffffff80
    7574:	4c 89 ea             	mov    rdx,r13
    7577:	4c 89 ff             	mov    rdi,r15
    757a:	e8 b1 bf ff ff       	call   3530 <sha512_process_block>
    757f:	49 8b 4d 50          	mov    rcx,QWORD PTR [r13+0x50]
    7583:	4c 01 f5             	add    rbp,r14
    7586:	48 83 e5 80          	and    rbp,0xffffffffffffff80
    758a:	49 8d 34 2f          	lea    rsi,[r15+rbp*1]
    758e:	83 e1 7f             	and    ecx,0x7f
    7591:	83 f9 08             	cmp    ecx,0x8
    7594:	49 89 4d 50          	mov    QWORD PTR [r13+0x50],rcx
    7598:	73 36                	jae    75d0 <sha512_process_bytes+0x270>
    759a:	f6 c1 04             	test   cl,0x4
    759d:	75 66                	jne    7605 <sha512_process_bytes+0x2a5>
    759f:	85 c9                	test   ecx,ecx
    75a1:	0f 84 4c ff ff ff    	je     74f3 <sha512_process_bytes+0x193>
    75a7:	0f b6 06             	movzx  eax,BYTE PTR [rsi]
    75aa:	f6 c1 02             	test   cl,0x2
    75ad:	41 88 45 58          	mov    BYTE PTR [r13+0x58],al
    75b1:	0f 84 3c ff ff ff    	je     74f3 <sha512_process_bytes+0x193>
    75b7:	89 c9                	mov    ecx,ecx
    75b9:	0f b7 44 0e fe       	movzx  eax,WORD PTR [rsi+rcx*1-0x2]
    75be:	66 41 89 44 0f fe    	mov    WORD PTR [r15+rcx*1-0x2],ax
    75c4:	e9 2a ff ff ff       	jmp    74f3 <sha512_process_bytes+0x193>
    75c9:	0f 1f 80 00 00 00 00 	nop    DWORD PTR [rax+0x0]
    75d0:	48 8b 06             	mov    rax,QWORD PTR [rsi]
    75d3:	49 8d 7d 60          	lea    rdi,[r13+0x60]
    75d7:	48 83 e7 f8          	and    rdi,0xfffffffffffffff8
    75db:	49 89 45 58          	mov    QWORD PTR [r13+0x58],rax
    75df:	89 c8                	mov    eax,ecx
    75e1:	48 8b 54 06 f8       	mov    rdx,QWORD PTR [rsi+rax*1-0x8]
    75e6:	49 89 54 07 f8       	mov    QWORD PTR [r15+rax*1-0x8],rdx
    75eb:	4c 89 f8             	mov    rax,r15
    75ee:	48 29 f8             	sub    rax,rdi
    75f1:	01 c1                	add    ecx,eax
    75f3:	48 29 c6             	sub    rsi,rax
    75f6:	89 c8                	mov    eax,ecx
    75f8:	c1 e8 03             	shr    eax,0x3
    75fb:	89 c1                	mov    ecx,eax
    75fd:	f3 48 a5             	rep movs QWORD PTR es:[rdi],QWORD PTR ds:[rsi]
    7600:	e9 ee fe ff ff       	jmp    74f3 <sha512_process_bytes+0x193>
    7605:	8b 06                	mov    eax,DWORD PTR [rsi]
    7607:	89 c9                	mov    ecx,ecx
    7609:	41 89 45 58          	mov    DWORD PTR [r13+0x58],eax
    760d:	8b 44 0e fc          	mov    eax,DWORD PTR [rsi+rcx*1-0x4]
    7611:	41 89 44 0f fc       	mov    DWORD PTR [r15+rcx*1-0x4],eax
    7616:	e9 d8 fe ff ff       	jmp    74f3 <sha512_process_bytes+0x193>
    761b:	0f 1f 44 00 00       	nop    DWORD PTR [rax+rax*1+0x0]
    7620:	49 8d 6d 58          	lea    rbp,[r13+0x58]
    7624:	e9 03 fe ff ff       	jmp    742c <sha512_process_bytes+0xcc>
    7629:	8b 03                	mov    eax,DWORD PTR [rbx]
    762b:	89 06                	mov    DWORD PTR [rsi],eax
    762d:	44 89 e0             	mov    eax,r12d
    7630:	8b 4c 03 fc          	mov    ecx,DWORD PTR [rbx+rax*1-0x4]
    7634:	89 4c 06 fc          	mov    DWORD PTR [rsi+rax*1-0x4],ecx
    7638:	e9 20 fe ff ff       	jmp    745d <sha512_process_bytes+0xfd>
    763d:	44 89 e0             	mov    eax,r12d
    7640:	0f b7 4c 03 fe       	movzx  ecx,WORD PTR [rbx+rax*1-0x2]
    7645:	66 89 4c 06 fe       	mov    WORD PTR [rsi+rax*1-0x2],cx
    764a:	e9 0e fe ff ff       	jmp    745d <sha512_process_bytes+0xfd>
    764f:	90                   	nop

0000000000007650 <sha512_buffer>:
    7650:	55                   	push   rbp
    7651:	53                   	push   rbx
    7652:	48 89 d5             	mov    rbp,rdx
    7655:	48 81 ec 68 01 00 00 	sub    rsp,0x168
    765c:	64 48 8b 04 25 28 00 	mov    rax,QWORD PTR fs:0x28
    7663:	00 00 
    7665:	48 89 84 24 58 01 00 	mov    QWORD PTR [rsp+0x158],rax
    766c:	00 
    766d:	31 c0                	xor    eax,eax
    766f:	48 b8 08 c9 bc f3 67 	movabs rax,0x6a09e667f3bcc908
    7676:	e6 09 6a 
    7679:	48 89 e3             	mov    rbx,rsp
    767c:	48 c7 44 24 48 00 00 	mov    QWORD PTR [rsp+0x48],0x0
    7683:	00 00 
    7685:	48 89 04 24          	mov    QWORD PTR [rsp],rax
    7689:	48 b8 3b a7 ca 84 85 	movabs rax,0xbb67ae8584caa73b
    7690:	ae 67 bb 
    7693:	48 89 da             	mov    rdx,rbx
    7696:	48 89 44 24 08       	mov    QWORD PTR [rsp+0x8],rax
    769b:	48 b8 2b f8 94 fe 72 	movabs rax,0x3c6ef372fe94f82b
    76a2:	f3 6e 3c 
    76a5:	48 c7 44 24 40 00 00 	mov    QWORD PTR [rsp+0x40],0x0
    76ac:	00 00 
    76ae:	48 89 44 24 10       	mov    QWORD PTR [rsp+0x10],rax
    76b3:	48 b8 f1 36 1d 5f 3a 	movabs rax,0xa54ff53a5f1d36f1
    76ba:	f5 4f a5 
    76bd:	48 c7 44 24 50 00 00 	mov    QWORD PTR [rsp+0x50],0x0
    76c4:	00 00 
    76c6:	48 89 44 24 18       	mov    QWORD PTR [rsp+0x18],rax
    76cb:	48 b8 d1 82 e6 ad 7f 	movabs rax,0x510e527fade682d1
    76d2:	52 0e 51 
    76d5:	48 89 44 24 20       	mov    QWORD PTR [rsp+0x20],rax
    76da:	48 b8 1f 6c 3e 2b 8c 	movabs rax,0x9b05688c2b3e6c1f
    76e1:	68 05 9b 
    76e4:	48 89 44 24 28       	mov    QWORD PTR [rsp+0x28],rax
    76e9:	48 b8 6b bd 41 fb ab 	movabs rax,0x1f83d9abfb41bd6b
    76f0:	d9 83 1f 
    76f3:	48 89 44 24 30       	mov    QWORD PTR [rsp+0x30],rax
    76f8:	48 b8 79 21 7e 13 19 	movabs rax,0x5be0cd19137e2179
    76ff:	cd e0 5b 
    7702:	48 89 44 24 38       	mov    QWORD PTR [rsp+0x38],rax
    7707:	e8 54 fc ff ff       	call   7360 <sha512_process_bytes>
    770c:	48 89 df             	mov    rdi,rbx
    770f:	e8 3c fb ff ff       	call   7250 <sha512_conclude_ctx>
    7714:	48 89 ee             	mov    rsi,rbp
    7717:	48 89 df             	mov    rdi,rbx
    771a:	e8 d1 bd ff ff       	call   34f0 <sha512_read_ctx>
    771f:	48 8b 8c 24 58 01 00 	mov    rcx,QWORD PTR [rsp+0x158]
    7726:	00 
    7727:	64 48 33 0c 25 28 00 	xor    rcx,QWORD PTR fs:0x28
    772e:	00 00 
    7730:	75 0a                	jne    773c <sha512_buffer+0xec>
    7732:	48 81 c4 68 01 00 00 	add    rsp,0x168
    7739:	5b                   	pop    rbx
    773a:	5d                   	pop    rbp
    773b:	c3                   	ret    
    773c:	e8 4f 9f ff ff       	call   1690 <__stack_chk_fail@plt>
    7741:	0f 1f 44 00 00       	nop    DWORD PTR [rax+rax*1+0x0]
    7746:	66 2e 0f 1f 84 00 00 	nop    WORD PTR cs:[rax+rax*1+0x0]
    774d:	00 00 00 

0000000000007750 <sha384_buffer>:
    7750:	55                   	push   rbp
    7751:	53                   	push   rbx
    7752:	48 89 d5             	mov    rbp,rdx
    7755:	48 81 ec 68 01 00 00 	sub    rsp,0x168
    775c:	64 48 8b 04 25 28 00 	mov    rax,QWORD PTR fs:0x28
    7763:	00 00 
    7765:	48 89 84 24 58 01 00 	mov    QWORD PTR [rsp+0x158],rax
    776c:	00 
    776d:	31 c0                	xor    eax,eax
    776f:	48 b8 d8 9e 05 c1 5d 	movabs rax,0xcbbb9d5dc1059ed8
    7776:	9d bb cb 
    7779:	48 89 e3             	mov    rbx,rsp
    777c:	48 c7 44 24 48 00 00 	mov    QWORD PTR [rsp+0x48],0x0
    7783:	00 00 
    7785:	48 89 04 24          	mov    QWORD PTR [rsp],rax
    7789:	48 b8 07 d5 7c 36 2a 	movabs rax,0x629a292a367cd507
    7790:	29 9a 62 
    7793:	48 89 da             	mov    rdx,rbx
    7796:	48 89 44 24 08       	mov    QWORD PTR [rsp+0x8],rax
    779b:	48 b8 17 dd 70 30 5a 	movabs rax,0x9159015a3070dd17
    77a2:	01 59 91 
    77a5:	48 c7 44 24 40 00 00 	mov    QWORD PTR [rsp+0x40],0x0
    77ac:	00 00 
    77ae:	48 89 44 24 10       	mov    QWORD PTR [rsp+0x10],rax
    77b3:	48 b8 39 59 0e f7 d8 	movabs rax,0x152fecd8f70e5939
    77ba:	ec 2f 15 
    77bd:	48 c7 44 24 50 00 00 	mov    QWORD PTR [rsp+0x50],0x0
    77c4:	00 00 
    77c6:	48 89 44 24 18       	mov    QWORD PTR [rsp+0x18],rax
    77cb:	48 b8 31 0b c0 ff 67 	movabs rax,0x67332667ffc00b31
    77d2:	26 33 67 
    77d5:	48 89 44 24 20       	mov    QWORD PTR [rsp+0x20],rax
    77da:	48 b8 11 15 58 68 87 	movabs rax,0x8eb44a8768581511
    77e1:	4a b4 8e 
    77e4:	48 89 44 24 28       	mov    QWORD PTR [rsp+0x28],rax
    77e9:	48 b8 a7 8f f9 64 0d 	movabs rax,0xdb0c2e0d64f98fa7
    77f0:	2e 0c db 
    77f3:	48 89 44 24 30       	mov    QWORD PTR [rsp+0x30],rax
    77f8:	48 b8 a4 4f fa be 1d 	movabs rax,0x47b5481dbefa4fa4
    77ff:	48 b5 47 
    7802:	48 89 44 24 38       	mov    QWORD PTR [rsp+0x38],rax
    7807:	e8 54 fb ff ff       	call   7360 <sha512_process_bytes>
    780c:	48 89 df             	mov    rdi,rbx
    780f:	e8 3c fa ff ff       	call   7250 <sha512_conclude_ctx>
    7814:	48 89 ee             	mov    rsi,rbp
    7817:	48 89 df             	mov    rdi,rbx
    781a:	e8 f1 bc ff ff       	call   3510 <sha384_read_ctx>
    781f:	48 8b 8c 24 58 01 00 	mov    rcx,QWORD PTR [rsp+0x158]
    7826:	00 
    7827:	64 48 33 0c 25 28 00 	xor    rcx,QWORD PTR fs:0x28
    782e:	00 00 
    7830:	75 0a                	jne    783c <sha384_buffer+0xec>
    7832:	48 81 c4 68 01 00 00 	add    rsp,0x168
    7839:	5b                   	pop    rbx
    783a:	5d                   	pop    rbp
    783b:	c3                   	ret    
    783c:	e8 4f 9e ff ff       	call   1690 <__stack_chk_fail@plt>
    7841:	0f 1f 44 00 00       	nop    DWORD PTR [rax+rax*1+0x0]
    7846:	66 2e 0f 1f 84 00 00 	nop    WORD PTR cs:[rax+rax*1+0x0]
    784d:	00 00 00 

0000000000007850 <shaxxx_stream.isra.1>:
    7850:	41 57                	push   r15
    7852:	41 56                	push   r14
    7854:	49 89 ce             	mov    r14,rcx
    7857:	41 55                	push   r13
    7859:	41 54                	push   r12
    785b:	49 89 d4             	mov    r12,rdx
    785e:	55                   	push   rbp
    785f:	53                   	push   rbx
    7860:	48 89 fb             	mov    rbx,rdi
    7863:	bf 48 80 00 00       	mov    edi,0x8048
    7868:	48 81 ec 78 01 00 00 	sub    rsp,0x178
    786f:	64 48 8b 04 25 28 00 	mov    rax,QWORD PTR fs:0x28
    7876:	00 00 
    7878:	48 89 84 24 68 01 00 	mov    QWORD PTR [rsp+0x168],rax
    787f:	00 
    7880:	31 c0                	xor    eax,eax
    7882:	48 89 74 24 08       	mov    QWORD PTR [rsp+0x8],rsi
    7887:	e8 04 9f ff ff       	call   1790 <malloc@plt>
    788c:	48 85 c0             	test   rax,rax
    788f:	0f 84 cb 00 00 00    	je     7960 <shaxxx_stream.isra.1+0x110>
    7895:	4c 8d 6c 24 10       	lea    r13,[rsp+0x10]
    789a:	48 89 c5             	mov    rbp,rax
    789d:	4c 89 ef             	mov    rdi,r13
    78a0:	41 ff d4             	call   r12
    78a3:	41 bc 00 80 00 00    	mov    r12d,0x8000
    78a9:	45 31 ff             	xor    r15d,r15d
    78ac:	eb 2b                	jmp    78d9 <shaxxx_stream.isra.1+0x89>
    78ae:	66 90                	xchg   ax,ax
    78b0:	4a 8d 7c 3d 00       	lea    rdi,[rbp+r15*1+0x0]
    78b5:	4c 89 e2             	mov    rdx,r12
    78b8:	48 89 d9             	mov    rcx,rbx
    78bb:	4c 29 fa             	sub    rdx,r15
    78be:	be 01 00 00 00       	mov    esi,0x1
    78c3:	e8 58 9d ff ff       	call   1620 <fread_unlocked@plt>
    78c8:	49 01 c7             	add    r15,rax
    78cb:	49 81 ff 00 80 00 00 	cmp    r15,0x8000
    78d2:	74 4c                	je     7920 <shaxxx_stream.isra.1+0xd0>
    78d4:	48 85 c0             	test   rax,rax
    78d7:	74 5f                	je     7938 <shaxxx_stream.isra.1+0xe8>
    78d9:	f6 03 10             	test   BYTE PTR [rbx],0x10
    78dc:	74 d2                	je     78b0 <shaxxx_stream.isra.1+0x60>
    78de:	4d 85 ff             	test   r15,r15
    78e1:	75 6d                	jne    7950 <shaxxx_stream.isra.1+0x100>
    78e3:	48 8b 74 24 08       	mov    rsi,QWORD PTR [rsp+0x8]
    78e8:	4c 89 ef             	mov    rdi,r13
    78eb:	41 ff d6             	call   r14
    78ee:	48 89 ef             	mov    rdi,rbp
    78f1:	e8 ba 9c ff ff       	call   15b0 <free@plt>
    78f6:	31 c0                	xor    eax,eax
    78f8:	48 8b 8c 24 68 01 00 	mov    rcx,QWORD PTR [rsp+0x168]
    78ff:	00 
    7900:	64 48 33 0c 25 28 00 	xor    rcx,QWORD PTR fs:0x28
    7907:	00 00 
    7909:	75 5c                	jne    7967 <shaxxx_stream.isra.1+0x117>
    790b:	48 81 c4 78 01 00 00 	add    rsp,0x178
    7912:	5b                   	pop    rbx
    7913:	5d                   	pop    rbp
    7914:	41 5c                	pop    r12
    7916:	41 5d                	pop    r13
    7918:	41 5e                	pop    r14
    791a:	41 5f                	pop    r15
    791c:	c3                   	ret    
    791d:	0f 1f 00             	nop    DWORD PTR [rax]
    7920:	4c 89 ea             	mov    rdx,r13
    7923:	be 00 80 00 00       	mov    esi,0x8000
    7928:	48 89 ef             	mov    rdi,rbp
    792b:	e8 00 bc ff ff       	call   3530 <sha512_process_block>
    7930:	e9 74 ff ff ff       	jmp    78a9 <shaxxx_stream.isra.1+0x59>
    7935:	0f 1f 00             	nop    DWORD PTR [rax]
    7938:	f6 03 20             	test   BYTE PTR [rbx],0x20
    793b:	74 a1                	je     78de <shaxxx_stream.isra.1+0x8e>
    793d:	48 89 ef             	mov    rdi,rbp
    7940:	e8 6b 9c ff ff       	call   15b0 <free@plt>
    7945:	b8 01 00 00 00       	mov    eax,0x1
    794a:	eb ac                	jmp    78f8 <shaxxx_stream.isra.1+0xa8>
    794c:	0f 1f 40 00          	nop    DWORD PTR [rax+0x0]
    7950:	4c 89 ea             	mov    rdx,r13
    7953:	4c 89 fe             	mov    rsi,r15
    7956:	48 89 ef             	mov    rdi,rbp
    7959:	e8 02 fa ff ff       	call   7360 <sha512_process_bytes>
    795e:	eb 83                	jmp    78e3 <shaxxx_stream.isra.1+0x93>
    7960:	b8 01 00 00 00       	mov    eax,0x1
    7965:	eb 91                	jmp    78f8 <shaxxx_stream.isra.1+0xa8>
    7967:	e8 24 9d ff ff       	call   1690 <__stack_chk_fail@plt>
    796c:	0f 1f 40 00          	nop    DWORD PTR [rax+0x0]

0000000000007970 <sha512_stream>:
    7970:	48 8d 0d 89 f9 ff ff 	lea    rcx,[rip+0xfffffffffffff989]        # 7300 <sha512_finish_ctx>
    7977:	48 8d 15 52 ba ff ff 	lea    rdx,[rip+0xffffffffffffba52]        # 33d0 <sha512_init_ctx>
    797e:	e9 cd fe ff ff       	jmp    7850 <shaxxx_stream.isra.1>
    7983:	0f 1f 00             	nop    DWORD PTR [rax]
    7986:	66 2e 0f 1f 84 00 00 	nop    WORD PTR cs:[rax+rax*1+0x0]
    798d:	00 00 00 

0000000000007990 <sha384_stream>:
    7990:	48 8d 0d 99 f9 ff ff 	lea    rcx,[rip+0xfffffffffffff999]        # 7330 <sha384_finish_ctx>
    7997:	48 8d 15 c2 ba ff ff 	lea    rdx,[rip+0xffffffffffffbac2]        # 3460 <sha384_init_ctx>
    799e:	e9 ad fe ff ff       	jmp    7850 <shaxxx_stream.isra.1>
    79a3:	66 2e 0f 1f 84 00 00 	nop    WORD PTR cs:[rax+rax*1+0x0]
    79aa:	00 00 00 
    79ad:	0f 1f 00             	nop    DWORD PTR [rax]

00000000000079b0 <fdadvise>:
    79b0:	e9 6b 9d ff ff       	jmp    1720 <posix_fadvise@plt>
    79b5:	90                   	nop
    79b6:	66 2e 0f 1f 84 00 00 	nop    WORD PTR cs:[rax+rax*1+0x0]
    79bd:	00 00 00 

00000000000079c0 <fadvise>:
    79c0:	48 85 ff             	test   rdi,rdi
    79c3:	74 1b                	je     79e0 <fadvise+0x20>
    79c5:	53                   	push   rbx
    79c6:	89 f3                	mov    ebx,esi
    79c8:	e8 b3 9d ff ff       	call   1780 <fileno@plt>
    79cd:	89 d9                	mov    ecx,ebx
    79cf:	31 d2                	xor    edx,edx
    79d1:	31 f6                	xor    esi,esi
    79d3:	5b                   	pop    rbx
    79d4:	89 c7                	mov    edi,eax
    79d6:	e9 45 9d ff ff       	jmp    1720 <posix_fadvise@plt>
    79db:	0f 1f 44 00 00       	nop    DWORD PTR [rax+rax*1+0x0]
    79e0:	f3 c3                	repz ret 
    79e2:	66 2e 0f 1f 84 00 00 	nop    WORD PTR cs:[rax+rax*1+0x0]
    79e9:	00 00 00 
    79ec:	0f 1f 40 00          	nop    DWORD PTR [rax+0x0]

00000000000079f0 <fopen_safer>:
    79f0:	41 54                	push   r12
    79f2:	55                   	push   rbp
    79f3:	48 89 f5             	mov    rbp,rsi
    79f6:	53                   	push   rbx
    79f7:	e8 54 9e ff ff       	call   1850 <fopen@plt>
    79fc:	48 85 c0             	test   rax,rax
    79ff:	48 89 c3             	mov    rbx,rax
    7a02:	74 0d                	je     7a11 <fopen_safer+0x21>
    7a04:	48 89 c7             	mov    rdi,rax
    7a07:	e8 74 9d ff ff       	call   1780 <fileno@plt>
    7a0c:	83 f8 02             	cmp    eax,0x2
    7a0f:	76 0f                	jbe    7a20 <fopen_safer+0x30>
    7a11:	48 89 d8             	mov    rax,rbx
    7a14:	5b                   	pop    rbx
    7a15:	5d                   	pop    rbp
    7a16:	41 5c                	pop    r12
    7a18:	c3                   	ret    
    7a19:	0f 1f 80 00 00 00 00 	nop    DWORD PTR [rax+0x0]
    7a20:	89 c7                	mov    edi,eax
    7a22:	e8 99 1d 00 00       	call   97c0 <dup_safer>
    7a27:	85 c0                	test   eax,eax
    7a29:	41 89 c4             	mov    r12d,eax
    7a2c:	78 3a                	js     7a68 <fopen_safer+0x78>
    7a2e:	48 89 df             	mov    rdi,rbx
    7a31:	e8 4a 26 00 00       	call   a080 <rpl_fclose>
    7a36:	85 c0                	test   eax,eax
    7a38:	75 13                	jne    7a4d <fopen_safer+0x5d>
    7a3a:	48 89 ee             	mov    rsi,rbp
    7a3d:	44 89 e7             	mov    edi,r12d
    7a40:	e8 ab 9d ff ff       	call   17f0 <fdopen@plt>
    7a45:	48 85 c0             	test   rax,rax
    7a48:	48 89 c3             	mov    rbx,rax
    7a4b:	75 c4                	jne    7a11 <fopen_safer+0x21>
    7a4d:	e8 7e 9b ff ff       	call   15d0 <__errno_location@plt>
    7a52:	8b 28                	mov    ebp,DWORD PTR [rax]
    7a54:	48 89 c3             	mov    rbx,rax
    7a57:	44 89 e7             	mov    edi,r12d
    7a5a:	e8 b1 9c ff ff       	call   1710 <close@plt>
    7a5f:	89 2b                	mov    DWORD PTR [rbx],ebp
    7a61:	31 db                	xor    ebx,ebx
    7a63:	eb ac                	jmp    7a11 <fopen_safer+0x21>
    7a65:	0f 1f 00             	nop    DWORD PTR [rax]
    7a68:	e8 63 9b ff ff       	call   15d0 <__errno_location@plt>
    7a6d:	44 8b 20             	mov    r12d,DWORD PTR [rax]
    7a70:	48 89 c5             	mov    rbp,rax
    7a73:	48 89 df             	mov    rdi,rbx
    7a76:	e8 05 26 00 00       	call   a080 <rpl_fclose>
    7a7b:	31 db                	xor    ebx,ebx
    7a7d:	44 89 65 00          	mov    DWORD PTR [rbp+0x0],r12d
    7a81:	eb 8e                	jmp    7a11 <fopen_safer+0x21>
    7a83:	66 2e 0f 1f 84 00 00 	nop    WORD PTR cs:[rax+rax*1+0x0]
    7a8a:	00 00 00 
    7a8d:	0f 1f 00             	nop    DWORD PTR [rax]

0000000000007a90 <set_program_name>:
    7a90:	48 85 ff             	test   rdi,rdi
    7a93:	53                   	push   rbx
    7a94:	74 77                	je     7b0d <set_program_name+0x7d>
    7a96:	be 2f 00 00 00       	mov    esi,0x2f
    7a9b:	48 89 fb             	mov    rbx,rdi
    7a9e:	e8 3d 9c ff ff       	call   16e0 <strrchr@plt>
    7aa3:	48 85 c0             	test   rax,rax
    7aa6:	74 55                	je     7afd <set_program_name+0x6d>
    7aa8:	4c 8d 40 01          	lea    r8,[rax+0x1]
    7aac:	4c 89 c2             	mov    rdx,r8
    7aaf:	48 29 da             	sub    rdx,rbx
    7ab2:	48 83 fa 06          	cmp    rdx,0x6
    7ab6:	7e 45                	jle    7afd <set_program_name+0x6d>
    7ab8:	48 8d 70 fa          	lea    rsi,[rax-0x6]
    7abc:	48 8d 3d 55 38 00 00 	lea    rdi,[rip+0x3855]        # b318 <fillbuf+0xb8>
    7ac3:	b9 07 00 00 00       	mov    ecx,0x7
    7ac8:	f3 a6                	repz cmps BYTE PTR ds:[rsi],BYTE PTR es:[rdi]
    7aca:	0f 97 c2             	seta   dl
    7acd:	80 da 00             	sbb    dl,0x0
    7ad0:	84 d2                	test   dl,dl
    7ad2:	75 29                	jne    7afd <set_program_name+0x6d>
    7ad4:	48 8d 3d 45 38 00 00 	lea    rdi,[rip+0x3845]        # b320 <fillbuf+0xc0>
    7adb:	b9 03 00 00 00       	mov    ecx,0x3
    7ae0:	4c 89 c6             	mov    rsi,r8
    7ae3:	4c 89 c3             	mov    rbx,r8
    7ae6:	f3 a6                	repz cmps BYTE PTR ds:[rsi],BYTE PTR es:[rdi]
    7ae8:	0f 97 c2             	seta   dl
    7aeb:	80 da 00             	sbb    dl,0x0
    7aee:	84 d2                	test   dl,dl
    7af0:	75 0b                	jne    7afd <set_program_name+0x6d>
    7af2:	48 8d 58 04          	lea    rbx,[rax+0x4]
    7af6:	48 89 1d a3 65 20 00 	mov    QWORD PTR [rip+0x2065a3],rbx        # 20e0a0 <__progname@@GLIBC_2.2.5>
    7afd:	48 89 1d 1c 66 20 00 	mov    QWORD PTR [rip+0x20661c],rbx        # 20e120 <program_name>
    7b04:	48 89 1d b5 65 20 00 	mov    QWORD PTR [rip+0x2065b5],rbx        # 20e0c0 <__progname_full@@GLIBC_2.2.5>
    7b0b:	5b                   	pop    rbx
    7b0c:	c3                   	ret    
    7b0d:	48 8b 0d cc 65 20 00 	mov    rcx,QWORD PTR [rip+0x2065cc]        # 20e0e0 <stderr@@GLIBC_2.2.5>
    7b14:	48 8d 3d c5 37 00 00 	lea    rdi,[rip+0x37c5]        # b2e0 <fillbuf+0x80>
    7b1b:	ba 37 00 00 00       	mov    edx,0x37
    7b20:	be 01 00 00 00       	mov    esi,0x1
    7b25:	e8 66 9d ff ff       	call   1890 <fwrite@plt>
    7b2a:	e8 91 9a ff ff       	call   15c0 <abort@plt>
    7b2f:	90                   	nop

0000000000007b30 <gettext_quote.part.1>:
    7b30:	55                   	push   rbp
    7b31:	53                   	push   rbx
    7b32:	48 89 fd             	mov    rbp,rdi
    7b35:	89 f3                	mov    ebx,esi
    7b37:	48 83 ec 08          	sub    rsp,0x8
    7b3b:	e8 50 2a 00 00       	call   a590 <locale_charset>
    7b40:	0f b6 10             	movzx  edx,BYTE PTR [rax]
    7b43:	83 e2 df             	and    edx,0xffffffdf
    7b46:	80 fa 55             	cmp    dl,0x55
    7b49:	74 75                	je     7bc0 <gettext_quote.part.1+0x90>
    7b4b:	80 fa 47             	cmp    dl,0x47
    7b4e:	74 20                	je     7b70 <gettext_quote.part.1+0x40>
    7b50:	48 8d 05 dc 37 00 00 	lea    rax,[rip+0x37dc]        # b333 <fillbuf+0xd3>
    7b57:	48 8d 15 d7 37 00 00 	lea    rdx,[rip+0x37d7]        # b335 <fillbuf+0xd5>
    7b5e:	83 fb 09             	cmp    ebx,0x9
    7b61:	48 0f 45 c2          	cmovne rax,rdx
    7b65:	48 83 c4 08          	add    rsp,0x8
    7b69:	5b                   	pop    rbx
    7b6a:	5d                   	pop    rbp
    7b6b:	c3                   	ret    
    7b6c:	0f 1f 40 00          	nop    DWORD PTR [rax+0x0]
    7b70:	0f b6 50 01          	movzx  edx,BYTE PTR [rax+0x1]
    7b74:	83 e2 df             	and    edx,0xffffffdf
    7b77:	80 fa 42             	cmp    dl,0x42
    7b7a:	75 d4                	jne    7b50 <gettext_quote.part.1+0x20>
    7b7c:	80 78 02 31          	cmp    BYTE PTR [rax+0x2],0x31
    7b80:	75 ce                	jne    7b50 <gettext_quote.part.1+0x20>
    7b82:	80 78 03 38          	cmp    BYTE PTR [rax+0x3],0x38
    7b86:	75 c8                	jne    7b50 <gettext_quote.part.1+0x20>
    7b88:	80 78 04 30          	cmp    BYTE PTR [rax+0x4],0x30
    7b8c:	75 c2                	jne    7b50 <gettext_quote.part.1+0x20>
    7b8e:	80 78 05 33          	cmp    BYTE PTR [rax+0x5],0x33
    7b92:	75 bc                	jne    7b50 <gettext_quote.part.1+0x20>
    7b94:	80 78 06 30          	cmp    BYTE PTR [rax+0x6],0x30
    7b98:	75 b6                	jne    7b50 <gettext_quote.part.1+0x20>
    7b9a:	80 78 07 00          	cmp    BYTE PTR [rax+0x7],0x0
    7b9e:	75 b0                	jne    7b50 <gettext_quote.part.1+0x20>
    7ba0:	80 7d 00 60          	cmp    BYTE PTR [rbp+0x0],0x60
    7ba4:	48 8d 05 81 37 00 00 	lea    rax,[rip+0x3781]        # b32c <fillbuf+0xcc>
    7bab:	48 8d 15 7e 37 00 00 	lea    rdx,[rip+0x377e]        # b330 <fillbuf+0xd0>
    7bb2:	48 0f 45 c2          	cmovne rax,rdx
    7bb6:	48 83 c4 08          	add    rsp,0x8
    7bba:	5b                   	pop    rbx
    7bbb:	5d                   	pop    rbp
    7bbc:	c3                   	ret    
    7bbd:	0f 1f 00             	nop    DWORD PTR [rax]
    7bc0:	0f b6 50 01          	movzx  edx,BYTE PTR [rax+0x1]
    7bc4:	83 e2 df             	and    edx,0xffffffdf
    7bc7:	80 fa 54             	cmp    dl,0x54
    7bca:	75 84                	jne    7b50 <gettext_quote.part.1+0x20>
    7bcc:	0f b6 50 02          	movzx  edx,BYTE PTR [rax+0x2]
    7bd0:	83 e2 df             	and    edx,0xffffffdf
    7bd3:	80 fa 46             	cmp    dl,0x46
    7bd6:	0f 85 74 ff ff ff    	jne    7b50 <gettext_quote.part.1+0x20>
    7bdc:	80 78 03 2d          	cmp    BYTE PTR [rax+0x3],0x2d
    7be0:	0f 85 6a ff ff ff    	jne    7b50 <gettext_quote.part.1+0x20>
    7be6:	80 78 04 38          	cmp    BYTE PTR [rax+0x4],0x38
    7bea:	0f 85 60 ff ff ff    	jne    7b50 <gettext_quote.part.1+0x20>
    7bf0:	80 78 05 00          	cmp    BYTE PTR [rax+0x5],0x0
    7bf4:	0f 85 56 ff ff ff    	jne    7b50 <gettext_quote.part.1+0x20>
    7bfa:	80 7d 00 60          	cmp    BYTE PTR [rbp+0x0],0x60
    7bfe:	48 8d 05 1f 37 00 00 	lea    rax,[rip+0x371f]        # b324 <fillbuf+0xc4>
    7c05:	48 8d 15 1c 37 00 00 	lea    rdx,[rip+0x371c]        # b328 <fillbuf+0xc8>
    7c0c:	48 0f 45 c2          	cmovne rax,rdx
    7c10:	48 83 c4 08          	add    rsp,0x8
    7c14:	5b                   	pop    rbx
    7c15:	5d                   	pop    rbp
    7c16:	c3                   	ret    
    7c17:	66 0f 1f 84 00 00 00 	nop    WORD PTR [rax+rax*1+0x0]
    7c1e:	00 00 

0000000000007c20 <quotearg_buffer_restyled>:
    7c20:	41 57                	push   r15
    7c22:	41 56                	push   r14
    7c24:	45 89 c7             	mov    r15d,r8d
    7c27:	41 55                	push   r13
    7c29:	41 54                	push   r12
    7c2b:	49 89 fe             	mov    r14,rdi
    7c2e:	55                   	push   rbp
    7c2f:	53                   	push   rbx
    7c30:	44 89 cb             	mov    ebx,r9d
    7c33:	49 89 f5             	mov    r13,rsi
    7c36:	48 89 cd             	mov    rbp,rcx
    7c39:	83 e3 02             	and    ebx,0x2
    7c3c:	48 81 ec b8 00 00 00 	sub    rsp,0xb8
    7c43:	48 8b 84 24 f0 00 00 	mov    rax,QWORD PTR [rsp+0xf0]
    7c4a:	00 
    7c4b:	48 89 54 24 10       	mov    QWORD PTR [rsp+0x10],rdx
    7c50:	44 89 44 24 08       	mov    DWORD PTR [rsp+0x8],r8d
    7c55:	44 89 4c 24 78       	mov    DWORD PTR [rsp+0x78],r9d
    7c5a:	48 89 44 24 20       	mov    QWORD PTR [rsp+0x20],rax
    7c5f:	48 8b 84 24 f8 00 00 	mov    rax,QWORD PTR [rsp+0xf8]
    7c66:	00 
    7c67:	48 89 44 24 68       	mov    QWORD PTR [rsp+0x68],rax
    7c6c:	48 8b 84 24 00 01 00 	mov    rax,QWORD PTR [rsp+0x100]
    7c73:	00 
    7c74:	48 89 44 24 60       	mov    QWORD PTR [rsp+0x60],rax
    7c79:	64 48 8b 04 25 28 00 	mov    rax,QWORD PTR fs:0x28
    7c80:	00 00 
    7c82:	48 89 84 24 a8 00 00 	mov    QWORD PTR [rsp+0xa8],rax
    7c89:	00 
    7c8a:	31 c0                	xor    eax,eax
    7c8c:	e8 df 99 ff ff       	call   1670 <__ctype_get_mb_cur_max@plt>
    7c91:	41 83 ff 0a          	cmp    r15d,0xa
    7c95:	48 89 44 24 58       	mov    QWORD PTR [rsp+0x58],rax
    7c9a:	0f 87 af 11 00 00    	ja     8e4f <quotearg_buffer_restyled+0x122f>
    7ca0:	48 8d 0d f9 36 00 00 	lea    rcx,[rip+0x36f9]        # b3a0 <fillbuf+0x140>
    7ca7:	44 89 fa             	mov    edx,r15d
    7caa:	48 63 04 91          	movsxd rax,DWORD PTR [rcx+rdx*4]
    7cae:	48 01 c8             	add    rax,rcx
    7cb1:	ff e0                	jmp    rax
    7cb3:	c6 44 24 0e 01       	mov    BYTE PTR [rsp+0xe],0x1
    7cb8:	c6 44 24 7c 00       	mov    BYTE PTR [rsp+0x7c],0x0
    7cbd:	45 31 e4             	xor    r12d,r12d
    7cc0:	48 c7 44 24 50 00 00 	mov    QWORD PTR [rsp+0x50],0x0
    7cc7:	00 00 
    7cc9:	c6 44 24 0f 01       	mov    BYTE PTR [rsp+0xf],0x1
    7cce:	c6 44 24 0d 00       	mov    BYTE PTR [rsp+0xd],0x0
    7cd3:	48 8d 05 5b 36 00 00 	lea    rax,[rip+0x365b]        # b335 <fillbuf+0xd5>
    7cda:	48 c7 44 24 18 01 00 	mov    QWORD PTR [rsp+0x18],0x1
    7ce1:	00 00 
    7ce3:	45 31 ff             	xor    r15d,r15d
    7ce6:	c7 44 24 08 02 00 00 	mov    DWORD PTR [rsp+0x8],0x2
    7ced:	00 
    7cee:	48 89 44 24 48       	mov    QWORD PTR [rsp+0x48],rax
    7cf3:	45 31 db             	xor    r11d,r11d
    7cf6:	48 89 e8             	mov    rax,rbp
    7cf9:	45 89 e0             	mov    r8d,r12d
    7cfc:	4c 89 dd             	mov    rbp,r11
    7cff:	49 89 c3             	mov    r11,rax
    7d02:	66 0f 1f 44 00 00    	nop    WORD PTR [rax+rax*1+0x0]
    7d08:	49 39 eb             	cmp    r11,rbp
    7d0b:	41 0f 95 c4          	setne  r12b
    7d0f:	49 83 fb ff          	cmp    r11,0xffffffffffffffff
    7d13:	75 0d                	jne    7d22 <quotearg_buffer_restyled+0x102>
    7d15:	48 8b 44 24 10       	mov    rax,QWORD PTR [rsp+0x10]
    7d1a:	80 3c 28 00          	cmp    BYTE PTR [rax+rbp*1],0x0
    7d1e:	41 0f 95 c4          	setne  r12b
    7d22:	45 84 e4             	test   r12b,r12b
    7d25:	0f 84 55 06 00 00    	je     8380 <quotearg_buffer_restyled+0x760>
    7d2b:	83 7c 24 08 02       	cmp    DWORD PTR [rsp+0x8],0x2
    7d30:	48 8b 7c 24 10       	mov    rdi,QWORD PTR [rsp+0x10]
    7d35:	4c 8d 0c 2f          	lea    r9,[rdi+rbp*1]
    7d39:	0f 95 c0             	setne  al
    7d3c:	22 44 24 0d          	and    al,BYTE PTR [rsp+0xd]
    7d40:	41 89 c2             	mov    r10d,eax
    7d43:	0f 84 a7 00 00 00    	je     7df0 <quotearg_buffer_restyled+0x1d0>
    7d49:	48 8b 44 24 18       	mov    rax,QWORD PTR [rsp+0x18]
    7d4e:	48 85 c0             	test   rax,rax
    7d51:	0f 84 29 04 00 00    	je     8180 <quotearg_buffer_restyled+0x560>
    7d57:	49 83 fb ff          	cmp    r11,0xffffffffffffffff
    7d5b:	48 8d 5c 05 00       	lea    rbx,[rbp+rax*1+0x0]
    7d60:	75 2e                	jne    7d90 <quotearg_buffer_restyled+0x170>
    7d62:	48 83 f8 01          	cmp    rax,0x1
    7d66:	76 28                	jbe    7d90 <quotearg_buffer_restyled+0x170>
    7d68:	44 88 44 24 38       	mov    BYTE PTR [rsp+0x38],r8b
    7d6d:	44 88 54 24 30       	mov    BYTE PTR [rsp+0x30],r10b
    7d72:	4c 89 4c 24 28       	mov    QWORD PTR [rsp+0x28],r9
    7d77:	e8 04 99 ff ff       	call   1680 <strlen@plt>
    7d7c:	44 0f b6 44 24 38    	movzx  r8d,BYTE PTR [rsp+0x38]
    7d82:	44 0f b6 54 24 30    	movzx  r10d,BYTE PTR [rsp+0x30]
    7d88:	49 89 c3             	mov    r11,rax
    7d8b:	4c 8b 4c 24 28       	mov    r9,QWORD PTR [rsp+0x28]
    7d90:	4c 39 db             	cmp    rbx,r11
    7d93:	44 88 54 24 28       	mov    BYTE PTR [rsp+0x28],r10b
    7d98:	0f 87 b2 05 00 00    	ja     8350 <quotearg_buffer_restyled+0x730>
    7d9e:	48 8b 54 24 18       	mov    rdx,QWORD PTR [rsp+0x18]
    7da3:	48 8b 74 24 48       	mov    rsi,QWORD PTR [rsp+0x48]
    7da8:	4c 89 cf             	mov    rdi,r9
    7dab:	4c 89 5c 24 40       	mov    QWORD PTR [rsp+0x40],r11
    7db0:	44 88 44 24 38       	mov    BYTE PTR [rsp+0x38],r8b
    7db5:	4c 89 4c 24 30       	mov    QWORD PTR [rsp+0x30],r9
    7dba:	e8 71 99 ff ff       	call   1730 <memcmp@plt>
    7dbf:	85 c0                	test   eax,eax
    7dc1:	4c 8b 4c 24 30       	mov    r9,QWORD PTR [rsp+0x30]
    7dc6:	44 0f b6 44 24 38    	movzx  r8d,BYTE PTR [rsp+0x38]
    7dcc:	4c 8b 5c 24 40       	mov    r11,QWORD PTR [rsp+0x40]
    7dd1:	0f 85 79 05 00 00    	jne    8350 <quotearg_buffer_restyled+0x730>
    7dd7:	80 7c 24 0f 00       	cmp    BYTE PTR [rsp+0xf],0x0
    7ddc:	44 0f b6 54 24 28    	movzx  r10d,BYTE PTR [rsp+0x28]
    7de2:	0f 85 7d 0f 00 00    	jne    8d65 <quotearg_buffer_restyled+0x1145>
    7de8:	0f 1f 84 00 00 00 00 	nop    DWORD PTR [rax+rax*1+0x0]
    7def:	00 
    7df0:	41 0f b6 19          	movzx  ebx,BYTE PTR [r9]
    7df4:	80 fb 7e             	cmp    bl,0x7e
    7df7:	0f 87 1b 03 00 00    	ja     8118 <quotearg_buffer_restyled+0x4f8>
    7dfd:	48 8d 0d c8 35 00 00 	lea    rcx,[rip+0x35c8]        # b3cc <fillbuf+0x16c>
    7e04:	0f b6 d3             	movzx  edx,bl
    7e07:	48 63 04 91          	movsxd rax,DWORD PTR [rcx+rdx*4]
    7e0b:	48 01 c8             	add    rax,rcx
    7e0e:	ff e0                	jmp    rax
    7e10:	45 31 d2             	xor    r10d,r10d
    7e13:	49 83 fb 01          	cmp    r11,0x1
    7e17:	0f 95 c0             	setne  al
    7e1a:	49 83 fb ff          	cmp    r11,0xffffffffffffffff
    7e1e:	75 0c                	jne    7e2c <quotearg_buffer_restyled+0x20c>
    7e20:	48 8b 44 24 10       	mov    rax,QWORD PTR [rsp+0x10]
    7e25:	80 78 01 00          	cmp    BYTE PTR [rax+0x1],0x0
    7e29:	0f 95 c0             	setne  al
    7e2c:	83 7c 24 08 02       	cmp    DWORD PTR [rsp+0x8],0x2
    7e31:	0f 94 c2             	sete   dl
    7e34:	84 c0                	test   al,al
    7e36:	0f 84 4c 02 00 00    	je     8088 <quotearg_buffer_restyled+0x468>
    7e3c:	45 31 e4             	xor    r12d,r12d
    7e3f:	31 c0                	xor    eax,eax
    7e41:	0f 1f 80 00 00 00 00 	nop    DWORD PTR [rax+0x0]
    7e48:	80 7c 24 0d 01       	cmp    BYTE PTR [rsp+0xd],0x1
    7e4d:	0f 85 0f 01 00 00    	jne    7f62 <quotearg_buffer_restyled+0x342>
    7e53:	84 d2                	test   dl,dl
    7e55:	0f 85 07 01 00 00    	jne    7f62 <quotearg_buffer_restyled+0x342>
    7e5b:	48 8b 74 24 20       	mov    rsi,QWORD PTR [rsp+0x20]
    7e60:	48 85 f6             	test   rsi,rsi
    7e63:	74 14                	je     7e79 <quotearg_buffer_restyled+0x259>
    7e65:	89 da                	mov    edx,ebx
    7e67:	c0 ea 05             	shr    dl,0x5
    7e6a:	0f b6 d2             	movzx  edx,dl
    7e6d:	8b 14 96             	mov    edx,DWORD PTR [rsi+rdx*4]
    7e70:	0f a3 da             	bt     edx,ebx
    7e73:	0f 82 4a 01 00 00    	jb     7fc3 <quotearg_buffer_restyled+0x3a3>
    7e79:	45 84 d2             	test   r10b,r10b
    7e7c:	0f 85 41 01 00 00    	jne    7fc3 <quotearg_buffer_restyled+0x3a3>
    7e82:	83 f0 01             	xor    eax,0x1
    7e85:	48 83 c5 01          	add    rbp,0x1
    7e89:	44 21 c0             	and    eax,r8d
    7e8c:	84 c0                	test   al,al
    7e8e:	74 20                	je     7eb0 <quotearg_buffer_restyled+0x290>
    7e90:	4d 39 fd             	cmp    r13,r15
    7e93:	76 05                	jbe    7e9a <quotearg_buffer_restyled+0x27a>
    7e95:	43 c6 04 3e 27       	mov    BYTE PTR [r14+r15*1],0x27
    7e9a:	49 8d 47 01          	lea    rax,[r15+0x1]
    7e9e:	49 39 c5             	cmp    r13,rax
    7ea1:	76 06                	jbe    7ea9 <quotearg_buffer_restyled+0x289>
    7ea3:	43 c6 44 3e 01 27    	mov    BYTE PTR [r14+r15*1+0x1],0x27
    7ea9:	49 83 c7 02          	add    r15,0x2
    7ead:	45 31 c0             	xor    r8d,r8d
    7eb0:	4d 39 ef             	cmp    r15,r13
    7eb3:	73 04                	jae    7eb9 <quotearg_buffer_restyled+0x299>
    7eb5:	43 88 1c 3e          	mov    BYTE PTR [r14+r15*1],bl
    7eb9:	0f b6 7c 24 0e       	movzx  edi,BYTE PTR [rsp+0xe]
    7ebe:	49 83 c7 01          	add    r15,0x1
    7ec2:	b8 00 00 00 00       	mov    eax,0x0
    7ec7:	45 84 e4             	test   r12b,r12b
    7eca:	0f 44 f8             	cmove  edi,eax
    7ecd:	40 88 7c 24 0e       	mov    BYTE PTR [rsp+0xe],dil
    7ed2:	e9 31 fe ff ff       	jmp    7d08 <quotearg_buffer_restyled+0xe8>
    7ed7:	66 0f 1f 84 00 00 00 	nop    WORD PTR [rax+rax*1+0x0]
    7ede:	00 00 
    7ee0:	45 31 d2             	xor    r10d,r10d
    7ee3:	8b 44 24 08          	mov    eax,DWORD PTR [rsp+0x8]
    7ee7:	83 f8 02             	cmp    eax,0x2
    7eea:	0f 84 b8 05 00 00    	je     84a8 <quotearg_buffer_restyled+0x888>
    7ef0:	83 f8 05             	cmp    eax,0x5
    7ef3:	0f 84 6f 05 00 00    	je     8468 <quotearg_buffer_restyled+0x848>
    7ef9:	83 f8 02             	cmp    eax,0x2
    7efc:	bb 3f 00 00 00       	mov    ebx,0x3f
    7f01:	0f 94 c2             	sete   dl
    7f04:	45 31 e4             	xor    r12d,r12d
    7f07:	31 c0                	xor    eax,eax
    7f09:	e9 3a ff ff ff       	jmp    7e48 <quotearg_buffer_restyled+0x228>
    7f0e:	66 90                	xchg   ax,ax
    7f10:	45 31 d2             	xor    r10d,r10d
    7f13:	83 7c 24 08 02       	cmp    DWORD PTR [rsp+0x8],0x2
    7f18:	0f 84 02 05 00 00    	je     8420 <quotearg_buffer_restyled+0x800>
    7f1e:	44 88 64 24 7c       	mov    BYTE PTR [rsp+0x7c],r12b
    7f23:	31 d2                	xor    edx,edx
    7f25:	31 c0                	xor    eax,eax
    7f27:	bb 27 00 00 00       	mov    ebx,0x27
    7f2c:	e9 17 ff ff ff       	jmp    7e48 <quotearg_buffer_restyled+0x228>
    7f31:	0f 1f 80 00 00 00 00 	nop    DWORD PTR [rax+0x0]
    7f38:	ba 09 00 00 00       	mov    edx,0x9
    7f3d:	bb 74 00 00 00       	mov    ebx,0x74
    7f42:	83 7c 24 08 02       	cmp    DWORD PTR [rsp+0x8],0x2
    7f47:	0f 94 c0             	sete   al
    7f4a:	22 44 24 0f          	and    al,BYTE PTR [rsp+0xf]
    7f4e:	0f 85 4a 01 00 00    	jne    809e <quotearg_buffer_restyled+0x47e>
    7f54:	80 7c 24 0d 00       	cmp    BYTE PTR [rsp+0xd],0x0
    7f59:	75 65                	jne    7fc0 <quotearg_buffer_restyled+0x3a0>
    7f5b:	89 d3                	mov    ebx,edx
    7f5d:	45 31 e4             	xor    r12d,r12d
    7f60:	31 c0                	xor    eax,eax
    7f62:	80 7c 24 0f 00       	cmp    BYTE PTR [rsp+0xf],0x0
    7f67:	0f 85 ee fe ff ff    	jne    7e5b <quotearg_buffer_restyled+0x23b>
    7f6d:	e9 07 ff ff ff       	jmp    7e79 <quotearg_buffer_restyled+0x259>
    7f72:	66 0f 1f 44 00 00    	nop    WORD PTR [rax+rax*1+0x0]
    7f78:	ba 08 00 00 00       	mov    edx,0x8
    7f7d:	bb 62 00 00 00       	mov    ebx,0x62
    7f82:	eb d0                	jmp    7f54 <quotearg_buffer_restyled+0x334>
    7f84:	0f 1f 40 00          	nop    DWORD PTR [rax+0x0]
    7f88:	83 7c 24 08 02       	cmp    DWORD PTR [rsp+0x8],0x2
    7f8d:	0f 84 cd 03 00 00    	je     8360 <quotearg_buffer_restyled+0x740>
    7f93:	80 7c 24 0d 00       	cmp    BYTE PTR [rsp+0xd],0x0
    7f98:	0f 84 12 02 00 00    	je     81b0 <quotearg_buffer_restyled+0x590>
    7f9e:	80 7c 24 0f 00       	cmp    BYTE PTR [rsp+0xf],0x0
    7fa3:	0f 84 07 02 00 00    	je     81b0 <quotearg_buffer_restyled+0x590>
    7fa9:	48 83 7c 24 18 00    	cmp    QWORD PTR [rsp+0x18],0x0
    7faf:	0f 85 b6 03 00 00    	jne    836b <quotearg_buffer_restyled+0x74b>
    7fb5:	bb 5c 00 00 00       	mov    ebx,0x5c
    7fba:	66 0f 1f 44 00 00    	nop    WORD PTR [rax+rax*1+0x0]
    7fc0:	45 31 e4             	xor    r12d,r12d
    7fc3:	83 7c 24 08 02       	cmp    DWORD PTR [rsp+0x8],0x2
    7fc8:	0f 94 c2             	sete   dl
    7fcb:	80 7c 24 0f 00       	cmp    BYTE PTR [rsp+0xf],0x0
    7fd0:	89 d0                	mov    eax,edx
    7fd2:	0f 85 50 08 00 00    	jne    8828 <quotearg_buffer_restyled+0xc08>
    7fd8:	44 89 c0             	mov    eax,r8d
    7fdb:	83 f0 01             	xor    eax,0x1
    7fde:	20 d0                	and    al,dl
    7fe0:	74 2f                	je     8011 <quotearg_buffer_restyled+0x3f1>
    7fe2:	4d 39 fd             	cmp    r13,r15
    7fe5:	76 05                	jbe    7fec <quotearg_buffer_restyled+0x3cc>
    7fe7:	43 c6 04 3e 27       	mov    BYTE PTR [r14+r15*1],0x27
    7fec:	49 8d 57 01          	lea    rdx,[r15+0x1]
    7ff0:	49 39 d5             	cmp    r13,rdx
    7ff3:	76 06                	jbe    7ffb <quotearg_buffer_restyled+0x3db>
    7ff5:	43 c6 44 3e 01 24    	mov    BYTE PTR [r14+r15*1+0x1],0x24
    7ffb:	49 8d 57 02          	lea    rdx,[r15+0x2]
    7fff:	49 39 d5             	cmp    r13,rdx
    8002:	76 06                	jbe    800a <quotearg_buffer_restyled+0x3ea>
    8004:	43 c6 44 3e 02 27    	mov    BYTE PTR [r14+r15*1+0x2],0x27
    800a:	49 83 c7 03          	add    r15,0x3
    800e:	41 89 c0             	mov    r8d,eax
    8011:	4d 39 fd             	cmp    r13,r15
    8014:	76 05                	jbe    801b <quotearg_buffer_restyled+0x3fb>
    8016:	43 c6 04 3e 5c       	mov    BYTE PTR [r14+r15*1],0x5c
    801b:	49 83 c7 01          	add    r15,0x1
    801f:	48 83 c5 01          	add    rbp,0x1
    8023:	e9 88 fe ff ff       	jmp    7eb0 <quotearg_buffer_restyled+0x290>
    8028:	0f 1f 84 00 00 00 00 	nop    DWORD PTR [rax+rax*1+0x0]
    802f:	00 
    8030:	80 7c 24 0d 00       	cmp    BYTE PTR [rsp+0xd],0x0
    8035:	0f 85 c8 01 00 00    	jne    8203 <quotearg_buffer_restyled+0x5e3>
    803b:	31 d2                	xor    edx,edx
    803d:	f6 44 24 78 01       	test   BYTE PTR [rsp+0x78],0x1
    8042:	0f 84 13 ff ff ff    	je     7f5b <quotearg_buffer_restyled+0x33b>
    8048:	48 83 c5 01          	add    rbp,0x1
    804c:	e9 b7 fc ff ff       	jmp    7d08 <quotearg_buffer_restyled+0xe8>
    8051:	0f 1f 80 00 00 00 00 	nop    DWORD PTR [rax+0x0]
    8058:	83 7c 24 08 02       	cmp    DWORD PTR [rsp+0x8],0x2
    805d:	0f 94 c2             	sete   dl
    8060:	31 c0                	xor    eax,eax
    8062:	e9 e1 fd ff ff       	jmp    7e48 <quotearg_buffer_restyled+0x228>
    8067:	66 0f 1f 84 00 00 00 	nop    WORD PTR [rax+rax*1+0x0]
    806e:	00 00 
    8070:	ba 07 00 00 00       	mov    edx,0x7
    8075:	bb 61 00 00 00       	mov    ebx,0x61
    807a:	e9 d5 fe ff ff       	jmp    7f54 <quotearg_buffer_restyled+0x334>
    807f:	90                   	nop
    8080:	83 7c 24 08 02       	cmp    DWORD PTR [rsp+0x8],0x2
    8085:	0f 94 c2             	sete   dl
    8088:	48 85 ed             	test   rbp,rbp
    808b:	0f 85 ab fd ff ff    	jne    7e3c <quotearg_buffer_restyled+0x21c>
    8091:	0f b6 44 24 0f       	movzx  eax,BYTE PTR [rsp+0xf]
    8096:	20 d0                	and    al,dl
    8098:	0f 84 aa fd ff ff    	je     7e48 <quotearg_buffer_restyled+0x228>
    809e:	4c 89 dd             	mov    rbp,r11
    80a1:	c7 44 24 08 02 00 00 	mov    DWORD PTR [rsp+0x8],0x2
    80a8:	00 
    80a9:	e9 fb 06 00 00       	jmp    87a9 <quotearg_buffer_restyled+0xb89>
    80ae:	66 90                	xchg   ax,ax
    80b0:	83 7c 24 08 02       	cmp    DWORD PTR [rsp+0x8],0x2
    80b5:	0f 94 c2             	sete   dl
    80b8:	45 31 e4             	xor    r12d,r12d
    80bb:	eb d4                	jmp    8091 <quotearg_buffer_restyled+0x471>
    80bd:	0f 1f 00             	nop    DWORD PTR [rax]
    80c0:	83 7c 24 08 02       	cmp    DWORD PTR [rsp+0x8],0x2
    80c5:	bb 20 00 00 00       	mov    ebx,0x20
    80ca:	0f 94 c2             	sete   dl
    80cd:	eb c2                	jmp    8091 <quotearg_buffer_restyled+0x471>
    80cf:	90                   	nop
    80d0:	ba 0d 00 00 00       	mov    edx,0xd
    80d5:	bb 72 00 00 00       	mov    ebx,0x72
    80da:	e9 63 fe ff ff       	jmp    7f42 <quotearg_buffer_restyled+0x322>
    80df:	90                   	nop
    80e0:	ba 0c 00 00 00       	mov    edx,0xc
    80e5:	bb 66 00 00 00       	mov    ebx,0x66
    80ea:	e9 65 fe ff ff       	jmp    7f54 <quotearg_buffer_restyled+0x334>
    80ef:	90                   	nop
    80f0:	ba 0b 00 00 00       	mov    edx,0xb
    80f5:	bb 76 00 00 00       	mov    ebx,0x76
    80fa:	e9 55 fe ff ff       	jmp    7f54 <quotearg_buffer_restyled+0x334>
    80ff:	90                   	nop
    8100:	ba 0a 00 00 00       	mov    edx,0xa
    8105:	bb 6e 00 00 00       	mov    ebx,0x6e
    810a:	e9 33 fe ff ff       	jmp    7f42 <quotearg_buffer_restyled+0x322>
    810f:	90                   	nop
    8110:	45 31 d2             	xor    r10d,r10d
    8113:	0f 1f 44 00 00       	nop    DWORD PTR [rax+rax*1+0x0]
    8118:	48 83 7c 24 58 01    	cmp    QWORD PTR [rsp+0x58],0x1
    811e:	0f 85 a4 03 00 00    	jne    84c8 <quotearg_buffer_restyled+0x8a8>
    8124:	4c 89 5c 24 38       	mov    QWORD PTR [rsp+0x38],r11
    8129:	44 88 44 24 30       	mov    BYTE PTR [rsp+0x30],r8b
    812e:	44 88 54 24 28       	mov    BYTE PTR [rsp+0x28],r10b
    8133:	e8 a8 97 ff ff       	call   18e0 <__ctype_b_loc@plt>
    8138:	48 8b 08             	mov    rcx,QWORD PTR [rax]
    813b:	0f b6 d3             	movzx  edx,bl
    813e:	44 0f b6 54 24 28    	movzx  r10d,BYTE PTR [rsp+0x28]
    8144:	44 0f b6 44 24 30    	movzx  r8d,BYTE PTR [rsp+0x30]
    814a:	4c 8b 5c 24 38       	mov    r11,QWORD PTR [rsp+0x38]
    814f:	bf 01 00 00 00       	mov    edi,0x1
    8154:	0f b7 04 51          	movzx  eax,WORD PTR [rcx+rdx*2]
    8158:	66 25 00 40          	and    ax,0x4000
    815c:	41 0f 95 c4          	setne  r12b
    8160:	0f 94 c0             	sete   al
    8163:	22 44 24 0d          	and    al,BYTE PTR [rsp+0xd]
    8167:	84 c0                	test   al,al
    8169:	0f 85 92 09 00 00    	jne    8b01 <quotearg_buffer_restyled+0xee1>
    816f:	83 7c 24 08 02       	cmp    DWORD PTR [rsp+0x8],0x2
    8174:	0f 94 c2             	sete   dl
    8177:	e9 cc fc ff ff       	jmp    7e48 <quotearg_buffer_restyled+0x228>
    817c:	0f 1f 40 00          	nop    DWORD PTR [rax+0x0]
    8180:	41 0f b6 19          	movzx  ebx,BYTE PTR [r9]
    8184:	80 fb 7e             	cmp    bl,0x7e
    8187:	77 87                	ja     8110 <quotearg_buffer_restyled+0x4f0>
    8189:	48 8d 0d 38 34 00 00 	lea    rcx,[rip+0x3438]        # b5c8 <fillbuf+0x368>
    8190:	0f b6 d3             	movzx  edx,bl
    8193:	48 63 04 91          	movsxd rax,DWORD PTR [rcx+rdx*4]
    8197:	48 01 c8             	add    rax,rcx
    819a:	ff e0                	jmp    rax
    819c:	0f 1f 40 00          	nop    DWORD PTR [rax+0x0]
    81a0:	45 31 d2             	xor    r10d,r10d
    81a3:	80 7c 24 0d 00       	cmp    BYTE PTR [rsp+0xd],0x0
    81a8:	0f 85 f0 fd ff ff    	jne    7f9e <quotearg_buffer_restyled+0x37e>
    81ae:	66 90                	xchg   ax,ax
    81b0:	ba 5c 00 00 00       	mov    edx,0x5c
    81b5:	bb 5c 00 00 00       	mov    ebx,0x5c
    81ba:	e9 95 fd ff ff       	jmp    7f54 <quotearg_buffer_restyled+0x334>
    81bf:	90                   	nop
    81c0:	ba 0c 00 00 00       	mov    edx,0xc
    81c5:	45 31 d2             	xor    r10d,r10d
    81c8:	bb 66 00 00 00       	mov    ebx,0x66
    81cd:	e9 82 fd ff ff       	jmp    7f54 <quotearg_buffer_restyled+0x334>
    81d2:	66 0f 1f 44 00 00    	nop    WORD PTR [rax+rax*1+0x0]
    81d8:	ba 0a 00 00 00       	mov    edx,0xa
    81dd:	45 31 d2             	xor    r10d,r10d
    81e0:	bb 6e 00 00 00       	mov    ebx,0x6e
    81e5:	e9 58 fd ff ff       	jmp    7f42 <quotearg_buffer_restyled+0x322>
    81ea:	66 0f 1f 44 00 00    	nop    WORD PTR [rax+rax*1+0x0]
    81f0:	bb 61 00 00 00       	mov    ebx,0x61
    81f5:	e9 c6 fd ff ff       	jmp    7fc0 <quotearg_buffer_restyled+0x3a0>
    81fa:	66 0f 1f 44 00 00    	nop    WORD PTR [rax+rax*1+0x0]
    8200:	45 31 d2             	xor    r10d,r10d
    8203:	83 7c 24 08 02       	cmp    DWORD PTR [rsp+0x8],0x2
    8208:	0f 94 c2             	sete   dl
    820b:	80 7c 24 0f 00       	cmp    BYTE PTR [rsp+0xf],0x0
    8210:	0f 85 94 0b 00 00    	jne    8daa <quotearg_buffer_restyled+0x118a>
    8216:	44 89 c0             	mov    eax,r8d
    8219:	4c 89 f9             	mov    rcx,r15
    821c:	83 f0 01             	xor    eax,0x1
    821f:	20 d0                	and    al,dl
    8221:	74 2d                	je     8250 <quotearg_buffer_restyled+0x630>
    8223:	4d 39 fd             	cmp    r13,r15
    8226:	76 05                	jbe    822d <quotearg_buffer_restyled+0x60d>
    8228:	43 c6 04 3e 27       	mov    BYTE PTR [r14+r15*1],0x27
    822d:	49 8d 4f 01          	lea    rcx,[r15+0x1]
    8231:	49 39 cd             	cmp    r13,rcx
    8234:	76 06                	jbe    823c <quotearg_buffer_restyled+0x61c>
    8236:	43 c6 44 3e 01 24    	mov    BYTE PTR [r14+r15*1+0x1],0x24
    823c:	49 8d 4f 02          	lea    rcx,[r15+0x2]
    8240:	49 39 cd             	cmp    r13,rcx
    8243:	0f 87 30 06 00 00    	ja     8879 <quotearg_buffer_restyled+0xc59>
    8249:	49 8d 4f 03          	lea    rcx,[r15+0x3]
    824d:	41 89 c0             	mov    r8d,eax
    8250:	49 39 cd             	cmp    r13,rcx
    8253:	76 05                	jbe    825a <quotearg_buffer_restyled+0x63a>
    8255:	41 c6 04 0e 5c       	mov    BYTE PTR [r14+rcx*1],0x5c
    825a:	83 7c 24 08 02       	cmp    DWORD PTR [rsp+0x8],0x2
    825f:	4c 8d 79 01          	lea    r15,[rcx+0x1]
    8263:	0f 84 00 06 00 00    	je     8869 <quotearg_buffer_restyled+0xc49>
    8269:	48 8d 45 01          	lea    rax,[rbp+0x1]
    826d:	4c 39 d8             	cmp    rax,r11
    8270:	73 19                	jae    828b <quotearg_buffer_restyled+0x66b>
    8272:	48 8b 44 24 10       	mov    rax,QWORD PTR [rsp+0x10]
    8277:	0f b6 44 28 01       	movzx  eax,BYTE PTR [rax+rbp*1+0x1]
    827c:	88 44 24 28          	mov    BYTE PTR [rsp+0x28],al
    8280:	83 e8 30             	sub    eax,0x30
    8283:	3c 09                	cmp    al,0x9
    8285:	0f 86 2e 08 00 00    	jbe    8ab9 <quotearg_buffer_restyled+0xe99>
    828b:	44 89 e0             	mov    eax,r12d
    828e:	bb 30 00 00 00       	mov    ebx,0x30
    8293:	45 31 e4             	xor    r12d,r12d
    8296:	e9 ad fb ff ff       	jmp    7e48 <quotearg_buffer_restyled+0x228>
    829b:	0f 1f 44 00 00       	nop    DWORD PTR [rax+rax*1+0x0]
    82a0:	83 7c 24 08 02       	cmp    DWORD PTR [rsp+0x8],0x2
    82a5:	45 89 d4             	mov    r12d,r10d
    82a8:	0f 94 c2             	sete   dl
    82ab:	45 31 d2             	xor    r10d,r10d
    82ae:	31 c0                	xor    eax,eax
    82b0:	e9 93 fb ff ff       	jmp    7e48 <quotearg_buffer_restyled+0x228>
    82b5:	0f 1f 00             	nop    DWORD PTR [rax]
    82b8:	83 7c 24 08 02       	cmp    DWORD PTR [rsp+0x8],0x2
    82bd:	0f 94 c2             	sete   dl
    82c0:	45 31 d2             	xor    r10d,r10d
    82c3:	e9 c0 fd ff ff       	jmp    8088 <quotearg_buffer_restyled+0x468>
    82c8:	0f 1f 84 00 00 00 00 	nop    DWORD PTR [rax+rax*1+0x0]
    82cf:	00 
    82d0:	83 7c 24 08 02       	cmp    DWORD PTR [rsp+0x8],0x2
    82d5:	0f 94 c2             	sete   dl
    82d8:	45 31 d2             	xor    r10d,r10d
    82db:	45 31 e4             	xor    r12d,r12d
    82de:	e9 ae fd ff ff       	jmp    8091 <quotearg_buffer_restyled+0x471>
    82e3:	0f 1f 44 00 00       	nop    DWORD PTR [rax+rax*1+0x0]
    82e8:	83 7c 24 08 02       	cmp    DWORD PTR [rsp+0x8],0x2
    82ed:	45 89 d4             	mov    r12d,r10d
    82f0:	bb 20 00 00 00       	mov    ebx,0x20
    82f5:	0f 94 c2             	sete   dl
    82f8:	45 31 d2             	xor    r10d,r10d
    82fb:	e9 91 fd ff ff       	jmp    8091 <quotearg_buffer_restyled+0x471>
    8300:	ba 0d 00 00 00       	mov    edx,0xd
    8305:	45 31 d2             	xor    r10d,r10d
    8308:	bb 72 00 00 00       	mov    ebx,0x72
    830d:	e9 30 fc ff ff       	jmp    7f42 <quotearg_buffer_restyled+0x322>
    8312:	66 0f 1f 44 00 00    	nop    WORD PTR [rax+rax*1+0x0]
    8318:	bb 76 00 00 00       	mov    ebx,0x76
    831d:	e9 9e fc ff ff       	jmp    7fc0 <quotearg_buffer_restyled+0x3a0>
    8322:	66 0f 1f 44 00 00    	nop    WORD PTR [rax+rax*1+0x0]
    8328:	ba 09 00 00 00       	mov    edx,0x9
    832d:	45 31 d2             	xor    r10d,r10d
    8330:	bb 74 00 00 00       	mov    ebx,0x74
    8335:	e9 08 fc ff ff       	jmp    7f42 <quotearg_buffer_restyled+0x322>
    833a:	66 0f 1f 44 00 00    	nop    WORD PTR [rax+rax*1+0x0]
    8340:	bb 62 00 00 00       	mov    ebx,0x62
    8345:	e9 76 fc ff ff       	jmp    7fc0 <quotearg_buffer_restyled+0x3a0>
    834a:	66 0f 1f 44 00 00    	nop    WORD PTR [rax+rax*1+0x0]
    8350:	45 31 d2             	xor    r10d,r10d
    8353:	e9 98 fa ff ff       	jmp    7df0 <quotearg_buffer_restyled+0x1d0>
    8358:	0f 1f 84 00 00 00 00 	nop    DWORD PTR [rax+rax*1+0x0]
    835f:	00 
    8360:	80 7c 24 0f 00       	cmp    BYTE PTR [rsp+0xf],0x0
    8365:	0f 85 65 09 00 00    	jne    8cd0 <quotearg_buffer_restyled+0x10b0>
    836b:	48 83 c5 01          	add    rbp,0x1
    836f:	44 89 c0             	mov    eax,r8d
    8372:	45 31 e4             	xor    r12d,r12d
    8375:	bb 5c 00 00 00       	mov    ebx,0x5c
    837a:	e9 0d fb ff ff       	jmp    7e8c <quotearg_buffer_restyled+0x26c>
    837f:	90                   	nop
    8380:	83 7c 24 08 02       	cmp    DWORD PTR [rsp+0x8],0x2
    8385:	0f b6 5c 24 0f       	movzx  ebx,BYTE PTR [rsp+0xf]
    838a:	45 89 c4             	mov    r12d,r8d
    838d:	4c 89 dd             	mov    rbp,r11
    8390:	0f 94 c2             	sete   dl
    8393:	89 d8                	mov    eax,ebx
    8395:	4d 85 ff             	test   r15,r15
    8398:	0f 94 c1             	sete   cl
    839b:	21 d0                	and    eax,edx
    839d:	20 c8                	and    al,cl
    839f:	0f 85 61 0a 00 00    	jne    8e06 <quotearg_buffer_restyled+0x11e6>
    83a5:	89 d8                	mov    eax,ebx
    83a7:	83 f0 01             	xor    eax,0x1
    83aa:	20 c2                	and    dl,al
    83ac:	0f 84 6a 09 00 00    	je     8d1c <quotearg_buffer_restyled+0x10fc>
    83b2:	80 7c 24 7c 00       	cmp    BYTE PTR [rsp+0x7c],0x0
    83b7:	0f 84 5d 09 00 00    	je     8d1a <quotearg_buffer_restyled+0x10fa>
    83bd:	80 7c 24 0e 00       	cmp    BYTE PTR [rsp+0xe],0x0
    83c2:	0f 85 f5 09 00 00    	jne    8dbd <quotearg_buffer_restyled+0x119d>
    83c8:	4d 85 ed             	test   r13,r13
    83cb:	0f 94 c0             	sete   al
    83ce:	48 83 7c 24 50 00    	cmp    QWORD PTR [rsp+0x50],0x0
    83d4:	0f 95 c2             	setne  dl
    83d7:	20 d0                	and    al,dl
    83d9:	0f 84 1d 0a 00 00    	je     8dfc <quotearg_buffer_restyled+0x11dc>
    83df:	4c 8b 6c 24 50       	mov    r13,QWORD PTR [rsp+0x50]
    83e4:	48 8d 1d 4a 2f 00 00 	lea    rbx,[rip+0x2f4a]        # b335 <fillbuf+0xd5>
    83eb:	41 c6 06 27          	mov    BYTE PTR [r14],0x27
    83ef:	c7 44 24 08 02 00 00 	mov    DWORD PTR [rsp+0x8],0x2
    83f6:	00 
    83f7:	41 bf 01 00 00 00    	mov    r15d,0x1
    83fd:	48 c7 44 24 18 01 00 	mov    QWORD PTR [rsp+0x18],0x1
    8404:	00 00 
    8406:	c6 44 24 0f 00       	mov    BYTE PTR [rsp+0xf],0x0
    840b:	48 89 5c 24 48       	mov    QWORD PTR [rsp+0x48],rbx
    8410:	88 44 24 7c          	mov    BYTE PTR [rsp+0x7c],al
    8414:	e9 da f8 ff ff       	jmp    7cf3 <quotearg_buffer_restyled+0xd3>
    8419:	0f 1f 80 00 00 00 00 	nop    DWORD PTR [rax+0x0]
    8420:	80 7c 24 0f 00       	cmp    BYTE PTR [rsp+0xf],0x0
    8425:	0f 85 a5 08 00 00    	jne    8cd0 <quotearg_buffer_restyled+0x10b0>
    842b:	4d 85 ed             	test   r13,r13
    842e:	0f 84 fc 03 00 00    	je     8830 <quotearg_buffer_restyled+0xc10>
    8434:	31 d2                	xor    edx,edx
    8436:	48 83 7c 24 50 00    	cmp    QWORD PTR [rsp+0x50],0x0
    843c:	0f 85 ee 03 00 00    	jne    8830 <quotearg_buffer_restyled+0xc10>
    8442:	4c 89 6c 24 50       	mov    QWORD PTR [rsp+0x50],r13
    8447:	49 83 c7 03          	add    r15,0x3
    844b:	31 c0                	xor    eax,eax
    844d:	44 88 64 24 7c       	mov    BYTE PTR [rsp+0x7c],r12b
    8452:	45 31 c0             	xor    r8d,r8d
    8455:	49 89 d5             	mov    r13,rdx
    8458:	bb 27 00 00 00       	mov    ebx,0x27
    845d:	e9 17 fa ff ff       	jmp    7e79 <quotearg_buffer_restyled+0x259>
    8462:	66 0f 1f 44 00 00    	nop    WORD PTR [rax+rax*1+0x0]
    8468:	f6 44 24 78 04       	test   BYTE PTR [rsp+0x78],0x4
    846d:	74 21                	je     8490 <quotearg_buffer_restyled+0x870>
    846f:	48 8d 4d 02          	lea    rcx,[rbp+0x2]
    8473:	4c 39 d9             	cmp    rcx,r11
    8476:	73 18                	jae    8490 <quotearg_buffer_restyled+0x870>
    8478:	48 8b 44 24 10       	mov    rax,QWORD PTR [rsp+0x10]
    847d:	80 7c 28 01 3f       	cmp    BYTE PTR [rax+rbp*1+0x1],0x3f
    8482:	0f 84 8a 07 00 00    	je     8c12 <quotearg_buffer_restyled+0xff2>
    8488:	0f 1f 84 00 00 00 00 	nop    DWORD PTR [rax+rax*1+0x0]
    848f:	00 
    8490:	31 d2                	xor    edx,edx
    8492:	45 31 e4             	xor    r12d,r12d
    8495:	31 c0                	xor    eax,eax
    8497:	bb 3f 00 00 00       	mov    ebx,0x3f
    849c:	e9 a7 f9 ff ff       	jmp    7e48 <quotearg_buffer_restyled+0x228>
    84a1:	0f 1f 80 00 00 00 00 	nop    DWORD PTR [rax+0x0]
    84a8:	80 7c 24 0f 00       	cmp    BYTE PTR [rsp+0xf],0x0
    84ad:	0f 85 1d 08 00 00    	jne    8cd0 <quotearg_buffer_restyled+0x10b0>
    84b3:	45 31 e4             	xor    r12d,r12d
    84b6:	31 c0                	xor    eax,eax
    84b8:	bb 3f 00 00 00       	mov    ebx,0x3f
    84bd:	e9 b7 f9 ff ff       	jmp    7e79 <quotearg_buffer_restyled+0x259>
    84c2:	66 0f 1f 44 00 00    	nop    WORD PTR [rax+rax*1+0x0]
    84c8:	48 8d 84 24 a0 00 00 	lea    rax,[rsp+0xa0]
    84cf:	00 
    84d0:	49 83 fb ff          	cmp    r11,0xffffffffffffffff
    84d4:	48 c7 84 24 a0 00 00 	mov    QWORD PTR [rsp+0xa0],0x0
    84db:	00 00 00 00 00 
    84e0:	48 89 44 24 28       	mov    QWORD PTR [rsp+0x28],rax
    84e5:	75 2d                	jne    8514 <quotearg_buffer_restyled+0x8f4>
    84e7:	48 8b 7c 24 10       	mov    rdi,QWORD PTR [rsp+0x10]
    84ec:	44 88 44 24 40       	mov    BYTE PTR [rsp+0x40],r8b
    84f1:	44 88 54 24 38       	mov    BYTE PTR [rsp+0x38],r10b
    84f6:	4c 89 4c 24 30       	mov    QWORD PTR [rsp+0x30],r9
    84fb:	e8 80 91 ff ff       	call   1680 <strlen@plt>
    8500:	44 0f b6 44 24 40    	movzx  r8d,BYTE PTR [rsp+0x40]
    8506:	44 0f b6 54 24 38    	movzx  r10d,BYTE PTR [rsp+0x38]
    850c:	49 89 c3             	mov    r11,rax
    850f:	4c 8b 4c 24 30       	mov    r9,QWORD PTR [rsp+0x30]
    8514:	48 8d 84 24 9c 00 00 	lea    rax,[rsp+0x9c]
    851b:	00 
    851c:	31 c9                	xor    ecx,ecx
    851e:	88 5c 24 7e          	mov    BYTE PTR [rsp+0x7e],bl
    8522:	44 88 44 24 7d       	mov    BYTE PTR [rsp+0x7d],r8b
    8527:	48 89 cb             	mov    rbx,rcx
    852a:	4c 89 8c 24 88 00 00 	mov    QWORD PTR [rsp+0x88],r9
    8531:	00 
    8532:	48 89 44 24 38       	mov    QWORD PTR [rsp+0x38],rax
    8537:	44 88 54 24 7f       	mov    BYTE PTR [rsp+0x7f],r10b
    853c:	4c 89 bc 24 80 00 00 	mov    QWORD PTR [rsp+0x80],r15
    8543:	00 
    8544:	4c 89 74 24 40       	mov    QWORD PTR [rsp+0x40],r14
    8549:	4c 89 6c 24 70       	mov    QWORD PTR [rsp+0x70],r13
    854e:	4c 89 5c 24 30       	mov    QWORD PTR [rsp+0x30],r11
    8553:	48 8b 44 24 10       	mov    rax,QWORD PTR [rsp+0x10]
    8558:	4c 8d 74 1d 00       	lea    r14,[rbp+rbx*1+0x0]
    855d:	48 8b 54 24 30       	mov    rdx,QWORD PTR [rsp+0x30]
    8562:	48 8b 4c 24 28       	mov    rcx,QWORD PTR [rsp+0x28]
    8567:	48 8b 7c 24 38       	mov    rdi,QWORD PTR [rsp+0x38]
    856c:	4e 8d 2c 30          	lea    r13,[rax+r14*1]
    8570:	4c 29 f2             	sub    rdx,r14
    8573:	4c 89 ee             	mov    rsi,r13
    8576:	e8 a5 1e 00 00       	call   a420 <rpl_mbrtowc>
    857b:	48 85 c0             	test   rax,rax
    857e:	49 89 c7             	mov    r15,rax
    8581:	74 4e                	je     85d1 <quotearg_buffer_restyled+0x9b1>
    8583:	48 83 f8 ff          	cmp    rax,0xffffffffffffffff
    8587:	0f 84 18 06 00 00    	je     8ba5 <quotearg_buffer_restyled+0xf85>
    858d:	48 83 f8 fe          	cmp    rax,0xfffffffffffffffe
    8591:	0f 84 9a 05 00 00    	je     8b31 <quotearg_buffer_restyled+0xf11>
    8597:	83 7c 24 08 02       	cmp    DWORD PTR [rsp+0x8],0x2
    859c:	0f 94 c0             	sete   al
    859f:	22 44 24 0f          	and    al,BYTE PTR [rsp+0xf]
    85a3:	0f 85 97 01 00 00    	jne    8740 <quotearg_buffer_restyled+0xb20>
    85a9:	8b bc 24 9c 00 00 00 	mov    edi,DWORD PTR [rsp+0x9c]
    85b0:	e8 0b 93 ff ff       	call   18c0 <iswprint@plt>
    85b5:	48 8b 7c 24 28       	mov    rdi,QWORD PTR [rsp+0x28]
    85ba:	85 c0                	test   eax,eax
    85bc:	b8 00 00 00 00       	mov    eax,0x0
    85c1:	44 0f 44 e0          	cmove  r12d,eax
    85c5:	4c 01 fb             	add    rbx,r15
    85c8:	e8 e3 92 ff ff       	call   18b0 <mbsinit@plt>
    85cd:	85 c0                	test   eax,eax
    85cf:	74 82                	je     8553 <quotearg_buffer_restyled+0x933>
    85d1:	44 89 e2             	mov    edx,r12d
    85d4:	48 89 df             	mov    rdi,rbx
    85d7:	44 0f b6 44 24 7d    	movzx  r8d,BYTE PTR [rsp+0x7d]
    85dd:	83 f2 01             	xor    edx,0x1
    85e0:	0f b6 5c 24 7e       	movzx  ebx,BYTE PTR [rsp+0x7e]
    85e5:	44 0f b6 54 24 7f    	movzx  r10d,BYTE PTR [rsp+0x7f]
    85eb:	22 54 24 0d          	and    dl,BYTE PTR [rsp+0xd]
    85ef:	4c 8b bc 24 80 00 00 	mov    r15,QWORD PTR [rsp+0x80]
    85f6:	00 
    85f7:	4c 8b 74 24 40       	mov    r14,QWORD PTR [rsp+0x40]
    85fc:	4c 8b 6c 24 70       	mov    r13,QWORD PTR [rsp+0x70]
    8601:	4c 8b 5c 24 30       	mov    r11,QWORD PTR [rsp+0x30]
    8606:	48 83 ff 01          	cmp    rdi,0x1
    860a:	0f 86 fb 05 00 00    	jbe    8c0b <quotearg_buffer_restyled+0xfeb>
    8610:	48 89 f9             	mov    rcx,rdi
    8613:	31 f6                	xor    esi,esi
    8615:	44 0f b6 4c 24 0f    	movzx  r9d,BYTE PTR [rsp+0xf]
    861b:	48 01 e9             	add    rcx,rbp
    861e:	48 8b 7c 24 10       	mov    rdi,QWORD PTR [rsp+0x10]
    8623:	e9 b6 00 00 00       	jmp    86de <quotearg_buffer_restyled+0xabe>
    8628:	0f 1f 84 00 00 00 00 	nop    DWORD PTR [rax+rax*1+0x0]
    862f:	00 
    8630:	83 7c 24 08 02       	cmp    DWORD PTR [rsp+0x8],0x2
    8635:	0f 94 c0             	sete   al
    8638:	45 84 c9             	test   r9b,r9b
    863b:	0f 85 af 04 00 00    	jne    8af0 <quotearg_buffer_restyled+0xed0>
    8641:	44 89 c6             	mov    esi,r8d
    8644:	83 f6 01             	xor    esi,0x1
    8647:	40 20 f0             	and    al,sil
    864a:	74 2f                	je     867b <quotearg_buffer_restyled+0xa5b>
    864c:	4d 39 fd             	cmp    r13,r15
    864f:	76 05                	jbe    8656 <quotearg_buffer_restyled+0xa36>
    8651:	43 c6 04 3e 27       	mov    BYTE PTR [r14+r15*1],0x27
    8656:	49 8d 77 01          	lea    rsi,[r15+0x1]
    865a:	49 39 f5             	cmp    r13,rsi
    865d:	76 06                	jbe    8665 <quotearg_buffer_restyled+0xa45>
    865f:	43 c6 44 3e 01 24    	mov    BYTE PTR [r14+r15*1+0x1],0x24
    8665:	49 8d 77 02          	lea    rsi,[r15+0x2]
    8669:	49 39 f5             	cmp    r13,rsi
    866c:	76 06                	jbe    8674 <quotearg_buffer_restyled+0xa54>
    866e:	43 c6 44 3e 02 27    	mov    BYTE PTR [r14+r15*1+0x2],0x27
    8674:	49 83 c7 03          	add    r15,0x3
    8678:	41 89 c0             	mov    r8d,eax
    867b:	4d 39 fd             	cmp    r13,r15
    867e:	76 05                	jbe    8685 <quotearg_buffer_restyled+0xa65>
    8680:	43 c6 04 3e 5c       	mov    BYTE PTR [r14+r15*1],0x5c
    8685:	49 8d 47 01          	lea    rax,[r15+0x1]
    8689:	49 39 c5             	cmp    r13,rax
    868c:	76 0d                	jbe    869b <quotearg_buffer_restyled+0xa7b>
    868e:	89 d8                	mov    eax,ebx
    8690:	c0 e8 06             	shr    al,0x6
    8693:	83 c0 30             	add    eax,0x30
    8696:	43 88 44 3e 01       	mov    BYTE PTR [r14+r15*1+0x1],al
    869b:	49 8d 47 02          	lea    rax,[r15+0x2]
    869f:	49 39 c5             	cmp    r13,rax
    86a2:	76 10                	jbe    86b4 <quotearg_buffer_restyled+0xa94>
    86a4:	89 d8                	mov    eax,ebx
    86a6:	c0 e8 03             	shr    al,0x3
    86a9:	83 e0 07             	and    eax,0x7
    86ac:	83 c0 30             	add    eax,0x30
    86af:	43 88 44 3e 02       	mov    BYTE PTR [r14+r15*1+0x2],al
    86b4:	83 e3 07             	and    ebx,0x7
    86b7:	48 83 c5 01          	add    rbp,0x1
    86bb:	49 83 c7 03          	add    r15,0x3
    86bf:	83 c3 30             	add    ebx,0x30
    86c2:	48 39 cd             	cmp    rbp,rcx
    86c5:	0f 83 e5 f7 ff ff    	jae    7eb0 <quotearg_buffer_restyled+0x290>
    86cb:	89 d6                	mov    esi,edx
    86cd:	4d 39 fd             	cmp    r13,r15
    86d0:	76 04                	jbe    86d6 <quotearg_buffer_restyled+0xab6>
    86d2:	43 88 1c 3e          	mov    BYTE PTR [r14+r15*1],bl
    86d6:	0f b6 1c 2f          	movzx  ebx,BYTE PTR [rdi+rbp*1]
    86da:	49 83 c7 01          	add    r15,0x1
    86de:	84 d2                	test   dl,dl
    86e0:	0f 85 4a ff ff ff    	jne    8630 <quotearg_buffer_restyled+0xa10>
    86e6:	89 f0                	mov    eax,esi
    86e8:	83 f0 01             	xor    eax,0x1
    86eb:	44 21 c0             	and    eax,r8d
    86ee:	45 84 d2             	test   r10b,r10b
    86f1:	74 0e                	je     8701 <quotearg_buffer_restyled+0xae1>
    86f3:	4d 39 fd             	cmp    r13,r15
    86f6:	76 05                	jbe    86fd <quotearg_buffer_restyled+0xadd>
    86f8:	43 c6 04 3e 5c       	mov    BYTE PTR [r14+r15*1],0x5c
    86fd:	49 83 c7 01          	add    r15,0x1
    8701:	48 83 c5 01          	add    rbp,0x1
    8705:	48 39 cd             	cmp    rbp,rcx
    8708:	0f 83 7e f7 ff ff    	jae    7e8c <quotearg_buffer_restyled+0x26c>
    870e:	84 c0                	test   al,al
    8710:	0f 84 f8 03 00 00    	je     8b0e <quotearg_buffer_restyled+0xeee>
    8716:	4d 39 fd             	cmp    r13,r15
    8719:	76 05                	jbe    8720 <quotearg_buffer_restyled+0xb00>
    871b:	43 c6 04 3e 27       	mov    BYTE PTR [r14+r15*1],0x27
    8720:	49 8d 47 01          	lea    rax,[r15+0x1]
    8724:	49 39 c5             	cmp    r13,rax
    8727:	76 06                	jbe    872f <quotearg_buffer_restyled+0xb0f>
    8729:	43 c6 44 3e 01 27    	mov    BYTE PTR [r14+r15*1+0x1],0x27
    872f:	49 83 c7 02          	add    r15,0x2
    8733:	45 31 d2             	xor    r10d,r10d
    8736:	45 31 c0             	xor    r8d,r8d
    8739:	eb 92                	jmp    86cd <quotearg_buffer_restyled+0xaad>
    873b:	0f 1f 44 00 00       	nop    DWORD PTR [rax+rax*1+0x0]
    8740:	49 83 ff 01          	cmp    r15,0x1
    8744:	0f 84 5f fe ff ff    	je     85a9 <quotearg_buffer_restyled+0x989>
    874a:	48 8b 7c 24 10       	mov    rdi,QWORD PTR [rsp+0x10]
    874f:	4a 8d 0c 3f          	lea    rcx,[rdi+r15*1]
    8753:	4a 8d 54 37 01       	lea    rdx,[rdi+r14*1+0x1]
    8758:	4e 8d 04 31          	lea    r8,[rcx+r14*1]
    875c:	eb 0f                	jmp    876d <quotearg_buffer_restyled+0xb4d>
    875e:	66 90                	xchg   ax,ax
    8760:	48 83 c2 01          	add    rdx,0x1
    8764:	49 39 d0             	cmp    r8,rdx
    8767:	0f 84 3c fe ff ff    	je     85a9 <quotearg_buffer_restyled+0x989>
    876d:	0f b6 0a             	movzx  ecx,BYTE PTR [rdx]
    8770:	83 e9 5b             	sub    ecx,0x5b
    8773:	80 f9 21             	cmp    cl,0x21
    8776:	77 e8                	ja     8760 <quotearg_buffer_restyled+0xb40>
    8778:	be 01 00 00 00       	mov    esi,0x1
    877d:	48 d3 e6             	shl    rsi,cl
    8780:	48 89 f1             	mov    rcx,rsi
    8783:	48 be 2b 00 00 00 02 	movabs rsi,0x20000002b
    878a:	00 00 00 
    878d:	48 85 f1             	test   rcx,rsi
    8790:	74 ce                	je     8760 <quotearg_buffer_restyled+0xb40>
    8792:	4c 8b 74 24 40       	mov    r14,QWORD PTR [rsp+0x40]
    8797:	4c 8b 6c 24 70       	mov    r13,QWORD PTR [rsp+0x70]
    879c:	48 8b 6c 24 30       	mov    rbp,QWORD PTR [rsp+0x30]
    87a1:	c7 44 24 08 02 00 00 	mov    DWORD PTR [rsp+0x8],0x2
    87a8:	00 
    87a9:	80 7c 24 0d 00       	cmp    BYTE PTR [rsp+0xd],0x0
    87ae:	74 10                	je     87c0 <quotearg_buffer_restyled+0xba0>
    87b0:	84 c0                	test   al,al
    87b2:	b8 04 00 00 00       	mov    eax,0x4
    87b7:	0f 44 44 24 08       	cmove  eax,DWORD PTR [rsp+0x8]
    87bc:	89 44 24 08          	mov    DWORD PTR [rsp+0x8],eax
    87c0:	48 83 ec 08          	sub    rsp,0x8
    87c4:	48 89 e9             	mov    rcx,rbp
    87c7:	4c 89 ee             	mov    rsi,r13
    87ca:	ff 74 24 68          	push   QWORD PTR [rsp+0x68]
    87ce:	ff 74 24 78          	push   QWORD PTR [rsp+0x78]
    87d2:	4c 89 f7             	mov    rdi,r14
    87d5:	6a 00                	push   0x0
    87d7:	44 8b 8c 24 98 00 00 	mov    r9d,DWORD PTR [rsp+0x98]
    87de:	00 
    87df:	44 8b 44 24 28       	mov    r8d,DWORD PTR [rsp+0x28]
    87e4:	48 8b 54 24 30       	mov    rdx,QWORD PTR [rsp+0x30]
    87e9:	41 83 e1 fd          	and    r9d,0xfffffffd
    87ed:	e8 2e f4 ff ff       	call   7c20 <quotearg_buffer_restyled>
    87f2:	48 83 c4 20          	add    rsp,0x20
    87f6:	49 89 c7             	mov    r15,rax
    87f9:	48 8b 9c 24 a8 00 00 	mov    rbx,QWORD PTR [rsp+0xa8]
    8800:	00 
    8801:	64 48 33 1c 25 28 00 	xor    rbx,QWORD PTR fs:0x28
    8808:	00 00 
    880a:	4c 89 f8             	mov    rax,r15
    880d:	0f 85 00 06 00 00    	jne    8e13 <quotearg_buffer_restyled+0x11f3>
    8813:	48 81 c4 b8 00 00 00 	add    rsp,0xb8
    881a:	5b                   	pop    rbx
    881b:	5d                   	pop    rbp
    881c:	41 5c                	pop    r12
    881e:	41 5d                	pop    r13
    8820:	41 5e                	pop    r14
    8822:	41 5f                	pop    r15
    8824:	c3                   	ret    
    8825:	0f 1f 00             	nop    DWORD PTR [rax]
    8828:	4c 89 dd             	mov    rbp,r11
    882b:	e9 79 ff ff ff       	jmp    87a9 <quotearg_buffer_restyled+0xb89>
    8830:	4d 39 fd             	cmp    r13,r15
    8833:	76 05                	jbe    883a <quotearg_buffer_restyled+0xc1a>
    8835:	43 c6 04 3e 27       	mov    BYTE PTR [r14+r15*1],0x27
    883a:	49 8d 47 01          	lea    rax,[r15+0x1]
    883e:	49 39 c5             	cmp    r13,rax
    8841:	76 06                	jbe    8849 <quotearg_buffer_restyled+0xc29>
    8843:	43 c6 44 3e 01 5c    	mov    BYTE PTR [r14+r15*1+0x1],0x5c
    8849:	49 8d 47 02          	lea    rax,[r15+0x2]
    884d:	49 39 c5             	cmp    r13,rax
    8850:	0f 86 ec 05 00 00    	jbe    8e42 <quotearg_buffer_restyled+0x1222>
    8856:	4c 89 ea             	mov    rdx,r13
    8859:	43 c6 44 3e 02 27    	mov    BYTE PTR [r14+r15*1+0x2],0x27
    885f:	4c 8b 6c 24 50       	mov    r13,QWORD PTR [rsp+0x50]
    8864:	e9 d9 fb ff ff       	jmp    8442 <quotearg_buffer_restyled+0x822>
    8869:	44 89 e0             	mov    eax,r12d
    886c:	bb 30 00 00 00       	mov    ebx,0x30
    8871:	45 31 e4             	xor    r12d,r12d
    8874:	e9 00 f6 ff ff       	jmp    7e79 <quotearg_buffer_restyled+0x259>
    8879:	43 c6 44 3e 02 27    	mov    BYTE PTR [r14+r15*1+0x2],0x27
    887f:	e9 c5 f9 ff ff       	jmp    8249 <quotearg_buffer_restyled+0x629>
    8884:	85 db                	test   ebx,ebx
    8886:	0f 85 27 f4 ff ff    	jne    7cb3 <quotearg_buffer_restyled+0x93>
    888c:	c6 44 24 0d 01       	mov    BYTE PTR [rsp+0xd],0x1
    8891:	4d 85 ed             	test   r13,r13
    8894:	0f 85 90 05 00 00    	jne    8e2a <quotearg_buffer_restyled+0x120a>
    889a:	48 8d 05 94 2a 00 00 	lea    rax,[rip+0x2a94]        # b335 <fillbuf+0xd5>
    88a1:	48 c7 44 24 50 00 00 	mov    QWORD PTR [rsp+0x50],0x0
    88a8:	00 00 
    88aa:	c6 44 24 0e 01       	mov    BYTE PTR [rsp+0xe],0x1
    88af:	c6 44 24 7c 00       	mov    BYTE PTR [rsp+0x7c],0x0
    88b4:	45 31 e4             	xor    r12d,r12d
    88b7:	c6 44 24 0f 00       	mov    BYTE PTR [rsp+0xf],0x0
    88bc:	48 c7 44 24 18 01 00 	mov    QWORD PTR [rsp+0x18],0x1
    88c3:	00 00 
    88c5:	48 89 44 24 48       	mov    QWORD PTR [rsp+0x48],rax
    88ca:	41 bf 01 00 00 00    	mov    r15d,0x1
    88d0:	c7 44 24 08 02 00 00 	mov    DWORD PTR [rsp+0x8],0x2
    88d7:	00 
    88d8:	e9 16 f4 ff ff       	jmp    7cf3 <quotearg_buffer_restyled+0xd3>
    88dd:	0f 1f 00             	nop    DWORD PTR [rax]
    88e0:	85 db                	test   ebx,ebx
    88e2:	0f 85 f5 03 00 00    	jne    8cdd <quotearg_buffer_restyled+0x10bd>
    88e8:	4d 85 ed             	test   r13,r13
    88eb:	0f 84 25 02 00 00    	je     8b16 <quotearg_buffer_restyled+0xef6>
    88f1:	41 c6 06 22          	mov    BYTE PTR [r14],0x22
    88f5:	c6 44 24 0e 01       	mov    BYTE PTR [rsp+0xe],0x1
    88fa:	45 31 e4             	xor    r12d,r12d
    88fd:	c6 44 24 7c 00       	mov    BYTE PTR [rsp+0x7c],0x0
    8902:	48 c7 44 24 50 00 00 	mov    QWORD PTR [rsp+0x50],0x0
    8909:	00 00 
    890b:	48 8d 05 21 2a 00 00 	lea    rax,[rip+0x2a21]        # b333 <fillbuf+0xd3>
    8912:	c6 44 24 0f 00       	mov    BYTE PTR [rsp+0xf],0x0
    8917:	c6 44 24 0d 01       	mov    BYTE PTR [rsp+0xd],0x1
    891c:	48 c7 44 24 18 01 00 	mov    QWORD PTR [rsp+0x18],0x1
    8923:	00 00 
    8925:	41 bf 01 00 00 00    	mov    r15d,0x1
    892b:	48 89 44 24 48       	mov    QWORD PTR [rsp+0x48],rax
    8930:	e9 be f3 ff ff       	jmp    7cf3 <quotearg_buffer_restyled+0xd3>
    8935:	48 8d 05 f7 29 00 00 	lea    rax,[rip+0x29f7]        # b333 <fillbuf+0xd3>
    893c:	c6 44 24 0e 01       	mov    BYTE PTR [rsp+0xe],0x1
    8941:	c6 44 24 7c 00       	mov    BYTE PTR [rsp+0x7c],0x0
    8946:	45 31 e4             	xor    r12d,r12d
    8949:	48 c7 44 24 50 00 00 	mov    QWORD PTR [rsp+0x50],0x0
    8950:	00 00 
    8952:	c6 44 24 0f 01       	mov    BYTE PTR [rsp+0xf],0x1
    8957:	c6 44 24 0d 01       	mov    BYTE PTR [rsp+0xd],0x1
    895c:	48 c7 44 24 18 01 00 	mov    QWORD PTR [rsp+0x18],0x1
    8963:	00 00 
    8965:	45 31 ff             	xor    r15d,r15d
    8968:	48 89 44 24 48       	mov    QWORD PTR [rsp+0x48],rax
    896d:	c7 44 24 08 05 00 00 	mov    DWORD PTR [rsp+0x8],0x5
    8974:	00 
    8975:	e9 79 f3 ff ff       	jmp    7cf3 <quotearg_buffer_restyled+0xd3>
    897a:	c6 44 24 0e 01       	mov    BYTE PTR [rsp+0xe],0x1
    897f:	c6 44 24 7c 00       	mov    BYTE PTR [rsp+0x7c],0x0
    8984:	45 31 e4             	xor    r12d,r12d
    8987:	48 c7 44 24 50 00 00 	mov    QWORD PTR [rsp+0x50],0x0
    898e:	00 00 
    8990:	c6 44 24 0f 00       	mov    BYTE PTR [rsp+0xf],0x0
    8995:	45 31 ff             	xor    r15d,r15d
    8998:	c6 44 24 0d 01       	mov    BYTE PTR [rsp+0xd],0x1
    899d:	48 c7 44 24 18 00 00 	mov    QWORD PTR [rsp+0x18],0x0
    89a4:	00 00 
    89a6:	48 c7 44 24 48 00 00 	mov    QWORD PTR [rsp+0x48],0x0
    89ad:	00 00 
    89af:	e9 3f f3 ff ff       	jmp    7cf3 <quotearg_buffer_restyled+0xd3>
    89b4:	83 7c 24 08 0a       	cmp    DWORD PTR [rsp+0x8],0xa
    89b9:	74 56                	je     8a11 <quotearg_buffer_restyled+0xdf1>
    89bb:	48 8d 35 75 29 00 00 	lea    rsi,[rip+0x2975]        # b337 <fillbuf+0xd7>
    89c2:	31 ff                	xor    edi,edi
    89c4:	ba 05 00 00 00       	mov    edx,0x5
    89c9:	e8 92 8c ff ff       	call   1660 <dcgettext@plt>
    89ce:	48 89 c1             	mov    rcx,rax
    89d1:	48 89 44 24 68       	mov    QWORD PTR [rsp+0x68],rax
    89d6:	48 8d 05 5a 29 00 00 	lea    rax,[rip+0x295a]        # b337 <fillbuf+0xd7>
    89dd:	48 39 c1             	cmp    rcx,rax
    89e0:	0f 84 98 03 00 00    	je     8d7e <quotearg_buffer_restyled+0x115e>
    89e6:	48 8d 35 48 29 00 00 	lea    rsi,[rip+0x2948]        # b335 <fillbuf+0xd5>
    89ed:	31 ff                	xor    edi,edi
    89ef:	ba 05 00 00 00       	mov    edx,0x5
    89f4:	e8 67 8c ff ff       	call   1660 <dcgettext@plt>
    89f9:	48 89 c1             	mov    rcx,rax
    89fc:	48 89 44 24 60       	mov    QWORD PTR [rsp+0x60],rax
    8a01:	48 8d 05 2d 29 00 00 	lea    rax,[rip+0x292d]        # b335 <fillbuf+0xd5>
    8a08:	48 39 c1             	cmp    rcx,rax
    8a0b:	0f 84 83 03 00 00    	je     8d94 <quotearg_buffer_restyled+0x1174>
    8a11:	45 31 ff             	xor    r15d,r15d
    8a14:	85 db                	test   ebx,ebx
    8a16:	0f 84 c1 01 00 00    	je     8bdd <quotearg_buffer_restyled+0xfbd>
    8a1c:	85 db                	test   ebx,ebx
    8a1e:	48 8b 5c 24 60       	mov    rbx,QWORD PTR [rsp+0x60]
    8a23:	0f 95 44 24 0f       	setne  BYTE PTR [rsp+0xf]
    8a28:	45 31 e4             	xor    r12d,r12d
    8a2b:	48 89 df             	mov    rdi,rbx
    8a2e:	e8 4d 8c ff ff       	call   1680 <strlen@plt>
    8a33:	48 89 5c 24 48       	mov    QWORD PTR [rsp+0x48],rbx
    8a38:	48 89 44 24 18       	mov    QWORD PTR [rsp+0x18],rax
    8a3d:	c6 44 24 0e 01       	mov    BYTE PTR [rsp+0xe],0x1
    8a42:	c6 44 24 7c 00       	mov    BYTE PTR [rsp+0x7c],0x0
    8a47:	48 c7 44 24 50 00 00 	mov    QWORD PTR [rsp+0x50],0x0
    8a4e:	00 00 
    8a50:	c6 44 24 0d 01       	mov    BYTE PTR [rsp+0xd],0x1
    8a55:	e9 99 f2 ff ff       	jmp    7cf3 <quotearg_buffer_restyled+0xd3>
    8a5a:	c6 44 24 0e 01       	mov    BYTE PTR [rsp+0xe],0x1
    8a5f:	c6 44 24 7c 00       	mov    BYTE PTR [rsp+0x7c],0x0
    8a64:	45 31 e4             	xor    r12d,r12d
    8a67:	48 c7 44 24 50 00 00 	mov    QWORD PTR [rsp+0x50],0x0
    8a6e:	00 00 
    8a70:	c6 44 24 0f 00       	mov    BYTE PTR [rsp+0xf],0x0
    8a75:	45 31 ff             	xor    r15d,r15d
    8a78:	c6 44 24 0d 00       	mov    BYTE PTR [rsp+0xd],0x0
    8a7d:	48 c7 44 24 18 00 00 	mov    QWORD PTR [rsp+0x18],0x0
    8a84:	00 00 
    8a86:	48 c7 44 24 48 00 00 	mov    QWORD PTR [rsp+0x48],0x0
    8a8d:	00 00 
    8a8f:	e9 5f f2 ff ff       	jmp    7cf3 <quotearg_buffer_restyled+0xd3>
    8a94:	c6 44 24 0e 01       	mov    BYTE PTR [rsp+0xe],0x1
    8a99:	c6 44 24 7c 00       	mov    BYTE PTR [rsp+0x7c],0x0
    8a9e:	45 31 e4             	xor    r12d,r12d
    8aa1:	48 c7 44 24 50 00 00 	mov    QWORD PTR [rsp+0x50],0x0
    8aa8:	00 00 
    8aaa:	c6 44 24 0f 01       	mov    BYTE PTR [rsp+0xf],0x1
    8aaf:	c6 44 24 0d 01       	mov    BYTE PTR [rsp+0xd],0x1
    8ab4:	e9 1a f2 ff ff       	jmp    7cd3 <quotearg_buffer_restyled+0xb3>
    8ab9:	4d 39 fd             	cmp    r13,r15
    8abc:	76 05                	jbe    8ac3 <quotearg_buffer_restyled+0xea3>
    8abe:	43 c6 04 3e 30       	mov    BYTE PTR [r14+r15*1],0x30
    8ac3:	48 8d 41 02          	lea    rax,[rcx+0x2]
    8ac7:	49 39 c5             	cmp    r13,rax
    8aca:	76 06                	jbe    8ad2 <quotearg_buffer_restyled+0xeb2>
    8acc:	41 c6 44 0e 02 30    	mov    BYTE PTR [r14+rcx*1+0x2],0x30
    8ad2:	44 89 e0             	mov    eax,r12d
    8ad5:	4c 8d 79 03          	lea    r15,[rcx+0x3]
    8ad9:	45 31 e4             	xor    r12d,r12d
    8adc:	bb 30 00 00 00       	mov    ebx,0x30
    8ae1:	e9 62 f3 ff ff       	jmp    7e48 <quotearg_buffer_restyled+0x228>
    8ae6:	66 2e 0f 1f 84 00 00 	nop    WORD PTR cs:[rax+rax*1+0x0]
    8aed:	00 00 00 
    8af0:	0f b6 5c 24 0f       	movzx  ebx,BYTE PTR [rsp+0xf]
    8af5:	4c 89 dd             	mov    rbp,r11
    8af8:	88 5c 24 0d          	mov    BYTE PTR [rsp+0xd],bl
    8afc:	e9 a8 fc ff ff       	jmp    87a9 <quotearg_buffer_restyled+0xb89>
    8b01:	0f b6 54 24 0d       	movzx  edx,BYTE PTR [rsp+0xd]
    8b06:	45 31 e4             	xor    r12d,r12d
    8b09:	e9 02 fb ff ff       	jmp    8610 <quotearg_buffer_restyled+0x9f0>
    8b0e:	45 31 d2             	xor    r10d,r10d
    8b11:	e9 b7 fb ff ff       	jmp    86cd <quotearg_buffer_restyled+0xaad>
    8b16:	48 c7 44 24 50 00 00 	mov    QWORD PTR [rsp+0x50],0x0
    8b1d:	00 00 
    8b1f:	c6 44 24 0e 01       	mov    BYTE PTR [rsp+0xe],0x1
    8b24:	45 31 e4             	xor    r12d,r12d
    8b27:	c6 44 24 7c 00       	mov    BYTE PTR [rsp+0x7c],0x0
    8b2c:	e9 da fd ff ff       	jmp    890b <quotearg_buffer_restyled+0xceb>
    8b31:	4c 8b 5c 24 30       	mov    r11,QWORD PTR [rsp+0x30]
    8b36:	4c 89 f6             	mov    rsi,r14
    8b39:	4c 89 e9             	mov    rcx,r13
    8b3c:	48 89 d8             	mov    rax,rbx
    8b3f:	48 89 df             	mov    rdi,rbx
    8b42:	44 0f b6 44 24 7d    	movzx  r8d,BYTE PTR [rsp+0x7d]
    8b48:	0f b6 5c 24 7e       	movzx  ebx,BYTE PTR [rsp+0x7e]
    8b4d:	4c 8b 8c 24 88 00 00 	mov    r9,QWORD PTR [rsp+0x88]
    8b54:	00 
    8b55:	4c 39 de             	cmp    rsi,r11
    8b58:	44 0f b6 54 24 7f    	movzx  r10d,BYTE PTR [rsp+0x7f]
    8b5e:	4c 8b bc 24 80 00 00 	mov    r15,QWORD PTR [rsp+0x80]
    8b65:	00 
    8b66:	4c 8b 74 24 40       	mov    r14,QWORD PTR [rsp+0x40]
    8b6b:	4c 8b 6c 24 70       	mov    r13,QWORD PTR [rsp+0x70]
    8b70:	73 26                	jae    8b98 <quotearg_buffer_restyled+0xf78>
    8b72:	80 39 00             	cmp    BYTE PTR [rcx],0x0
    8b75:	75 10                	jne    8b87 <quotearg_buffer_restyled+0xf67>
    8b77:	eb 1f                	jmp    8b98 <quotearg_buffer_restyled+0xf78>
    8b79:	0f 1f 80 00 00 00 00 	nop    DWORD PTR [rax+0x0]
    8b80:	41 80 3c 01 00       	cmp    BYTE PTR [r9+rax*1],0x0
    8b85:	74 0e                	je     8b95 <quotearg_buffer_restyled+0xf75>
    8b87:	48 83 c0 01          	add    rax,0x1
    8b8b:	48 8d 54 05 00       	lea    rdx,[rbp+rax*1+0x0]
    8b90:	49 39 d3             	cmp    r11,rdx
    8b93:	77 eb                	ja     8b80 <quotearg_buffer_restyled+0xf60>
    8b95:	48 89 c7             	mov    rdi,rax
    8b98:	0f b6 54 24 0d       	movzx  edx,BYTE PTR [rsp+0xd]
    8b9d:	45 31 e4             	xor    r12d,r12d
    8ba0:	e9 61 fa ff ff       	jmp    8606 <quotearg_buffer_restyled+0x9e6>
    8ba5:	48 89 df             	mov    rdi,rbx
    8ba8:	44 0f b6 44 24 7d    	movzx  r8d,BYTE PTR [rsp+0x7d]
    8bae:	0f b6 5c 24 7e       	movzx  ebx,BYTE PTR [rsp+0x7e]
    8bb3:	44 0f b6 54 24 7f    	movzx  r10d,BYTE PTR [rsp+0x7f]
    8bb9:	4c 8b bc 24 80 00 00 	mov    r15,QWORD PTR [rsp+0x80]
    8bc0:	00 
    8bc1:	45 31 e4             	xor    r12d,r12d
    8bc4:	4c 8b 74 24 40       	mov    r14,QWORD PTR [rsp+0x40]
    8bc9:	4c 8b 6c 24 70       	mov    r13,QWORD PTR [rsp+0x70]
    8bce:	4c 8b 5c 24 30       	mov    r11,QWORD PTR [rsp+0x30]
    8bd3:	0f b6 54 24 0d       	movzx  edx,BYTE PTR [rsp+0xd]
    8bd8:	e9 29 fa ff ff       	jmp    8606 <quotearg_buffer_restyled+0x9e6>
    8bdd:	48 8b 54 24 68       	mov    rdx,QWORD PTR [rsp+0x68]
    8be2:	0f b6 02             	movzx  eax,BYTE PTR [rdx]
    8be5:	84 c0                	test   al,al
    8be7:	0f 84 2f fe ff ff    	je     8a1c <quotearg_buffer_restyled+0xdfc>
    8bed:	0f 1f 00             	nop    DWORD PTR [rax]
    8bf0:	4d 39 fd             	cmp    r13,r15
    8bf3:	76 04                	jbe    8bf9 <quotearg_buffer_restyled+0xfd9>
    8bf5:	43 88 04 3e          	mov    BYTE PTR [r14+r15*1],al
    8bf9:	49 83 c7 01          	add    r15,0x1
    8bfd:	42 0f b6 04 3a       	movzx  eax,BYTE PTR [rdx+r15*1]
    8c02:	84 c0                	test   al,al
    8c04:	75 ea                	jne    8bf0 <quotearg_buffer_restyled+0xfd0>
    8c06:	e9 11 fe ff ff       	jmp    8a1c <quotearg_buffer_restyled+0xdfc>
    8c0b:	89 d0                	mov    eax,edx
    8c0d:	e9 55 f5 ff ff       	jmp    8167 <quotearg_buffer_restyled+0x547>
    8c12:	0f b6 1c 08          	movzx  ebx,BYTE PTR [rax+rcx*1]
    8c16:	80 fb 3e             	cmp    bl,0x3e
    8c19:	0f 87 71 f8 ff ff    	ja     8490 <quotearg_buffer_restyled+0x870>
    8c1f:	48 b8 00 00 00 00 82 	movabs rax,0x7000a38200000000
    8c26:	a3 00 70 
    8c29:	48 0f a3 d8          	bt     rax,rbx
    8c2d:	0f 83 5d f8 ff ff    	jae    8490 <quotearg_buffer_restyled+0x870>
    8c33:	80 7c 24 0f 00       	cmp    BYTE PTR [rsp+0xf],0x0
    8c38:	0f 85 e4 01 00 00    	jne    8e22 <quotearg_buffer_restyled+0x1202>
    8c3e:	4d 39 fd             	cmp    r13,r15
    8c41:	76 05                	jbe    8c48 <quotearg_buffer_restyled+0x1028>
    8c43:	43 c6 04 3e 3f       	mov    BYTE PTR [r14+r15*1],0x3f
    8c48:	49 8d 47 01          	lea    rax,[r15+0x1]
    8c4c:	49 39 c5             	cmp    r13,rax
    8c4f:	76 06                	jbe    8c57 <quotearg_buffer_restyled+0x1037>
    8c51:	43 c6 44 3e 01 22    	mov    BYTE PTR [r14+r15*1+0x1],0x22
    8c57:	49 8d 47 02          	lea    rax,[r15+0x2]
    8c5b:	49 39 c5             	cmp    r13,rax
    8c5e:	76 06                	jbe    8c66 <quotearg_buffer_restyled+0x1046>
    8c60:	43 c6 44 3e 02 22    	mov    BYTE PTR [r14+r15*1+0x2],0x22
    8c66:	49 8d 47 03          	lea    rax,[r15+0x3]
    8c6a:	49 39 c5             	cmp    r13,rax
    8c6d:	76 06                	jbe    8c75 <quotearg_buffer_restyled+0x1055>
    8c6f:	43 c6 44 3e 03 3f    	mov    BYTE PTR [r14+r15*1+0x3],0x3f
    8c75:	49 83 c7 04          	add    r15,0x4
    8c79:	31 d2                	xor    edx,edx
    8c7b:	45 31 e4             	xor    r12d,r12d
    8c7e:	31 c0                	xor    eax,eax
    8c80:	48 89 cd             	mov    rbp,rcx
    8c83:	e9 c0 f1 ff ff       	jmp    7e48 <quotearg_buffer_restyled+0x228>
    8c88:	85 db                	test   ebx,ebx
    8c8a:	0f 84 88 01 00 00    	je     8e18 <quotearg_buffer_restyled+0x11f8>
    8c90:	48 8d 05 9e 26 00 00 	lea    rax,[rip+0x269e]        # b335 <fillbuf+0xd5>
    8c97:	c6 44 24 0e 01       	mov    BYTE PTR [rsp+0xe],0x1
    8c9c:	c6 44 24 7c 00       	mov    BYTE PTR [rsp+0x7c],0x0
    8ca1:	45 31 e4             	xor    r12d,r12d
    8ca4:	48 c7 44 24 50 00 00 	mov    QWORD PTR [rsp+0x50],0x0
    8cab:	00 00 
    8cad:	c6 44 24 0f 01       	mov    BYTE PTR [rsp+0xf],0x1
    8cb2:	c6 44 24 0d 00       	mov    BYTE PTR [rsp+0xd],0x0
    8cb7:	48 c7 44 24 18 01 00 	mov    QWORD PTR [rsp+0x18],0x1
    8cbe:	00 00 
    8cc0:	45 31 ff             	xor    r15d,r15d
    8cc3:	48 89 44 24 48       	mov    QWORD PTR [rsp+0x48],rax
    8cc8:	e9 26 f0 ff ff       	jmp    7cf3 <quotearg_buffer_restyled+0xd3>
    8ccd:	0f 1f 00             	nop    DWORD PTR [rax]
    8cd0:	4c 89 dd             	mov    rbp,r11
    8cd3:	0f b6 44 24 0f       	movzx  eax,BYTE PTR [rsp+0xf]
    8cd8:	e9 cc fa ff ff       	jmp    87a9 <quotearg_buffer_restyled+0xb89>
    8cdd:	48 8d 05 4f 26 00 00 	lea    rax,[rip+0x264f]        # b333 <fillbuf+0xd3>
    8ce4:	c6 44 24 0e 01       	mov    BYTE PTR [rsp+0xe],0x1
    8ce9:	c6 44 24 7c 00       	mov    BYTE PTR [rsp+0x7c],0x0
    8cee:	45 31 e4             	xor    r12d,r12d
    8cf1:	48 c7 44 24 50 00 00 	mov    QWORD PTR [rsp+0x50],0x0
    8cf8:	00 00 
    8cfa:	c6 44 24 0f 01       	mov    BYTE PTR [rsp+0xf],0x1
    8cff:	c6 44 24 0d 01       	mov    BYTE PTR [rsp+0xd],0x1
    8d04:	48 c7 44 24 18 01 00 	mov    QWORD PTR [rsp+0x18],0x1
    8d0b:	00 00 
    8d0d:	45 31 ff             	xor    r15d,r15d
    8d10:	48 89 44 24 48       	mov    QWORD PTR [rsp+0x48],rax
    8d15:	e9 d9 ef ff ff       	jmp    7cf3 <quotearg_buffer_restyled+0xd3>
    8d1a:	89 d0                	mov    eax,edx
    8d1c:	48 8b 5c 24 48       	mov    rbx,QWORD PTR [rsp+0x48]
    8d21:	48 85 db             	test   rbx,rbx
    8d24:	74 2c                	je     8d52 <quotearg_buffer_restyled+0x1132>
    8d26:	84 c0                	test   al,al
    8d28:	74 28                	je     8d52 <quotearg_buffer_restyled+0x1132>
    8d2a:	0f b6 0b             	movzx  ecx,BYTE PTR [rbx]
    8d2d:	48 89 d8             	mov    rax,rbx
    8d30:	84 c9                	test   cl,cl
    8d32:	74 1e                	je     8d52 <quotearg_buffer_restyled+0x1132>
    8d34:	4c 89 fa             	mov    rdx,r15
    8d37:	4c 29 f8             	sub    rax,r15
    8d3a:	49 39 d5             	cmp    r13,rdx
    8d3d:	76 04                	jbe    8d43 <quotearg_buffer_restyled+0x1123>
    8d3f:	41 88 0c 16          	mov    BYTE PTR [r14+rdx*1],cl
    8d43:	48 83 c2 01          	add    rdx,0x1
    8d47:	0f b6 0c 10          	movzx  ecx,BYTE PTR [rax+rdx*1]
    8d4b:	84 c9                	test   cl,cl
    8d4d:	75 eb                	jne    8d3a <quotearg_buffer_restyled+0x111a>
    8d4f:	49 89 d7             	mov    r15,rdx
    8d52:	4d 39 fd             	cmp    r13,r15
    8d55:	0f 86 9e fa ff ff    	jbe    87f9 <quotearg_buffer_restyled+0xbd9>
    8d5b:	43 c6 04 3e 00       	mov    BYTE PTR [r14+r15*1],0x0
    8d60:	e9 94 fa ff ff       	jmp    87f9 <quotearg_buffer_restyled+0xbd9>
    8d65:	83 7c 24 08 02       	cmp    DWORD PTR [rsp+0x8],0x2
    8d6a:	0f b6 5c 24 0f       	movzx  ebx,BYTE PTR [rsp+0xf]
    8d6f:	4c 89 dd             	mov    rbp,r11
    8d72:	0f 94 c0             	sete   al
    8d75:	88 5c 24 0d          	mov    BYTE PTR [rsp+0xd],bl
    8d79:	e9 2b fa ff ff       	jmp    87a9 <quotearg_buffer_restyled+0xb89>
    8d7e:	8b 74 24 08          	mov    esi,DWORD PTR [rsp+0x8]
    8d82:	48 89 cf             	mov    rdi,rcx
    8d85:	e8 a6 ed ff ff       	call   7b30 <gettext_quote.part.1>
    8d8a:	48 89 44 24 68       	mov    QWORD PTR [rsp+0x68],rax
    8d8f:	e9 52 fc ff ff       	jmp    89e6 <quotearg_buffer_restyled+0xdc6>
    8d94:	8b 74 24 08          	mov    esi,DWORD PTR [rsp+0x8]
    8d98:	48 89 cf             	mov    rdi,rcx
    8d9b:	e8 90 ed ff ff       	call   7b30 <gettext_quote.part.1>
    8da0:	48 89 44 24 60       	mov    QWORD PTR [rsp+0x60],rax
    8da5:	e9 67 fc ff ff       	jmp    8a11 <quotearg_buffer_restyled+0xdf1>
    8daa:	0f b6 5c 24 0f       	movzx  ebx,BYTE PTR [rsp+0xf]
    8daf:	4c 89 dd             	mov    rbp,r11
    8db2:	89 d0                	mov    eax,edx
    8db4:	88 5c 24 0d          	mov    BYTE PTR [rsp+0xd],bl
    8db8:	e9 ec f9 ff ff       	jmp    87a9 <quotearg_buffer_restyled+0xb89>
    8dbd:	48 83 ec 08          	sub    rsp,0x8
    8dc1:	41 b8 05 00 00 00    	mov    r8d,0x5
    8dc7:	4c 89 d9             	mov    rcx,r11
    8dca:	ff 74 24 68          	push   QWORD PTR [rsp+0x68]
    8dce:	ff 74 24 78          	push   QWORD PTR [rsp+0x78]
    8dd2:	4c 89 f7             	mov    rdi,r14
    8dd5:	ff 74 24 38          	push   QWORD PTR [rsp+0x38]
    8dd9:	44 8b 8c 24 98 00 00 	mov    r9d,DWORD PTR [rsp+0x98]
    8de0:	00 
    8de1:	48 8b 54 24 30       	mov    rdx,QWORD PTR [rsp+0x30]
    8de6:	48 8b 74 24 70       	mov    rsi,QWORD PTR [rsp+0x70]
    8deb:	e8 30 ee ff ff       	call   7c20 <quotearg_buffer_restyled>
    8df0:	48 83 c4 20          	add    rsp,0x20
    8df4:	49 89 c7             	mov    r15,rax
    8df7:	e9 fd f9 ff ff       	jmp    87f9 <quotearg_buffer_restyled+0xbd9>
    8dfc:	0f b6 44 24 7c       	movzx  eax,BYTE PTR [rsp+0x7c]
    8e01:	e9 16 ff ff ff       	jmp    8d1c <quotearg_buffer_restyled+0x10fc>
    8e06:	c7 44 24 08 02 00 00 	mov    DWORD PTR [rsp+0x8],0x2
    8e0d:	00 
    8e0e:	e9 96 f9 ff ff       	jmp    87a9 <quotearg_buffer_restyled+0xb89>
    8e13:	e8 78 88 ff ff       	call   1690 <__stack_chk_fail@plt>
    8e18:	c6 44 24 0d 00       	mov    BYTE PTR [rsp+0xd],0x0
    8e1d:	e9 6f fa ff ff       	jmp    8891 <quotearg_buffer_restyled+0xc71>
    8e22:	4c 89 dd             	mov    rbp,r11
    8e25:	e9 96 f9 ff ff       	jmp    87c0 <quotearg_buffer_restyled+0xba0>
    8e2a:	c6 44 24 0e 01       	mov    BYTE PTR [rsp+0xe],0x1
    8e2f:	31 c0                	xor    eax,eax
    8e31:	45 31 e4             	xor    r12d,r12d
    8e34:	48 c7 44 24 50 00 00 	mov    QWORD PTR [rsp+0x50],0x0
    8e3b:	00 00 
    8e3d:	e9 a2 f5 ff ff       	jmp    83e4 <quotearg_buffer_restyled+0x7c4>
    8e42:	4c 89 ea             	mov    rdx,r13
    8e45:	4c 8b 6c 24 50       	mov    r13,QWORD PTR [rsp+0x50]
    8e4a:	e9 f3 f5 ff ff       	jmp    8442 <quotearg_buffer_restyled+0x822>
    8e4f:	e8 6c 87 ff ff       	call   15c0 <abort@plt>
    8e54:	66 90                	xchg   ax,ax
    8e56:	66 2e 0f 1f 84 00 00 	nop    WORD PTR cs:[rax+rax*1+0x0]
    8e5d:	00 00 00 

0000000000008e60 <quotearg_n_options>:
    8e60:	41 57                	push   r15
    8e62:	41 56                	push   r14
    8e64:	4c 63 ff             	movsxd r15,edi
    8e67:	41 55                	push   r13
    8e69:	41 54                	push   r12
    8e6b:	49 89 d6             	mov    r14,rdx
    8e6e:	55                   	push   rbp
    8e6f:	53                   	push   rbx
    8e70:	48 89 cd             	mov    rbp,rcx
    8e73:	48 83 ec 28          	sub    rsp,0x28
    8e77:	48 89 74 24 08       	mov    QWORD PTR [rsp+0x8],rsi
    8e7c:	e8 4f 87 ff ff       	call   15d0 <__errno_location@plt>
    8e81:	49 89 c5             	mov    r13,rax
    8e84:	8b 00                	mov    eax,DWORD PTR [rax]
    8e86:	45 85 ff             	test   r15d,r15d
    8e89:	48 8b 1d f0 51 20 00 	mov    rbx,QWORD PTR [rip+0x2051f0]        # 20e080 <slotvec>
    8e90:	89 44 24 18          	mov    DWORD PTR [rsp+0x18],eax
    8e94:	0f 88 67 01 00 00    	js     9001 <quotearg_n_options+0x1a1>
    8e9a:	44 39 3d d7 51 20 00 	cmp    DWORD PTR [rip+0x2051d7],r15d        # 20e078 <nslots>
    8ea1:	7f 62                	jg     8f05 <quotearg_n_options+0xa5>
    8ea3:	41 81 ff ff ff ff 7f 	cmp    r15d,0x7fffffff
    8eaa:	0f 84 56 01 00 00    	je     9006 <quotearg_n_options+0x1a6>
    8eb0:	45 8d 67 01          	lea    r12d,[r15+0x1]
    8eb4:	48 8d 05 d5 51 20 00 	lea    rax,[rip+0x2051d5]        # 20e090 <slotvec0>
    8ebb:	49 63 f4             	movsxd rsi,r12d
    8ebe:	48 c1 e6 04          	shl    rsi,0x4
    8ec2:	48 39 c3             	cmp    rbx,rax
    8ec5:	0f 84 15 01 00 00    	je     8fe0 <quotearg_n_options+0x180>
    8ecb:	48 89 df             	mov    rdi,rbx
    8ece:	e8 7d 0f 00 00       	call   9e50 <xrealloc>
    8ed3:	48 89 c3             	mov    rbx,rax
    8ed6:	48 89 05 a3 51 20 00 	mov    QWORD PTR [rip+0x2051a3],rax        # 20e080 <slotvec>
    8edd:	48 63 3d 94 51 20 00 	movsxd rdi,DWORD PTR [rip+0x205194]        # 20e078 <nslots>
    8ee4:	44 89 e2             	mov    edx,r12d
    8ee7:	31 f6                	xor    esi,esi
    8ee9:	29 fa                	sub    edx,edi
    8eeb:	48 c1 e7 04          	shl    rdi,0x4
    8eef:	48 63 d2             	movsxd rdx,edx
    8ef2:	48 01 df             	add    rdi,rbx
    8ef5:	48 c1 e2 04          	shl    rdx,0x4
    8ef9:	e8 02 88 ff ff       	call   1700 <memset@plt>
    8efe:	44 89 25 73 51 20 00 	mov    DWORD PTR [rip+0x205173],r12d        # 20e078 <nslots>
    8f05:	8b 45 04             	mov    eax,DWORD PTR [rbp+0x4]
    8f08:	49 c1 e7 04          	shl    r15,0x4
    8f0c:	48 83 ec 08          	sub    rsp,0x8
    8f10:	4c 01 fb             	add    rbx,r15
    8f13:	4c 8d 7d 08          	lea    r15,[rbp+0x8]
    8f17:	44 8b 45 00          	mov    r8d,DWORD PTR [rbp+0x0]
    8f1b:	4c 8b 1b             	mov    r11,QWORD PTR [rbx]
    8f1e:	4c 8b 63 08          	mov    r12,QWORD PTR [rbx+0x8]
    8f22:	4c 89 f1             	mov    rcx,r14
    8f25:	83 c8 01             	or     eax,0x1
    8f28:	89 44 24 24          	mov    DWORD PTR [rsp+0x24],eax
    8f2c:	ff 75 30             	push   QWORD PTR [rbp+0x30]
    8f2f:	41 89 c1             	mov    r9d,eax
    8f32:	ff 75 28             	push   QWORD PTR [rbp+0x28]
    8f35:	41 57                	push   r15
    8f37:	4c 89 de             	mov    rsi,r11
    8f3a:	48 8b 54 24 28       	mov    rdx,QWORD PTR [rsp+0x28]
    8f3f:	4c 89 e7             	mov    rdi,r12
    8f42:	4c 89 5c 24 30       	mov    QWORD PTR [rsp+0x30],r11
    8f47:	e8 d4 ec ff ff       	call   7c20 <quotearg_buffer_restyled>
    8f4c:	48 83 c4 20          	add    rsp,0x20
    8f50:	4c 8b 5c 24 10       	mov    r11,QWORD PTR [rsp+0x10]
    8f55:	49 39 c3             	cmp    r11,rax
    8f58:	77 67                	ja     8fc1 <quotearg_n_options+0x161>
    8f5a:	48 8d 70 01          	lea    rsi,[rax+0x1]
    8f5e:	48 8d 05 db 51 20 00 	lea    rax,[rip+0x2051db]        # 20e140 <slot0>
    8f65:	49 39 c4             	cmp    r12,rax
    8f68:	48 89 33             	mov    QWORD PTR [rbx],rsi
    8f6b:	74 12                	je     8f7f <quotearg_n_options+0x11f>
    8f6d:	4c 89 e7             	mov    rdi,r12
    8f70:	48 89 74 24 10       	mov    QWORD PTR [rsp+0x10],rsi
    8f75:	e8 36 86 ff ff       	call   15b0 <free@plt>
    8f7a:	48 8b 74 24 10       	mov    rsi,QWORD PTR [rsp+0x10]
    8f7f:	48 89 f7             	mov    rdi,rsi
    8f82:	48 89 74 24 10       	mov    QWORD PTR [rsp+0x10],rsi
    8f87:	e8 64 0e 00 00       	call   9df0 <xmalloc>
    8f8c:	48 83 ec 08          	sub    rsp,0x8
    8f90:	48 89 43 08          	mov    QWORD PTR [rbx+0x8],rax
    8f94:	44 8b 45 00          	mov    r8d,DWORD PTR [rbp+0x0]
    8f98:	ff 75 30             	push   QWORD PTR [rbp+0x30]
    8f9b:	ff 75 28             	push   QWORD PTR [rbp+0x28]
    8f9e:	4c 89 f1             	mov    rcx,r14
    8fa1:	41 57                	push   r15
    8fa3:	44 8b 4c 24 3c       	mov    r9d,DWORD PTR [rsp+0x3c]
    8fa8:	48 89 c7             	mov    rdi,rax
    8fab:	48 8b 54 24 28       	mov    rdx,QWORD PTR [rsp+0x28]
    8fb0:	48 8b 74 24 30       	mov    rsi,QWORD PTR [rsp+0x30]
    8fb5:	49 89 c4             	mov    r12,rax
    8fb8:	e8 63 ec ff ff       	call   7c20 <quotearg_buffer_restyled>
    8fbd:	48 83 c4 20          	add    rsp,0x20
    8fc1:	8b 44 24 18          	mov    eax,DWORD PTR [rsp+0x18]
    8fc5:	41 89 45 00          	mov    DWORD PTR [r13+0x0],eax
    8fc9:	48 83 c4 28          	add    rsp,0x28
    8fcd:	4c 89 e0             	mov    rax,r12
    8fd0:	5b                   	pop    rbx
    8fd1:	5d                   	pop    rbp
    8fd2:	41 5c                	pop    r12
    8fd4:	41 5d                	pop    r13
    8fd6:	41 5e                	pop    r14
    8fd8:	41 5f                	pop    r15
    8fda:	c3                   	ret    
    8fdb:	0f 1f 44 00 00       	nop    DWORD PTR [rax+rax*1+0x0]
    8fe0:	31 ff                	xor    edi,edi
    8fe2:	e8 69 0e 00 00       	call   9e50 <xrealloc>
    8fe7:	66 0f 6f 05 a1 50 20 	movdqa xmm0,XMMWORD PTR [rip+0x2050a1]        # 20e090 <slotvec0>
    8fee:	00 
    8fef:	48 89 c3             	mov    rbx,rax
    8ff2:	48 89 05 87 50 20 00 	mov    QWORD PTR [rip+0x205087],rax        # 20e080 <slotvec>
    8ff9:	0f 11 00             	movups XMMWORD PTR [rax],xmm0
    8ffc:	e9 dc fe ff ff       	jmp    8edd <quotearg_n_options+0x7d>
    9001:	e8 ba 85 ff ff       	call   15c0 <abort@plt>
    9006:	e8 35 10 00 00       	call   a040 <xalloc_die>
    900b:	0f 1f 44 00 00       	nop    DWORD PTR [rax+rax*1+0x0]

0000000000009010 <clone_quoting_options>:
    9010:	41 54                	push   r12
    9012:	55                   	push   rbp
    9013:	53                   	push   rbx
    9014:	48 89 fb             	mov    rbx,rdi
    9017:	e8 b4 85 ff ff       	call   15d0 <__errno_location@plt>
    901c:	44 8b 20             	mov    r12d,DWORD PTR [rax]
    901f:	48 89 c5             	mov    rbp,rax
    9022:	48 8d 05 17 52 20 00 	lea    rax,[rip+0x205217]        # 20e240 <default_quoting_options>
    9029:	48 85 db             	test   rbx,rbx
    902c:	be 38 00 00 00       	mov    esi,0x38
    9031:	48 0f 44 d8          	cmove  rbx,rax
    9035:	48 89 df             	mov    rdi,rbx
    9038:	e8 b3 0f 00 00       	call   9ff0 <xmemdup>
    903d:	44 89 65 00          	mov    DWORD PTR [rbp+0x0],r12d
    9041:	5b                   	pop    rbx
    9042:	5d                   	pop    rbp
    9043:	41 5c                	pop    r12
    9045:	c3                   	ret    
    9046:	66 2e 0f 1f 84 00 00 	nop    WORD PTR cs:[rax+rax*1+0x0]
    904d:	00 00 00 

0000000000009050 <get_quoting_style>:
    9050:	48 8d 05 e9 51 20 00 	lea    rax,[rip+0x2051e9]        # 20e240 <default_quoting_options>
    9057:	48 85 ff             	test   rdi,rdi
    905a:	48 0f 44 f8          	cmove  rdi,rax
    905e:	8b 07                	mov    eax,DWORD PTR [rdi]
    9060:	c3                   	ret    
    9061:	0f 1f 44 00 00       	nop    DWORD PTR [rax+rax*1+0x0]
    9066:	66 2e 0f 1f 84 00 00 	nop    WORD PTR cs:[rax+rax*1+0x0]
    906d:	00 00 00 

0000000000009070 <set_quoting_style>:
    9070:	48 8d 05 c9 51 20 00 	lea    rax,[rip+0x2051c9]        # 20e240 <default_quoting_options>
    9077:	48 85 ff             	test   rdi,rdi
    907a:	48 0f 44 f8          	cmove  rdi,rax
    907e:	89 37                	mov    DWORD PTR [rdi],esi
    9080:	c3                   	ret    
    9081:	0f 1f 44 00 00       	nop    DWORD PTR [rax+rax*1+0x0]
    9086:	66 2e 0f 1f 84 00 00 	nop    WORD PTR cs:[rax+rax*1+0x0]
    908d:	00 00 00 

0000000000009090 <set_char_quoting>:
    9090:	48 8d 05 a9 51 20 00 	lea    rax,[rip+0x2051a9]        # 20e240 <default_quoting_options>
    9097:	48 85 ff             	test   rdi,rdi
    909a:	89 f1                	mov    ecx,esi
    909c:	48 0f 44 f8          	cmove  rdi,rax
    90a0:	89 f0                	mov    eax,esi
    90a2:	83 e1 1f             	and    ecx,0x1f
    90a5:	c0 e8 05             	shr    al,0x5
    90a8:	0f b6 c0             	movzx  eax,al
    90ab:	48 8d 7c 87 08       	lea    rdi,[rdi+rax*4+0x8]
    90b0:	8b 37                	mov    esi,DWORD PTR [rdi]
    90b2:	89 f0                	mov    eax,esi
    90b4:	d3 e8                	shr    eax,cl
    90b6:	31 c2                	xor    edx,eax
    90b8:	83 e0 01             	and    eax,0x1
    90bb:	83 e2 01             	and    edx,0x1
    90be:	d3 e2                	shl    edx,cl
    90c0:	31 f2                	xor    edx,esi
    90c2:	89 17                	mov    DWORD PTR [rdi],edx
    90c4:	c3                   	ret    
    90c5:	90                   	nop
    90c6:	66 2e 0f 1f 84 00 00 	nop    WORD PTR cs:[rax+rax*1+0x0]
    90cd:	00 00 00 

00000000000090d0 <set_quoting_flags>:
    90d0:	48 8d 05 69 51 20 00 	lea    rax,[rip+0x205169]        # 20e240 <default_quoting_options>
    90d7:	48 85 ff             	test   rdi,rdi
    90da:	48 0f 44 f8          	cmove  rdi,rax
    90de:	8b 47 04             	mov    eax,DWORD PTR [rdi+0x4]
    90e1:	89 77 04             	mov    DWORD PTR [rdi+0x4],esi
    90e4:	c3                   	ret    
    90e5:	90                   	nop
    90e6:	66 2e 0f 1f 84 00 00 	nop    WORD PTR cs:[rax+rax*1+0x0]
    90ed:	00 00 00 

00000000000090f0 <set_custom_quoting>:
    90f0:	48 8d 05 49 51 20 00 	lea    rax,[rip+0x205149]        # 20e240 <default_quoting_options>
    90f7:	48 85 ff             	test   rdi,rdi
    90fa:	48 0f 44 f8          	cmove  rdi,rax
    90fe:	48 85 f6             	test   rsi,rsi
    9101:	c7 07 0a 00 00 00    	mov    DWORD PTR [rdi],0xa
    9107:	74 0e                	je     9117 <set_custom_quoting+0x27>
    9109:	48 85 d2             	test   rdx,rdx
    910c:	74 09                	je     9117 <set_custom_quoting+0x27>
    910e:	48 89 77 28          	mov    QWORD PTR [rdi+0x28],rsi
    9112:	48 89 57 30          	mov    QWORD PTR [rdi+0x30],rdx
    9116:	c3                   	ret    
    9117:	48 83 ec 08          	sub    rsp,0x8
    911b:	e8 a0 84 ff ff       	call   15c0 <abort@plt>

0000000000009120 <quotearg_buffer>:
    9120:	41 57                	push   r15
    9122:	41 56                	push   r14
    9124:	48 8d 05 15 51 20 00 	lea    rax,[rip+0x205115]        # 20e240 <default_quoting_options>
    912b:	41 55                	push   r13
    912d:	41 54                	push   r12
    912f:	49 89 fd             	mov    r13,rdi
    9132:	55                   	push   rbp
    9133:	53                   	push   rbx
    9134:	4c 89 c3             	mov    rbx,r8
    9137:	49 89 f6             	mov    r14,rsi
    913a:	49 89 d7             	mov    r15,rdx
    913d:	48 83 ec 18          	sub    rsp,0x18
    9141:	4d 85 c0             	test   r8,r8
    9144:	48 0f 44 d8          	cmove  rbx,rax
    9148:	48 89 4c 24 08       	mov    QWORD PTR [rsp+0x8],rcx
    914d:	e8 7e 84 ff ff       	call   15d0 <__errno_location@plt>
    9152:	44 8b 20             	mov    r12d,DWORD PTR [rax]
    9155:	48 89 c5             	mov    rbp,rax
    9158:	48 8d 43 08          	lea    rax,[rbx+0x8]
    915c:	48 83 ec 08          	sub    rsp,0x8
    9160:	44 8b 4b 04          	mov    r9d,DWORD PTR [rbx+0x4]
    9164:	ff 73 30             	push   QWORD PTR [rbx+0x30]
    9167:	44 8b 03             	mov    r8d,DWORD PTR [rbx]
    916a:	ff 73 28             	push   QWORD PTR [rbx+0x28]
    916d:	4c 89 fa             	mov    rdx,r15
    9170:	50                   	push   rax
    9171:	48 8b 4c 24 28       	mov    rcx,QWORD PTR [rsp+0x28]
    9176:	4c 89 f6             	mov    rsi,r14
    9179:	4c 89 ef             	mov    rdi,r13
    917c:	e8 9f ea ff ff       	call   7c20 <quotearg_buffer_restyled>
    9181:	44 89 65 00          	mov    DWORD PTR [rbp+0x0],r12d
    9185:	48 83 c4 38          	add    rsp,0x38
    9189:	5b                   	pop    rbx
    918a:	5d                   	pop    rbp
    918b:	41 5c                	pop    r12
    918d:	41 5d                	pop    r13
    918f:	41 5e                	pop    r14
    9191:	41 5f                	pop    r15
    9193:	c3                   	ret    
    9194:	66 90                	xchg   ax,ax
    9196:	66 2e 0f 1f 84 00 00 	nop    WORD PTR cs:[rax+rax*1+0x0]
    919d:	00 00 00 

00000000000091a0 <quotearg_alloc_mem>:
    91a0:	41 57                	push   r15
    91a2:	41 56                	push   r14
    91a4:	48 8d 05 95 50 20 00 	lea    rax,[rip+0x205095]        # 20e240 <default_quoting_options>
    91ab:	41 55                	push   r13
    91ad:	41 54                	push   r12
    91af:	49 89 d4             	mov    r12,rdx
    91b2:	55                   	push   rbp
    91b3:	53                   	push   rbx
    91b4:	48 89 cb             	mov    rbx,rcx
    91b7:	49 89 fe             	mov    r14,rdi
    91ba:	49 89 f7             	mov    r15,rsi
    91bd:	48 83 ec 38          	sub    rsp,0x38
    91c1:	48 85 c9             	test   rcx,rcx
    91c4:	48 0f 44 d8          	cmove  rbx,rax
    91c8:	31 ed                	xor    ebp,ebp
    91ca:	e8 01 84 ff ff       	call   15d0 <__errno_location@plt>
    91cf:	4d 85 e4             	test   r12,r12
    91d2:	49 89 c5             	mov    r13,rax
    91d5:	8b 00                	mov    eax,DWORD PTR [rax]
    91d7:	40 0f 94 c5          	sete   bpl
    91db:	0b 6b 04             	or     ebp,DWORD PTR [rbx+0x4]
    91de:	4c 8d 53 08          	lea    r10,[rbx+0x8]
    91e2:	48 83 ec 08          	sub    rsp,0x8
    91e6:	44 8b 03             	mov    r8d,DWORD PTR [rbx]
    91e9:	4c 89 f9             	mov    rcx,r15
    91ec:	89 44 24 14          	mov    DWORD PTR [rsp+0x14],eax
    91f0:	ff 73 30             	push   QWORD PTR [rbx+0x30]
    91f3:	4c 89 f2             	mov    rdx,r14
    91f6:	ff 73 28             	push   QWORD PTR [rbx+0x28]
    91f9:	41 52                	push   r10
    91fb:	31 f6                	xor    esi,esi
    91fd:	41 89 e9             	mov    r9d,ebp
    9200:	31 ff                	xor    edi,edi
    9202:	4c 89 54 24 40       	mov    QWORD PTR [rsp+0x40],r10
    9207:	e8 14 ea ff ff       	call   7c20 <quotearg_buffer_restyled>
    920c:	48 8d 70 01          	lea    rsi,[rax+0x1]
    9210:	48 89 44 24 48       	mov    QWORD PTR [rsp+0x48],rax
    9215:	48 83 c4 20          	add    rsp,0x20
    9219:	48 89 f7             	mov    rdi,rsi
    921c:	48 89 74 24 18       	mov    QWORD PTR [rsp+0x18],rsi
    9221:	e8 ca 0b 00 00       	call   9df0 <xmalloc>
    9226:	48 89 44 24 10       	mov    QWORD PTR [rsp+0x10],rax
    922b:	48 83 ec 08          	sub    rsp,0x8
    922f:	ff 73 30             	push   QWORD PTR [rbx+0x30]
    9232:	ff 73 28             	push   QWORD PTR [rbx+0x28]
    9235:	4c 8b 54 24 38       	mov    r10,QWORD PTR [rsp+0x38]
    923a:	41 89 e9             	mov    r9d,ebp
    923d:	44 8b 03             	mov    r8d,DWORD PTR [rbx]
    9240:	4c 89 f9             	mov    rcx,r15
    9243:	4c 89 f2             	mov    rdx,r14
    9246:	48 89 c7             	mov    rdi,rax
    9249:	41 52                	push   r10
    924b:	48 8b 74 24 38       	mov    rsi,QWORD PTR [rsp+0x38]
    9250:	e8 cb e9 ff ff       	call   7c20 <quotearg_buffer_restyled>
    9255:	8b 44 24 2c          	mov    eax,DWORD PTR [rsp+0x2c]
    9259:	48 83 c4 20          	add    rsp,0x20
    925d:	4d 85 e4             	test   r12,r12
    9260:	41 89 45 00          	mov    DWORD PTR [r13+0x0],eax
    9264:	74 09                	je     926f <quotearg_alloc_mem+0xcf>
    9266:	4c 8b 5c 24 28       	mov    r11,QWORD PTR [rsp+0x28]
    926b:	4d 89 1c 24          	mov    QWORD PTR [r12],r11
    926f:	48 8b 44 24 10       	mov    rax,QWORD PTR [rsp+0x10]
    9274:	48 83 c4 38          	add    rsp,0x38
    9278:	5b                   	pop    rbx
    9279:	5d                   	pop    rbp
    927a:	41 5c                	pop    r12
    927c:	41 5d                	pop    r13
    927e:	41 5e                	pop    r14
    9280:	41 5f                	pop    r15
    9282:	c3                   	ret    
    9283:	0f 1f 00             	nop    DWORD PTR [rax]
    9286:	66 2e 0f 1f 84 00 00 	nop    WORD PTR cs:[rax+rax*1+0x0]
    928d:	00 00 00 

0000000000009290 <quotearg_alloc>:
    9290:	48 89 d1             	mov    rcx,rdx
    9293:	31 d2                	xor    edx,edx
    9295:	e9 06 ff ff ff       	jmp    91a0 <quotearg_alloc_mem>
    929a:	66 0f 1f 44 00 00    	nop    WORD PTR [rax+rax*1+0x0]

00000000000092a0 <quotearg_free>:
    92a0:	8b 05 d2 4d 20 00    	mov    eax,DWORD PTR [rip+0x204dd2]        # 20e078 <nslots>
    92a6:	41 54                	push   r12
    92a8:	4c 8b 25 d1 4d 20 00 	mov    r12,QWORD PTR [rip+0x204dd1]        # 20e080 <slotvec>
    92af:	55                   	push   rbp
    92b0:	53                   	push   rbx
    92b1:	83 f8 01             	cmp    eax,0x1
    92b4:	7e 2b                	jle    92e1 <quotearg_free+0x41>
    92b6:	83 e8 02             	sub    eax,0x2
    92b9:	49 8d 5c 24 18       	lea    rbx,[r12+0x18]
    92be:	48 c1 e0 04          	shl    rax,0x4
    92c2:	49 8d 6c 04 28       	lea    rbp,[r12+rax*1+0x28]
    92c7:	66 0f 1f 84 00 00 00 	nop    WORD PTR [rax+rax*1+0x0]
    92ce:	00 00 
    92d0:	48 8b 3b             	mov    rdi,QWORD PTR [rbx]
    92d3:	48 83 c3 10          	add    rbx,0x10
    92d7:	e8 d4 82 ff ff       	call   15b0 <free@plt>
    92dc:	48 39 eb             	cmp    rbx,rbp
    92df:	75 ef                	jne    92d0 <quotearg_free+0x30>
    92e1:	49 8b 7c 24 08       	mov    rdi,QWORD PTR [r12+0x8]
    92e6:	48 8d 1d 53 4e 20 00 	lea    rbx,[rip+0x204e53]        # 20e140 <slot0>
    92ed:	48 39 df             	cmp    rdi,rbx
    92f0:	74 17                	je     9309 <quotearg_free+0x69>
    92f2:	e8 b9 82 ff ff       	call   15b0 <free@plt>
    92f7:	48 c7 05 8e 4d 20 00 	mov    QWORD PTR [rip+0x204d8e],0x100        # 20e090 <slotvec0>
    92fe:	00 01 00 00 
    9302:	48 89 1d 8f 4d 20 00 	mov    QWORD PTR [rip+0x204d8f],rbx        # 20e098 <slotvec0+0x8>
    9309:	48 8d 1d 80 4d 20 00 	lea    rbx,[rip+0x204d80]        # 20e090 <slotvec0>
    9310:	49 39 dc             	cmp    r12,rbx
    9313:	74 0f                	je     9324 <quotearg_free+0x84>
    9315:	4c 89 e7             	mov    rdi,r12
    9318:	e8 93 82 ff ff       	call   15b0 <free@plt>
    931d:	48 89 1d 5c 4d 20 00 	mov    QWORD PTR [rip+0x204d5c],rbx        # 20e080 <slotvec>
    9324:	5b                   	pop    rbx
    9325:	c7 05 49 4d 20 00 01 	mov    DWORD PTR [rip+0x204d49],0x1        # 20e078 <nslots>
    932c:	00 00 00 
    932f:	5d                   	pop    rbp
    9330:	41 5c                	pop    r12
    9332:	c3                   	ret    
    9333:	0f 1f 00             	nop    DWORD PTR [rax]
    9336:	66 2e 0f 1f 84 00 00 	nop    WORD PTR cs:[rax+rax*1+0x0]
    933d:	00 00 00 

0000000000009340 <quotearg_n>:
    9340:	48 8d 0d f9 4e 20 00 	lea    rcx,[rip+0x204ef9]        # 20e240 <default_quoting_options>
    9347:	48 c7 c2 ff ff ff ff 	mov    rdx,0xffffffffffffffff
    934e:	e9 0d fb ff ff       	jmp    8e60 <quotearg_n_options>
    9353:	0f 1f 00             	nop    DWORD PTR [rax]
    9356:	66 2e 0f 1f 84 00 00 	nop    WORD PTR cs:[rax+rax*1+0x0]
    935d:	00 00 00 

0000000000009360 <quotearg_n_mem>:
    9360:	48 8d 0d d9 4e 20 00 	lea    rcx,[rip+0x204ed9]        # 20e240 <default_quoting_options>
    9367:	e9 f4 fa ff ff       	jmp    8e60 <quotearg_n_options>
    936c:	0f 1f 40 00          	nop    DWORD PTR [rax+0x0]

0000000000009370 <quotearg>:
    9370:	48 8d 0d c9 4e 20 00 	lea    rcx,[rip+0x204ec9]        # 20e240 <default_quoting_options>
    9377:	48 89 fe             	mov    rsi,rdi
    937a:	48 c7 c2 ff ff ff ff 	mov    rdx,0xffffffffffffffff
    9381:	31 ff                	xor    edi,edi
    9383:	e9 d8 fa ff ff       	jmp    8e60 <quotearg_n_options>
    9388:	0f 1f 84 00 00 00 00 	nop    DWORD PTR [rax+rax*1+0x0]
    938f:	00 

0000000000009390 <quotearg_mem>:
    9390:	48 8d 0d a9 4e 20 00 	lea    rcx,[rip+0x204ea9]        # 20e240 <default_quoting_options>
    9397:	48 89 f2             	mov    rdx,rsi
    939a:	48 89 fe             	mov    rsi,rdi
    939d:	31 ff                	xor    edi,edi
    939f:	e9 bc fa ff ff       	jmp    8e60 <quotearg_n_options>
    93a4:	66 90                	xchg   ax,ax
    93a6:	66 2e 0f 1f 84 00 00 	nop    WORD PTR cs:[rax+rax*1+0x0]
    93ad:	00 00 00 

00000000000093b0 <quotearg_n_style>:
    93b0:	48 83 ec 48          	sub    rsp,0x48
    93b4:	48 89 d0             	mov    rax,rdx
    93b7:	64 48 8b 14 25 28 00 	mov    rdx,QWORD PTR fs:0x28
    93be:	00 00 
    93c0:	48 89 54 24 38       	mov    QWORD PTR [rsp+0x38],rdx
    93c5:	31 d2                	xor    edx,edx
    93c7:	83 fe 0a             	cmp    esi,0xa
    93ca:	74 68                	je     9434 <quotearg_n_style+0x84>
    93cc:	89 34 24             	mov    DWORD PTR [rsp],esi
    93cf:	48 89 e1             	mov    rcx,rsp
    93d2:	48 c7 c2 ff ff ff ff 	mov    rdx,0xffffffffffffffff
    93d9:	48 89 c6             	mov    rsi,rax
    93dc:	48 c7 44 24 04 00 00 	mov    QWORD PTR [rsp+0x4],0x0
    93e3:	00 00 
    93e5:	48 c7 44 24 0c 00 00 	mov    QWORD PTR [rsp+0xc],0x0
    93ec:	00 00 
    93ee:	48 c7 44 24 14 00 00 	mov    QWORD PTR [rsp+0x14],0x0
    93f5:	00 00 
    93f7:	48 c7 44 24 1c 00 00 	mov    QWORD PTR [rsp+0x1c],0x0
    93fe:	00 00 
    9400:	48 c7 44 24 24 00 00 	mov    QWORD PTR [rsp+0x24],0x0
    9407:	00 00 
    9409:	48 c7 44 24 2c 00 00 	mov    QWORD PTR [rsp+0x2c],0x0
    9410:	00 00 
    9412:	c7 44 24 34 00 00 00 	mov    DWORD PTR [rsp+0x34],0x0
    9419:	00 
    941a:	e8 41 fa ff ff       	call   8e60 <quotearg_n_options>
    941f:	48 8b 4c 24 38       	mov    rcx,QWORD PTR [rsp+0x38]
    9424:	64 48 33 0c 25 28 00 	xor    rcx,QWORD PTR fs:0x28
    942b:	00 00 
    942d:	75 0a                	jne    9439 <quotearg_n_style+0x89>
    942f:	48 83 c4 48          	add    rsp,0x48
    9433:	c3                   	ret    
    9434:	e8 87 81 ff ff       	call   15c0 <abort@plt>
    9439:	e8 52 82 ff ff       	call   1690 <__stack_chk_fail@plt>
    943e:	66 90                	xchg   ax,ax

0000000000009440 <quotearg_n_style_mem>:
    9440:	48 83 ec 48          	sub    rsp,0x48
    9444:	48 89 d0             	mov    rax,rdx
    9447:	48 89 ca             	mov    rdx,rcx
    944a:	64 48 8b 0c 25 28 00 	mov    rcx,QWORD PTR fs:0x28
    9451:	00 00 
    9453:	48 89 4c 24 38       	mov    QWORD PTR [rsp+0x38],rcx
    9458:	31 c9                	xor    ecx,ecx
    945a:	83 fe 0a             	cmp    esi,0xa
    945d:	74 61                	je     94c0 <quotearg_n_style_mem+0x80>
    945f:	89 34 24             	mov    DWORD PTR [rsp],esi
    9462:	48 89 e1             	mov    rcx,rsp
    9465:	48 89 c6             	mov    rsi,rax
    9468:	48 c7 44 24 04 00 00 	mov    QWORD PTR [rsp+0x4],0x0
    946f:	00 00 
    9471:	48 c7 44 24 0c 00 00 	mov    QWORD PTR [rsp+0xc],0x0
    9478:	00 00 
    947a:	48 c7 44 24 14 00 00 	mov    QWORD PTR [rsp+0x14],0x0
    9481:	00 00 
    9483:	48 c7 44 24 1c 00 00 	mov    QWORD PTR [rsp+0x1c],0x0
    948a:	00 00 
    948c:	48 c7 44 24 24 00 00 	mov    QWORD PTR [rsp+0x24],0x0
    9493:	00 00 
    9495:	48 c7 44 24 2c 00 00 	mov    QWORD PTR [rsp+0x2c],0x0
    949c:	00 00 
    949e:	c7 44 24 34 00 00 00 	mov    DWORD PTR [rsp+0x34],0x0
    94a5:	00 
    94a6:	e8 b5 f9 ff ff       	call   8e60 <quotearg_n_options>
    94ab:	48 8b 54 24 38       	mov    rdx,QWORD PTR [rsp+0x38]
    94b0:	64 48 33 14 25 28 00 	xor    rdx,QWORD PTR fs:0x28
    94b7:	00 00 
    94b9:	75 0a                	jne    94c5 <quotearg_n_style_mem+0x85>
    94bb:	48 83 c4 48          	add    rsp,0x48
    94bf:	c3                   	ret    
    94c0:	e8 fb 80 ff ff       	call   15c0 <abort@plt>
    94c5:	e8 c6 81 ff ff       	call   1690 <__stack_chk_fail@plt>
    94ca:	66 0f 1f 44 00 00    	nop    WORD PTR [rax+rax*1+0x0]

00000000000094d0 <quotearg_style>:
    94d0:	48 89 f2             	mov    rdx,rsi
    94d3:	89 fe                	mov    esi,edi
    94d5:	31 ff                	xor    edi,edi
    94d7:	e9 d4 fe ff ff       	jmp    93b0 <quotearg_n_style>
    94dc:	0f 1f 40 00          	nop    DWORD PTR [rax+0x0]

00000000000094e0 <quotearg_style_mem>:
    94e0:	48 89 d1             	mov    rcx,rdx
    94e3:	48 89 f2             	mov    rdx,rsi
    94e6:	89 fe                	mov    esi,edi
    94e8:	31 ff                	xor    edi,edi
    94ea:	e9 51 ff ff ff       	jmp    9440 <quotearg_n_style_mem>
    94ef:	90                   	nop

00000000000094f0 <quotearg_char_mem>:
    94f0:	48 83 ec 48          	sub    rsp,0x48
    94f4:	89 d1                	mov    ecx,edx
    94f6:	64 48 8b 04 25 28 00 	mov    rax,QWORD PTR fs:0x28
    94fd:	00 00 
    94ff:	48 89 44 24 38       	mov    QWORD PTR [rsp+0x38],rax
    9504:	31 c0                	xor    eax,eax
    9506:	48 8b 05 63 4d 20 00 	mov    rax,QWORD PTR [rip+0x204d63]        # 20e270 <default_quoting_options+0x30>
    950d:	49 89 e0             	mov    r8,rsp
    9510:	83 e1 1f             	and    ecx,0x1f
    9513:	66 0f 6f 05 25 4d 20 	movdqa xmm0,XMMWORD PTR [rip+0x204d25]        # 20e240 <default_quoting_options>
    951a:	00 
    951b:	48 89 44 24 30       	mov    QWORD PTR [rsp+0x30],rax
    9520:	89 d0                	mov    eax,edx
    9522:	0f 29 04 24          	movaps XMMWORD PTR [rsp],xmm0
    9526:	c0 e8 05             	shr    al,0x5
    9529:	0f b6 c0             	movzx  eax,al
    952c:	4d 8d 4c 80 08       	lea    r9,[r8+rax*4+0x8]
    9531:	66 0f 6f 05 17 4d 20 	movdqa xmm0,XMMWORD PTR [rip+0x204d17]        # 20e250 <default_quoting_options+0x10>
    9538:	00 
    9539:	0f 29 44 24 10       	movaps XMMWORD PTR [rsp+0x10],xmm0
    953e:	66 0f 6f 05 1a 4d 20 	movdqa xmm0,XMMWORD PTR [rip+0x204d1a]        # 20e260 <default_quoting_options+0x20>
    9545:	00 
    9546:	0f 29 44 24 20       	movaps XMMWORD PTR [rsp+0x20],xmm0
    954b:	41 8b 11             	mov    edx,DWORD PTR [r9]
    954e:	89 d0                	mov    eax,edx
    9550:	d3 e8                	shr    eax,cl
    9552:	f7 d0                	not    eax
    9554:	83 e0 01             	and    eax,0x1
    9557:	d3 e0                	shl    eax,cl
    9559:	4c 89 c1             	mov    rcx,r8
    955c:	31 d0                	xor    eax,edx
    955e:	48 89 f2             	mov    rdx,rsi
    9561:	48 89 fe             	mov    rsi,rdi
    9564:	41 89 01             	mov    DWORD PTR [r9],eax
    9567:	31 ff                	xor    edi,edi
    9569:	e8 f2 f8 ff ff       	call   8e60 <quotearg_n_options>
    956e:	48 8b 74 24 38       	mov    rsi,QWORD PTR [rsp+0x38]
    9573:	64 48 33 34 25 28 00 	xor    rsi,QWORD PTR fs:0x28
    957a:	00 00 
    957c:	75 05                	jne    9583 <quotearg_char_mem+0x93>
    957e:	48 83 c4 48          	add    rsp,0x48
    9582:	c3                   	ret    
    9583:	e8 08 81 ff ff       	call   1690 <__stack_chk_fail@plt>
    9588:	0f 1f 84 00 00 00 00 	nop    DWORD PTR [rax+rax*1+0x0]
    958f:	00 

0000000000009590 <quotearg_char>:
    9590:	40 0f be d6          	movsx  edx,sil
    9594:	48 c7 c6 ff ff ff ff 	mov    rsi,0xffffffffffffffff
    959b:	e9 50 ff ff ff       	jmp    94f0 <quotearg_char_mem>

00000000000095a0 <quotearg_colon>:
    95a0:	ba 3a 00 00 00       	mov    edx,0x3a
    95a5:	48 c7 c6 ff ff ff ff 	mov    rsi,0xffffffffffffffff
    95ac:	e9 3f ff ff ff       	jmp    94f0 <quotearg_char_mem>
    95b1:	0f 1f 44 00 00       	nop    DWORD PTR [rax+rax*1+0x0]
    95b6:	66 2e 0f 1f 84 00 00 	nop    WORD PTR cs:[rax+rax*1+0x0]
    95bd:	00 00 00 

00000000000095c0 <quotearg_colon_mem>:
    95c0:	ba 3a 00 00 00       	mov    edx,0x3a
    95c5:	e9 26 ff ff ff       	jmp    94f0 <quotearg_char_mem>
    95ca:	66 0f 1f 44 00 00    	nop    WORD PTR [rax+rax*1+0x0]

00000000000095d0 <quotearg_n_style_colon>:
    95d0:	48 83 ec 48          	sub    rsp,0x48
    95d4:	48 89 d0             	mov    rax,rdx
    95d7:	64 48 8b 14 25 28 00 	mov    rdx,QWORD PTR fs:0x28
    95de:	00 00 
    95e0:	48 89 54 24 38       	mov    QWORD PTR [rsp+0x38],rdx
    95e5:	31 d2                	xor    edx,edx
    95e7:	83 fe 0a             	cmp    esi,0xa
    95ea:	74 68                	je     9654 <quotearg_n_style_colon+0x84>
    95ec:	89 34 24             	mov    DWORD PTR [rsp],esi
    95ef:	48 89 e1             	mov    rcx,rsp
    95f2:	48 c7 c2 ff ff ff ff 	mov    rdx,0xffffffffffffffff
    95f9:	48 89 c6             	mov    rsi,rax
    95fc:	48 c7 44 24 04 00 00 	mov    QWORD PTR [rsp+0x4],0x0
    9603:	00 00 
    9605:	48 c7 44 24 0c 00 00 	mov    QWORD PTR [rsp+0xc],0x4000000
    960c:	00 04 
    960e:	48 c7 44 24 14 00 00 	mov    QWORD PTR [rsp+0x14],0x0
    9615:	00 00 
    9617:	48 c7 44 24 1c 00 00 	mov    QWORD PTR [rsp+0x1c],0x0
    961e:	00 00 
    9620:	48 c7 44 24 24 00 00 	mov    QWORD PTR [rsp+0x24],0x0
    9627:	00 00 
    9629:	48 c7 44 24 2c 00 00 	mov    QWORD PTR [rsp+0x2c],0x0
    9630:	00 00 
    9632:	c7 44 24 34 00 00 00 	mov    DWORD PTR [rsp+0x34],0x0
    9639:	00 
    963a:	e8 21 f8 ff ff       	call   8e60 <quotearg_n_options>
    963f:	48 8b 4c 24 38       	mov    rcx,QWORD PTR [rsp+0x38]
    9644:	64 48 33 0c 25 28 00 	xor    rcx,QWORD PTR fs:0x28
    964b:	00 00 
    964d:	75 0a                	jne    9659 <quotearg_n_style_colon+0x89>
    964f:	48 83 c4 48          	add    rsp,0x48
    9653:	c3                   	ret    
    9654:	e8 67 7f ff ff       	call   15c0 <abort@plt>
    9659:	e8 32 80 ff ff       	call   1690 <__stack_chk_fail@plt>
    965e:	66 90                	xchg   ax,ax

0000000000009660 <quotearg_n_custom_mem>:
    9660:	48 83 ec 48          	sub    rsp,0x48
    9664:	49 89 c9             	mov    r9,rcx
    9667:	48 8b 0d 02 4c 20 00 	mov    rcx,QWORD PTR [rip+0x204c02]        # 20e270 <default_quoting_options+0x30>
    966e:	66 0f 6f 05 ca 4b 20 	movdqa xmm0,XMMWORD PTR [rip+0x204bca]        # 20e240 <default_quoting_options>
    9675:	00 
    9676:	64 48 8b 04 25 28 00 	mov    rax,QWORD PTR fs:0x28
    967d:	00 00 
    967f:	48 89 44 24 38       	mov    QWORD PTR [rsp+0x38],rax
    9684:	31 c0                	xor    eax,eax
    9686:	0f 29 04 24          	movaps XMMWORD PTR [rsp],xmm0
    968a:	48 85 f6             	test   rsi,rsi
    968d:	48 89 4c 24 30       	mov    QWORD PTR [rsp+0x30],rcx
    9692:	c7 04 24 0a 00 00 00 	mov    DWORD PTR [rsp],0xa
    9699:	66 0f 6f 05 af 4b 20 	movdqa xmm0,XMMWORD PTR [rip+0x204baf]        # 20e250 <default_quoting_options+0x10>
    96a0:	00 
    96a1:	0f 29 44 24 10       	movaps XMMWORD PTR [rsp+0x10],xmm0
    96a6:	66 0f 6f 05 b2 4b 20 	movdqa xmm0,XMMWORD PTR [rip+0x204bb2]        # 20e260 <default_quoting_options+0x20>
    96ad:	00 
    96ae:	0f 29 44 24 20       	movaps XMMWORD PTR [rsp+0x20],xmm0
    96b3:	74 32                	je     96e7 <quotearg_n_custom_mem+0x87>
    96b5:	48 85 d2             	test   rdx,rdx
    96b8:	74 2d                	je     96e7 <quotearg_n_custom_mem+0x87>
    96ba:	48 89 74 24 28       	mov    QWORD PTR [rsp+0x28],rsi
    96bf:	48 89 54 24 30       	mov    QWORD PTR [rsp+0x30],rdx
    96c4:	48 89 e1             	mov    rcx,rsp
    96c7:	4c 89 c2             	mov    rdx,r8
    96ca:	4c 89 ce             	mov    rsi,r9
    96cd:	e8 8e f7 ff ff       	call   8e60 <quotearg_n_options>
    96d2:	48 8b 7c 24 38       	mov    rdi,QWORD PTR [rsp+0x38]
    96d7:	64 48 33 3c 25 28 00 	xor    rdi,QWORD PTR fs:0x28
    96de:	00 00 
    96e0:	75 0a                	jne    96ec <quotearg_n_custom_mem+0x8c>
    96e2:	48 83 c4 48          	add    rsp,0x48
    96e6:	c3                   	ret    
    96e7:	e8 d4 7e ff ff       	call   15c0 <abort@plt>
    96ec:	e8 9f 7f ff ff       	call   1690 <__stack_chk_fail@plt>
    96f1:	0f 1f 44 00 00       	nop    DWORD PTR [rax+rax*1+0x0]
    96f6:	66 2e 0f 1f 84 00 00 	nop    WORD PTR cs:[rax+rax*1+0x0]
    96fd:	00 00 00 

0000000000009700 <quotearg_n_custom>:
    9700:	49 c7 c0 ff ff ff ff 	mov    r8,0xffffffffffffffff
    9707:	e9 54 ff ff ff       	jmp    9660 <quotearg_n_custom_mem>
    970c:	0f 1f 40 00          	nop    DWORD PTR [rax+0x0]

0000000000009710 <quotearg_custom>:
    9710:	48 89 d1             	mov    rcx,rdx
    9713:	49 c7 c0 ff ff ff ff 	mov    r8,0xffffffffffffffff
    971a:	48 89 f2             	mov    rdx,rsi
    971d:	48 89 fe             	mov    rsi,rdi
    9720:	31 ff                	xor    edi,edi
    9722:	e9 39 ff ff ff       	jmp    9660 <quotearg_n_custom_mem>
    9727:	66 0f 1f 84 00 00 00 	nop    WORD PTR [rax+rax*1+0x0]
    972e:	00 00 

0000000000009730 <quotearg_custom_mem>:
    9730:	49 89 c8             	mov    r8,rcx
    9733:	48 89 d1             	mov    rcx,rdx
    9736:	48 89 f2             	mov    rdx,rsi
    9739:	48 89 fe             	mov    rsi,rdi
    973c:	31 ff                	xor    edi,edi
    973e:	e9 1d ff ff ff       	jmp    9660 <quotearg_n_custom_mem>
    9743:	0f 1f 00             	nop    DWORD PTR [rax]
    9746:	66 2e 0f 1f 84 00 00 	nop    WORD PTR cs:[rax+rax*1+0x0]
    974d:	00 00 00 

0000000000009750 <quote_n_mem>:
    9750:	48 8d 0d e9 48 20 00 	lea    rcx,[rip+0x2048e9]        # 20e040 <quote_quoting_options>
    9757:	e9 04 f7 ff ff       	jmp    8e60 <quotearg_n_options>
    975c:	0f 1f 40 00          	nop    DWORD PTR [rax+0x0]

0000000000009760 <quote_mem>:
    9760:	48 8d 0d d9 48 20 00 	lea    rcx,[rip+0x2048d9]        # 20e040 <quote_quoting_options>
    9767:	48 89 f2             	mov    rdx,rsi
    976a:	48 89 fe             	mov    rsi,rdi
    976d:	31 ff                	xor    edi,edi
    976f:	e9 ec f6 ff ff       	jmp    8e60 <quotearg_n_options>
    9774:	66 90                	xchg   ax,ax
    9776:	66 2e 0f 1f 84 00 00 	nop    WORD PTR cs:[rax+rax*1+0x0]
    977d:	00 00 00 

0000000000009780 <quote_n>:
    9780:	48 8d 0d b9 48 20 00 	lea    rcx,[rip+0x2048b9]        # 20e040 <quote_quoting_options>
    9787:	48 c7 c2 ff ff ff ff 	mov    rdx,0xffffffffffffffff
    978e:	e9 cd f6 ff ff       	jmp    8e60 <quotearg_n_options>
    9793:	0f 1f 00             	nop    DWORD PTR [rax]
    9796:	66 2e 0f 1f 84 00 00 	nop    WORD PTR cs:[rax+rax*1+0x0]
    979d:	00 00 00 

00000000000097a0 <quote>:
    97a0:	48 8d 0d 99 48 20 00 	lea    rcx,[rip+0x204899]        # 20e040 <quote_quoting_options>
    97a7:	48 89 fe             	mov    rsi,rdi
    97aa:	48 c7 c2 ff ff ff ff 	mov    rdx,0xffffffffffffffff
    97b1:	31 ff                	xor    edi,edi
    97b3:	e9 a8 f6 ff ff       	jmp    8e60 <quotearg_n_options>
    97b8:	0f 1f 84 00 00 00 00 	nop    DWORD PTR [rax+rax*1+0x0]
    97bf:	00 

00000000000097c0 <dup_safer>:
    97c0:	ba 03 00 00 00       	mov    edx,0x3
    97c5:	31 f6                	xor    esi,esi
    97c7:	31 c0                	xor    eax,eax
    97c9:	e9 32 09 00 00       	jmp    a100 <rpl_fcntl>
    97ce:	66 90                	xchg   ax,ax

00000000000097d0 <version_etc_arn>:
    97d0:	41 57                	push   r15
    97d2:	41 56                	push   r14
    97d4:	41 55                	push   r13
    97d6:	41 54                	push   r12
    97d8:	4d 89 cc             	mov    r12,r9
    97db:	55                   	push   rbp
    97dc:	53                   	push   rbx
    97dd:	48 89 fd             	mov    rbp,rdi
    97e0:	4c 89 c3             	mov    rbx,r8
    97e3:	48 83 ec 28          	sub    rsp,0x28
    97e7:	48 85 f6             	test   rsi,rsi
    97ea:	0f 84 18 01 00 00    	je     9908 <version_etc_arn+0x138>
    97f0:	49 89 d0             	mov    r8,rdx
    97f3:	48 8d 15 0e 20 00 00 	lea    rdx,[rip+0x200e]        # b808 <quoting_style_vals+0x28>
    97fa:	49 89 c9             	mov    r9,rcx
    97fd:	31 c0                	xor    eax,eax
    97ff:	48 89 f1             	mov    rcx,rsi
    9802:	be 01 00 00 00       	mov    esi,0x1
    9807:	e8 94 80 ff ff       	call   18a0 <__fprintf_chk@plt>
    980c:	48 8d 35 08 20 00 00 	lea    rsi,[rip+0x2008]        # b81b <quoting_style_vals+0x3b>
    9813:	31 ff                	xor    edi,edi
    9815:	ba 05 00 00 00       	mov    edx,0x5
    981a:	e8 41 7e ff ff       	call   1660 <dcgettext@plt>
    981f:	48 8d 15 1a 23 00 00 	lea    rdx,[rip+0x231a]        # bb40 <version_etc_copyright>
    9826:	48 89 c1             	mov    rcx,rax
    9829:	41 b8 e3 07 00 00    	mov    r8d,0x7e3
    982f:	be 01 00 00 00       	mov    esi,0x1
    9834:	48 89 ef             	mov    rdi,rbp
    9837:	31 c0                	xor    eax,eax
    9839:	e8 62 80 ff ff       	call   18a0 <__fprintf_chk@plt>
    983e:	48 8d 35 63 20 00 00 	lea    rsi,[rip+0x2063]        # b8a8 <quoting_style_vals+0xc8>
    9845:	31 ff                	xor    edi,edi
    9847:	ba 05 00 00 00       	mov    edx,0x5
    984c:	e8 0f 7e ff ff       	call   1660 <dcgettext@plt>
    9851:	48 89 ee             	mov    rsi,rbp
    9854:	48 89 c7             	mov    rdi,rax
    9857:	e8 e4 7e ff ff       	call   1740 <fputs_unlocked@plt>
    985c:	49 83 fc 09          	cmp    r12,0x9
    9860:	0f 87 3a 03 00 00    	ja     9ba0 <version_etc_arn+0x3d0>
    9866:	48 8d 15 9b 22 00 00 	lea    rdx,[rip+0x229b]        # bb08 <quoting_style_vals+0x328>
    986d:	4a 63 04 a2          	movsxd rax,DWORD PTR [rdx+r12*4]
    9871:	48 01 d0             	add    rax,rdx
    9874:	ff e0                	jmp    rax
    9876:	66 2e 0f 1f 84 00 00 	nop    WORD PTR cs:[rax+rax*1+0x0]
    987d:	00 00 00 
    9880:	4c 8b 4b 38          	mov    r9,QWORD PTR [rbx+0x38]
    9884:	48 8b 43 10          	mov    rax,QWORD PTR [rbx+0x10]
    9888:	48 8d 35 89 21 00 00 	lea    rsi,[rip+0x2189]        # ba18 <quoting_style_vals+0x238>
    988f:	4c 8b 43 08          	mov    r8,QWORD PTR [rbx+0x8]
    9893:	ba 05 00 00 00       	mov    edx,0x5
    9898:	31 ff                	xor    edi,edi
    989a:	4c 8b 6b 30          	mov    r13,QWORD PTR [rbx+0x30]
    989e:	4c 8b 63 28          	mov    r12,QWORD PTR [rbx+0x28]
    98a2:	4c 89 4c 24 10       	mov    QWORD PTR [rsp+0x10],r9
    98a7:	4c 8b 7b 20          	mov    r15,QWORD PTR [rbx+0x20]
    98ab:	4c 8b 73 18          	mov    r14,QWORD PTR [rbx+0x18]
    98af:	48 89 04 24          	mov    QWORD PTR [rsp],rax
    98b3:	4c 89 44 24 08       	mov    QWORD PTR [rsp+0x8],r8
    98b8:	48 8b 1b             	mov    rbx,QWORD PTR [rbx]
    98bb:	e8 a0 7d ff ff       	call   1660 <dcgettext@plt>
    98c0:	48 83 ec 08          	sub    rsp,0x8
    98c4:	4c 8b 4c 24 18       	mov    r9,QWORD PTR [rsp+0x18]
    98c9:	48 89 c2             	mov    rdx,rax
    98cc:	48 89 d9             	mov    rcx,rbx
    98cf:	be 01 00 00 00       	mov    esi,0x1
    98d4:	48 89 ef             	mov    rdi,rbp
    98d7:	31 c0                	xor    eax,eax
    98d9:	41 51                	push   r9
    98db:	41 55                	push   r13
    98dd:	41 54                	push   r12
    98df:	41 57                	push   r15
    98e1:	41 56                	push   r14
    98e3:	4c 8b 4c 24 30       	mov    r9,QWORD PTR [rsp+0x30]
    98e8:	4c 8b 44 24 38       	mov    r8,QWORD PTR [rsp+0x38]
    98ed:	e8 ae 7f ff ff       	call   18a0 <__fprintf_chk@plt>
    98f2:	48 83 c4 30          	add    rsp,0x30
    98f6:	48 83 c4 28          	add    rsp,0x28
    98fa:	5b                   	pop    rbx
    98fb:	5d                   	pop    rbp
    98fc:	41 5c                	pop    r12
    98fe:	41 5d                	pop    r13
    9900:	41 5e                	pop    r14
    9902:	41 5f                	pop    r15
    9904:	c3                   	ret    
    9905:	0f 1f 00             	nop    DWORD PTR [rax]
    9908:	49 89 c8             	mov    r8,rcx
    990b:	48 89 d1             	mov    rcx,rdx
    990e:	48 8d 15 ff 1e 00 00 	lea    rdx,[rip+0x1eff]        # b814 <quoting_style_vals+0x34>
    9915:	be 01 00 00 00       	mov    esi,0x1
    991a:	31 c0                	xor    eax,eax
    991c:	e8 7f 7f ff ff       	call   18a0 <__fprintf_chk@plt>
    9921:	e9 e6 fe ff ff       	jmp    980c <version_etc_arn+0x3c>
    9926:	66 2e 0f 1f 84 00 00 	nop    WORD PTR cs:[rax+rax*1+0x0]
    992d:	00 00 00 
    9930:	4c 8b 53 40          	mov    r10,QWORD PTR [rbx+0x40]
    9934:	4c 8b 4b 38          	mov    r9,QWORD PTR [rbx+0x38]
    9938:	48 8d 35 09 21 00 00 	lea    rsi,[rip+0x2109]        # ba48 <quoting_style_vals+0x268>
    993f:	48 8b 43 10          	mov    rax,QWORD PTR [rbx+0x10]
    9943:	4c 8b 43 08          	mov    r8,QWORD PTR [rbx+0x8]
    9947:	ba 05 00 00 00       	mov    edx,0x5
    994c:	4c 8b 6b 30          	mov    r13,QWORD PTR [rbx+0x30]
    9950:	4c 8b 63 28          	mov    r12,QWORD PTR [rbx+0x28]
    9954:	4c 8b 7b 20          	mov    r15,QWORD PTR [rbx+0x20]
    9958:	4c 8b 73 18          	mov    r14,QWORD PTR [rbx+0x18]
    995c:	48 8b 1b             	mov    rbx,QWORD PTR [rbx]
    995f:	4c 89 54 24 18       	mov    QWORD PTR [rsp+0x18],r10
    9964:	4c 89 4c 24 10       	mov    QWORD PTR [rsp+0x10],r9
    9969:	48 89 04 24          	mov    QWORD PTR [rsp],rax
    996d:	4c 89 44 24 08       	mov    QWORD PTR [rsp+0x8],r8
    9972:	31 ff                	xor    edi,edi
    9974:	e8 e7 7c ff ff       	call   1660 <dcgettext@plt>
    9979:	4c 8b 54 24 18       	mov    r10,QWORD PTR [rsp+0x18]
    997e:	41 52                	push   r10
    9980:	e9 3f ff ff ff       	jmp    98c4 <version_etc_arn+0xf4>
    9985:	0f 1f 00             	nop    DWORD PTR [rax]
    9988:	48 8b 1b             	mov    rbx,QWORD PTR [rbx]
    998b:	48 8d 35 8d 1e 00 00 	lea    rsi,[rip+0x1e8d]        # b81f <quoting_style_vals+0x3f>
    9992:	ba 05 00 00 00       	mov    edx,0x5
    9997:	31 ff                	xor    edi,edi
    9999:	e8 c2 7c ff ff       	call   1660 <dcgettext@plt>
    999e:	48 83 c4 28          	add    rsp,0x28
    99a2:	48 89 d9             	mov    rcx,rbx
    99a5:	48 89 ef             	mov    rdi,rbp
    99a8:	5b                   	pop    rbx
    99a9:	5d                   	pop    rbp
    99aa:	41 5c                	pop    r12
    99ac:	41 5d                	pop    r13
    99ae:	41 5e                	pop    r14
    99b0:	41 5f                	pop    r15
    99b2:	48 89 c2             	mov    rdx,rax
    99b5:	be 01 00 00 00       	mov    esi,0x1
    99ba:	31 c0                	xor    eax,eax
    99bc:	e9 df 7e ff ff       	jmp    18a0 <__fprintf_chk@plt>
    99c1:	0f 1f 80 00 00 00 00 	nop    DWORD PTR [rax+0x0]
    99c8:	4c 8b 63 08          	mov    r12,QWORD PTR [rbx+0x8]
    99cc:	48 8d 35 5c 1e 00 00 	lea    rsi,[rip+0x1e5c]        # b82f <quoting_style_vals+0x4f>
    99d3:	48 8b 1b             	mov    rbx,QWORD PTR [rbx]
    99d6:	ba 05 00 00 00       	mov    edx,0x5
    99db:	31 ff                	xor    edi,edi
    99dd:	e8 7e 7c ff ff       	call   1660 <dcgettext@plt>
    99e2:	48 83 c4 28          	add    rsp,0x28
    99e6:	4d 89 e0             	mov    r8,r12
    99e9:	48 89 d9             	mov    rcx,rbx
    99ec:	48 89 ef             	mov    rdi,rbp
    99ef:	48 89 c2             	mov    rdx,rax
    99f2:	be 01 00 00 00       	mov    esi,0x1
    99f7:	5b                   	pop    rbx
    99f8:	5d                   	pop    rbp
    99f9:	41 5c                	pop    r12
    99fb:	41 5d                	pop    r13
    99fd:	41 5e                	pop    r14
    99ff:	41 5f                	pop    r15
    9a01:	31 c0                	xor    eax,eax
    9a03:	e9 98 7e ff ff       	jmp    18a0 <__fprintf_chk@plt>
    9a08:	0f 1f 84 00 00 00 00 	nop    DWORD PTR [rax+rax*1+0x0]
    9a0f:	00 
    9a10:	4c 8b 6b 10          	mov    r13,QWORD PTR [rbx+0x10]
    9a14:	4c 8b 63 08          	mov    r12,QWORD PTR [rbx+0x8]
    9a18:	48 8d 35 27 1e 00 00 	lea    rsi,[rip+0x1e27]        # b846 <quoting_style_vals+0x66>
    9a1f:	48 8b 1b             	mov    rbx,QWORD PTR [rbx]
    9a22:	ba 05 00 00 00       	mov    edx,0x5
    9a27:	31 ff                	xor    edi,edi
    9a29:	e8 32 7c ff ff       	call   1660 <dcgettext@plt>
    9a2e:	48 83 c4 28          	add    rsp,0x28
    9a32:	4d 89 e9             	mov    r9,r13
    9a35:	4d 89 e0             	mov    r8,r12
    9a38:	48 89 d9             	mov    rcx,rbx
    9a3b:	48 89 ef             	mov    rdi,rbp
    9a3e:	48 89 c2             	mov    rdx,rax
    9a41:	5b                   	pop    rbx
    9a42:	5d                   	pop    rbp
    9a43:	41 5c                	pop    r12
    9a45:	41 5d                	pop    r13
    9a47:	41 5e                	pop    r14
    9a49:	41 5f                	pop    r15
    9a4b:	be 01 00 00 00       	mov    esi,0x1
    9a50:	31 c0                	xor    eax,eax
    9a52:	e9 49 7e ff ff       	jmp    18a0 <__fprintf_chk@plt>
    9a57:	66 0f 1f 84 00 00 00 	nop    WORD PTR [rax+rax*1+0x0]
    9a5e:	00 00 
    9a60:	48 8d 35 11 1f 00 00 	lea    rsi,[rip+0x1f11]        # b978 <quoting_style_vals+0x198>
    9a67:	ba 05 00 00 00       	mov    edx,0x5
    9a6c:	31 ff                	xor    edi,edi
    9a6e:	4c 8b 73 18          	mov    r14,QWORD PTR [rbx+0x18]
    9a72:	4c 8b 6b 10          	mov    r13,QWORD PTR [rbx+0x10]
    9a76:	4c 8b 63 08          	mov    r12,QWORD PTR [rbx+0x8]
    9a7a:	48 8b 1b             	mov    rbx,QWORD PTR [rbx]
    9a7d:	e8 de 7b ff ff       	call   1660 <dcgettext@plt>
    9a82:	48 83 ec 08          	sub    rsp,0x8
    9a86:	41 56                	push   r14
    9a88:	48 89 c2             	mov    rdx,rax
    9a8b:	4d 89 e9             	mov    r9,r13
    9a8e:	4d 89 e0             	mov    r8,r12
    9a91:	48 89 d9             	mov    rcx,rbx
    9a94:	48 89 ef             	mov    rdi,rbp
    9a97:	be 01 00 00 00       	mov    esi,0x1
    9a9c:	31 c0                	xor    eax,eax
    9a9e:	e8 fd 7d ff ff       	call   18a0 <__fprintf_chk@plt>
    9aa3:	58                   	pop    rax
    9aa4:	5a                   	pop    rdx
    9aa5:	48 83 c4 28          	add    rsp,0x28
    9aa9:	5b                   	pop    rbx
    9aaa:	5d                   	pop    rbp
    9aab:	41 5c                	pop    r12
    9aad:	41 5d                	pop    r13
    9aaf:	41 5e                	pop    r14
    9ab1:	41 5f                	pop    r15
    9ab3:	c3                   	ret    
    9ab4:	0f 1f 40 00          	nop    DWORD PTR [rax+0x0]
    9ab8:	4c 8b 7b 20          	mov    r15,QWORD PTR [rbx+0x20]
    9abc:	48 8d 35 d5 1e 00 00 	lea    rsi,[rip+0x1ed5]        # b998 <quoting_style_vals+0x1b8>
    9ac3:	ba 05 00 00 00       	mov    edx,0x5
    9ac8:	31 ff                	xor    edi,edi
    9aca:	4c 8b 73 18          	mov    r14,QWORD PTR [rbx+0x18]
    9ace:	4c 8b 6b 10          	mov    r13,QWORD PTR [rbx+0x10]
    9ad2:	4c 8b 63 08          	mov    r12,QWORD PTR [rbx+0x8]
    9ad6:	48 8b 1b             	mov    rbx,QWORD PTR [rbx]
    9ad9:	e8 82 7b ff ff       	call   1660 <dcgettext@plt>
    9ade:	41 57                	push   r15
    9ae0:	eb a4                	jmp    9a86 <version_etc_arn+0x2b6>
    9ae2:	66 0f 1f 44 00 00    	nop    WORD PTR [rax+rax*1+0x0]
    9ae8:	4c 8b 43 08          	mov    r8,QWORD PTR [rbx+0x8]
    9aec:	4c 8b 63 28          	mov    r12,QWORD PTR [rbx+0x28]
    9af0:	48 8d 35 c9 1e 00 00 	lea    rsi,[rip+0x1ec9]        # b9c0 <quoting_style_vals+0x1e0>
    9af7:	4c 8b 7b 20          	mov    r15,QWORD PTR [rbx+0x20]
    9afb:	4c 8b 73 18          	mov    r14,QWORD PTR [rbx+0x18]
    9aff:	ba 05 00 00 00       	mov    edx,0x5
    9b04:	4c 8b 6b 10          	mov    r13,QWORD PTR [rbx+0x10]
    9b08:	31 ff                	xor    edi,edi
    9b0a:	48 8b 1b             	mov    rbx,QWORD PTR [rbx]
    9b0d:	4c 89 04 24          	mov    QWORD PTR [rsp],r8
    9b11:	e8 4a 7b ff ff       	call   1660 <dcgettext@plt>
    9b16:	48 83 ec 08          	sub    rsp,0x8
    9b1a:	4d 89 e9             	mov    r9,r13
    9b1d:	41 54                	push   r12
    9b1f:	41 57                	push   r15
    9b21:	41 56                	push   r14
    9b23:	4c 8b 44 24 20       	mov    r8,QWORD PTR [rsp+0x20]
    9b28:	48 89 d9             	mov    rcx,rbx
    9b2b:	48 89 c2             	mov    rdx,rax
    9b2e:	48 89 ef             	mov    rdi,rbp
    9b31:	be 01 00 00 00       	mov    esi,0x1
    9b36:	31 c0                	xor    eax,eax
    9b38:	e8 63 7d ff ff       	call   18a0 <__fprintf_chk@plt>
    9b3d:	48 83 c4 20          	add    rsp,0x20
    9b41:	48 83 c4 28          	add    rsp,0x28
    9b45:	5b                   	pop    rbx
    9b46:	5d                   	pop    rbp
    9b47:	41 5c                	pop    r12
    9b49:	41 5d                	pop    r13
    9b4b:	41 5e                	pop    r14
    9b4d:	41 5f                	pop    r15
    9b4f:	c3                   	ret    
    9b50:	4c 8b 4b 10          	mov    r9,QWORD PTR [rbx+0x10]
    9b54:	4c 8b 6b 30          	mov    r13,QWORD PTR [rbx+0x30]
    9b58:	48 8d 35 89 1e 00 00 	lea    rsi,[rip+0x1e89]        # b9e8 <quoting_style_vals+0x208>
    9b5f:	4c 8b 63 28          	mov    r12,QWORD PTR [rbx+0x28]
    9b63:	4c 8b 7b 20          	mov    r15,QWORD PTR [rbx+0x20]
    9b67:	ba 05 00 00 00       	mov    edx,0x5
    9b6c:	4c 8b 73 18          	mov    r14,QWORD PTR [rbx+0x18]
    9b70:	4c 8b 43 08          	mov    r8,QWORD PTR [rbx+0x8]
    9b74:	31 ff                	xor    edi,edi
    9b76:	4c 89 4c 24 08       	mov    QWORD PTR [rsp+0x8],r9
    9b7b:	48 8b 1b             	mov    rbx,QWORD PTR [rbx]
    9b7e:	4c 89 04 24          	mov    QWORD PTR [rsp],r8
    9b82:	e8 d9 7a ff ff       	call   1660 <dcgettext@plt>
    9b87:	41 55                	push   r13
    9b89:	41 54                	push   r12
    9b8b:	41 57                	push   r15
    9b8d:	41 56                	push   r14
    9b8f:	4c 8b 4c 24 28       	mov    r9,QWORD PTR [rsp+0x28]
    9b94:	eb 8d                	jmp    9b23 <version_etc_arn+0x353>
    9b96:	66 2e 0f 1f 84 00 00 	nop    WORD PTR cs:[rax+rax*1+0x0]
    9b9d:	00 00 00 
    9ba0:	4c 8b 53 40          	mov    r10,QWORD PTR [rbx+0x40]
    9ba4:	4c 8b 4b 38          	mov    r9,QWORD PTR [rbx+0x38]
    9ba8:	ba 05 00 00 00       	mov    edx,0x5
    9bad:	48 8b 43 10          	mov    rax,QWORD PTR [rbx+0x10]
    9bb1:	4c 8b 43 08          	mov    r8,QWORD PTR [rbx+0x8]
    9bb5:	48 8d 35 c4 1e 00 00 	lea    rsi,[rip+0x1ec4]        # ba80 <quoting_style_vals+0x2a0>
    9bbc:	4c 8b 6b 30          	mov    r13,QWORD PTR [rbx+0x30]
    9bc0:	4c 8b 63 28          	mov    r12,QWORD PTR [rbx+0x28]
    9bc4:	4c 8b 7b 20          	mov    r15,QWORD PTR [rbx+0x20]
    9bc8:	4c 8b 73 18          	mov    r14,QWORD PTR [rbx+0x18]
    9bcc:	4c 89 54 24 18       	mov    QWORD PTR [rsp+0x18],r10
    9bd1:	4c 89 4c 24 10       	mov    QWORD PTR [rsp+0x10],r9
    9bd6:	48 89 04 24          	mov    QWORD PTR [rsp],rax
    9bda:	4c 89 44 24 08       	mov    QWORD PTR [rsp+0x8],r8
    9bdf:	48 8b 1b             	mov    rbx,QWORD PTR [rbx]
    9be2:	e9 8b fd ff ff       	jmp    9972 <version_etc_arn+0x1a2>
    9be7:	66 0f 1f 84 00 00 00 	nop    WORD PTR [rax+rax*1+0x0]
    9bee:	00 00 

0000000000009bf0 <version_etc_ar>:
    9bf0:	45 31 c9             	xor    r9d,r9d
    9bf3:	49 83 38 00          	cmp    QWORD PTR [r8],0x0
    9bf7:	74 12                	je     9c0b <version_etc_ar+0x1b>
    9bf9:	0f 1f 80 00 00 00 00 	nop    DWORD PTR [rax+0x0]
    9c00:	49 83 c1 01          	add    r9,0x1
    9c04:	4b 83 3c c8 00       	cmp    QWORD PTR [r8+r9*8],0x0
    9c09:	75 f5                	jne    9c00 <version_etc_ar+0x10>
    9c0b:	e9 c0 fb ff ff       	jmp    97d0 <version_etc_arn>

0000000000009c10 <version_etc_va>:
    9c10:	48 83 ec 68          	sub    rsp,0x68
    9c14:	4d 89 c2             	mov    r10,r8
    9c17:	45 31 c9             	xor    r9d,r9d
    9c1a:	64 48 8b 04 25 28 00 	mov    rax,QWORD PTR fs:0x28
    9c21:	00 00 
    9c23:	48 89 44 24 58       	mov    QWORD PTR [rsp+0x58],rax
    9c28:	31 c0                	xor    eax,eax
    9c2a:	49 89 e0             	mov    r8,rsp
    9c2d:	0f 1f 00             	nop    DWORD PTR [rax]
    9c30:	41 8b 02             	mov    eax,DWORD PTR [r10]
    9c33:	83 f8 2f             	cmp    eax,0x2f
    9c36:	77 42                	ja     9c7a <version_etc_va+0x6a>
    9c38:	41 89 c3             	mov    r11d,eax
    9c3b:	4d 03 5a 10          	add    r11,QWORD PTR [r10+0x10]
    9c3f:	83 c0 08             	add    eax,0x8
    9c42:	41 89 02             	mov    DWORD PTR [r10],eax
    9c45:	49 8b 03             	mov    rax,QWORD PTR [r11]
    9c48:	48 85 c0             	test   rax,rax
    9c4b:	4b 89 04 c8          	mov    QWORD PTR [r8+r9*8],rax
    9c4f:	74 0a                	je     9c5b <version_etc_va+0x4b>
    9c51:	49 83 c1 01          	add    r9,0x1
    9c55:	49 83 f9 0a          	cmp    r9,0xa
    9c59:	75 d5                	jne    9c30 <version_etc_va+0x20>
    9c5b:	e8 70 fb ff ff       	call   97d0 <version_etc_arn>
    9c60:	48 8b 44 24 58       	mov    rax,QWORD PTR [rsp+0x58]
    9c65:	64 48 33 04 25 28 00 	xor    rax,QWORD PTR fs:0x28
    9c6c:	00 00 
    9c6e:	75 05                	jne    9c75 <version_etc_va+0x65>
    9c70:	48 83 c4 68          	add    rsp,0x68
    9c74:	c3                   	ret    
    9c75:	e8 16 7a ff ff       	call   1690 <__stack_chk_fail@plt>
    9c7a:	4d 8b 5a 08          	mov    r11,QWORD PTR [r10+0x8]
    9c7e:	49 8d 43 08          	lea    rax,[r11+0x8]
    9c82:	49 89 42 08          	mov    QWORD PTR [r10+0x8],rax
    9c86:	eb bd                	jmp    9c45 <version_etc_va+0x35>
    9c88:	0f 1f 84 00 00 00 00 	nop    DWORD PTR [rax+rax*1+0x0]
    9c8f:	00 

0000000000009c90 <version_etc>:
    9c90:	55                   	push   rbp
    9c91:	53                   	push   rbx
    9c92:	41 ba 20 00 00 00    	mov    r10d,0x20
    9c98:	45 31 db             	xor    r11d,r11d
    9c9b:	48 81 ec b8 00 00 00 	sub    rsp,0xb8
    9ca2:	64 48 8b 04 25 28 00 	mov    rax,QWORD PTR fs:0x28
    9ca9:	00 00 
    9cab:	48 89 44 24 78       	mov    QWORD PTR [rsp+0x78],rax
    9cb0:	31 c0                	xor    eax,eax
    9cb2:	48 8d 84 24 d0 00 00 	lea    rax,[rsp+0xd0]
    9cb9:	00 
    9cba:	4c 89 84 24 a0 00 00 	mov    QWORD PTR [rsp+0xa0],r8
    9cc1:	00 
    9cc2:	48 8d 9c 24 d0 00 00 	lea    rbx,[rsp+0xd0]
    9cc9:	00 
    9cca:	4c 8d 44 24 20       	lea    r8,[rsp+0x20]
    9ccf:	4c 89 8c 24 a8 00 00 	mov    QWORD PTR [rsp+0xa8],r9
    9cd6:	00 
    9cd7:	c7 44 24 08 20 00 00 	mov    DWORD PTR [rsp+0x8],0x20
    9cde:	00 
    9cdf:	48 89 44 24 10       	mov    QWORD PTR [rsp+0x10],rax
    9ce4:	48 8d 84 24 80 00 00 	lea    rax,[rsp+0x80]
    9ceb:	00 
    9cec:	45 31 c9             	xor    r9d,r9d
    9cef:	48 89 44 24 18       	mov    QWORD PTR [rsp+0x18],rax
    9cf4:	48 89 c5             	mov    rbp,rax
    9cf7:	66 0f 1f 84 00 00 00 	nop    WORD PTR [rax+rax*1+0x0]
    9cfe:	00 00 
    9d00:	41 83 fa 2f          	cmp    r10d,0x2f
    9d04:	77 56                	ja     9d5c <version_etc+0xcc>
    9d06:	44 89 d0             	mov    eax,r10d
    9d09:	41 bb 01 00 00 00    	mov    r11d,0x1
    9d0f:	41 83 c2 08          	add    r10d,0x8
    9d13:	48 01 e8             	add    rax,rbp
    9d16:	48 8b 00             	mov    rax,QWORD PTR [rax]
    9d19:	48 85 c0             	test   rax,rax
    9d1c:	4b 89 04 c8          	mov    QWORD PTR [r8+r9*8],rax
    9d20:	74 0a                	je     9d2c <version_etc+0x9c>
    9d22:	49 83 c1 01          	add    r9,0x1
    9d26:	49 83 f9 0a          	cmp    r9,0xa
    9d2a:	75 d4                	jne    9d00 <version_etc+0x70>
    9d2c:	45 84 db             	test   r11b,r11b
    9d2f:	75 24                	jne    9d55 <version_etc+0xc5>
    9d31:	e8 9a fa ff ff       	call   97d0 <version_etc_arn>
    9d36:	48 8b 44 24 78       	mov    rax,QWORD PTR [rsp+0x78]
    9d3b:	64 48 33 04 25 28 00 	xor    rax,QWORD PTR fs:0x28
    9d42:	00 00 
    9d44:	75 0a                	jne    9d50 <version_etc+0xc0>
    9d46:	48 81 c4 b8 00 00 00 	add    rsp,0xb8
    9d4d:	5b                   	pop    rbx
    9d4e:	5d                   	pop    rbp
    9d4f:	c3                   	ret    
    9d50:	e8 3b 79 ff ff       	call   1690 <__stack_chk_fail@plt>
    9d55:	44 89 54 24 08       	mov    DWORD PTR [rsp+0x8],r10d
    9d5a:	eb d5                	jmp    9d31 <version_etc+0xa1>
    9d5c:	48 89 d8             	mov    rax,rbx
    9d5f:	48 83 c3 08          	add    rbx,0x8
    9d63:	eb b1                	jmp    9d16 <version_etc+0x86>
    9d65:	90                   	nop
    9d66:	66 2e 0f 1f 84 00 00 	nop    WORD PTR cs:[rax+rax*1+0x0]
    9d6d:	00 00 00 

0000000000009d70 <emit_bug_reporting_address>:
    9d70:	53                   	push   rbx
    9d71:	48 8d 35 ea 1a 00 00 	lea    rsi,[rip+0x1aea]        # b862 <quoting_style_vals+0x82>
    9d78:	ba 05 00 00 00       	mov    edx,0x5
    9d7d:	31 ff                	xor    edi,edi
    9d7f:	e8 dc 78 ff ff       	call   1660 <dcgettext@plt>
    9d84:	48 8d 15 ec 1a 00 00 	lea    rdx,[rip+0x1aec]        # b877 <quoting_style_vals+0x97>
    9d8b:	48 89 c6             	mov    rsi,rax
    9d8e:	bf 01 00 00 00       	mov    edi,0x1
    9d93:	31 c0                	xor    eax,eax
    9d95:	e8 76 7a ff ff       	call   1810 <__printf_chk@plt>
    9d9a:	48 8d 35 ec 1a 00 00 	lea    rsi,[rip+0x1aec]        # b88d <quoting_style_vals+0xad>
    9da1:	ba 05 00 00 00       	mov    edx,0x5
    9da6:	31 ff                	xor    edi,edi
    9da8:	e8 b3 78 ff ff       	call   1660 <dcgettext@plt>
    9dad:	48 8d 0d 04 10 00 00 	lea    rcx,[rip+0x1004]        # adb8 <_IO_stdin_used+0x738>
    9db4:	48 8d 15 57 09 00 00 	lea    rdx,[rip+0x957]        # a712 <_IO_stdin_used+0x92>
    9dbb:	48 89 c6             	mov    rsi,rax
    9dbe:	bf 01 00 00 00       	mov    edi,0x1
    9dc3:	31 c0                	xor    eax,eax
    9dc5:	e8 46 7a ff ff       	call   1810 <__printf_chk@plt>
    9dca:	48 8b 1d d7 42 20 00 	mov    rbx,QWORD PTR [rip+0x2042d7]        # 20e0a8 <stdout@@GLIBC_2.2.5>
    9dd1:	48 8d 35 e8 1c 00 00 	lea    rsi,[rip+0x1ce8]        # bac0 <quoting_style_vals+0x2e0>
    9dd8:	31 ff                	xor    edi,edi
    9dda:	ba 05 00 00 00       	mov    edx,0x5
    9ddf:	e8 7c 78 ff ff       	call   1660 <dcgettext@plt>
    9de4:	48 89 de             	mov    rsi,rbx
    9de7:	48 89 c7             	mov    rdi,rax
    9dea:	5b                   	pop    rbx
    9deb:	e9 50 79 ff ff       	jmp    1740 <fputs_unlocked@plt>

0000000000009df0 <xmalloc>:
    9df0:	53                   	push   rbx
    9df1:	48 89 fb             	mov    rbx,rdi
    9df4:	e8 97 79 ff ff       	call   1790 <malloc@plt>
    9df9:	48 85 c0             	test   rax,rax
    9dfc:	75 05                	jne    9e03 <xmalloc+0x13>
    9dfe:	48 85 db             	test   rbx,rbx
    9e01:	75 02                	jne    9e05 <xmalloc+0x15>
    9e03:	5b                   	pop    rbx
    9e04:	c3                   	ret    
    9e05:	e8 36 02 00 00       	call   a040 <xalloc_die>
    9e0a:	66 0f 1f 44 00 00    	nop    WORD PTR [rax+rax*1+0x0]

0000000000009e10 <xnmalloc>:
    9e10:	48 89 f8             	mov    rax,rdi
    9e13:	48 f7 e6             	mul    rsi
    9e16:	48 89 c7             	mov    rdi,rax
    9e19:	0f 90 c0             	seto   al
    9e1c:	48 85 ff             	test   rdi,rdi
    9e1f:	78 0a                	js     9e2b <xnmalloc+0x1b>
    9e21:	0f b6 c0             	movzx  eax,al
    9e24:	48 85 c0             	test   rax,rax
    9e27:	75 02                	jne    9e2b <xnmalloc+0x1b>
    9e29:	eb c5                	jmp    9df0 <xmalloc>
    9e2b:	48 83 ec 08          	sub    rsp,0x8
    9e2f:	e8 0c 02 00 00       	call   a040 <xalloc_die>
    9e34:	66 90                	xchg   ax,ax
    9e36:	66 2e 0f 1f 84 00 00 	nop    WORD PTR cs:[rax+rax*1+0x0]
    9e3d:	00 00 00 

0000000000009e40 <xcharalloc>:
    9e40:	eb ae                	jmp    9df0 <xmalloc>
    9e42:	0f 1f 40 00          	nop    DWORD PTR [rax+0x0]
    9e46:	66 2e 0f 1f 84 00 00 	nop    WORD PTR cs:[rax+rax*1+0x0]
    9e4d:	00 00 00 

0000000000009e50 <xrealloc>:
    9e50:	48 85 f6             	test   rsi,rsi
    9e53:	53                   	push   rbx
    9e54:	48 89 f3             	mov    rbx,rsi
    9e57:	75 05                	jne    9e5e <xrealloc+0xe>
    9e59:	48 85 ff             	test   rdi,rdi
    9e5c:	75 1a                	jne    9e78 <xrealloc+0x28>
    9e5e:	48 89 de             	mov    rsi,rbx
    9e61:	e8 7a 79 ff ff       	call   17e0 <realloc@plt>
    9e66:	48 85 c0             	test   rax,rax
    9e69:	75 05                	jne    9e70 <xrealloc+0x20>
    9e6b:	48 85 db             	test   rbx,rbx
    9e6e:	75 11                	jne    9e81 <xrealloc+0x31>
    9e70:	5b                   	pop    rbx
    9e71:	c3                   	ret    
    9e72:	66 0f 1f 44 00 00    	nop    WORD PTR [rax+rax*1+0x0]
    9e78:	e8 33 77 ff ff       	call   15b0 <free@plt>
    9e7d:	31 c0                	xor    eax,eax
    9e7f:	5b                   	pop    rbx
    9e80:	c3                   	ret    
    9e81:	e8 ba 01 00 00       	call   a040 <xalloc_die>
    9e86:	66 2e 0f 1f 84 00 00 	nop    WORD PTR cs:[rax+rax*1+0x0]
    9e8d:	00 00 00 

0000000000009e90 <xnrealloc>:
    9e90:	48 89 f0             	mov    rax,rsi
    9e93:	48 f7 e2             	mul    rdx
    9e96:	48 89 c6             	mov    rsi,rax
    9e99:	0f 90 c0             	seto   al
    9e9c:	48 85 f6             	test   rsi,rsi
    9e9f:	78 0a                	js     9eab <xnrealloc+0x1b>
    9ea1:	0f b6 c0             	movzx  eax,al
    9ea4:	48 85 c0             	test   rax,rax
    9ea7:	75 02                	jne    9eab <xnrealloc+0x1b>
    9ea9:	eb a5                	jmp    9e50 <xrealloc>
    9eab:	48 83 ec 08          	sub    rsp,0x8
    9eaf:	e8 8c 01 00 00       	call   a040 <xalloc_die>
    9eb4:	66 90                	xchg   ax,ax
    9eb6:	66 2e 0f 1f 84 00 00 	nop    WORD PTR cs:[rax+rax*1+0x0]
    9ebd:	00 00 00 

0000000000009ec0 <x2nrealloc>:
    9ec0:	48 85 ff             	test   rdi,rdi
    9ec3:	49 89 d1             	mov    r9,rdx
    9ec6:	48 8b 0e             	mov    rcx,QWORD PTR [rsi]
    9ec9:	74 35                	je     9f00 <x2nrealloc+0x40>
    9ecb:	31 d2                	xor    edx,edx
    9ecd:	48 b8 54 55 55 55 55 	movabs rax,0x5555555555555554
    9ed4:	55 55 55 
    9ed7:	49 f7 f1             	div    r9
    9eda:	48 39 c8             	cmp    rax,rcx
    9edd:	76 3c                	jbe    9f1b <x2nrealloc+0x5b>
    9edf:	48 89 c8             	mov    rax,rcx
    9ee2:	48 d1 e8             	shr    rax,1
    9ee5:	48 8d 4c 08 01       	lea    rcx,[rax+rcx*1+0x1]
    9eea:	48 89 0e             	mov    QWORD PTR [rsi],rcx
    9eed:	49 0f af c9          	imul   rcx,r9
    9ef1:	48 89 ce             	mov    rsi,rcx
    9ef4:	e9 57 ff ff ff       	jmp    9e50 <xrealloc>
    9ef9:	0f 1f 80 00 00 00 00 	nop    DWORD PTR [rax+0x0]
    9f00:	48 85 c9             	test   rcx,rcx
    9f03:	74 23                	je     9f28 <x2nrealloc+0x68>
    9f05:	48 89 c8             	mov    rax,rcx
    9f08:	49 f7 e1             	mul    r9
    9f0b:	0f 90 c2             	seto   dl
    9f0e:	48 85 c0             	test   rax,rax
    9f11:	0f b6 d2             	movzx  edx,dl
    9f14:	78 05                	js     9f1b <x2nrealloc+0x5b>
    9f16:	48 85 d2             	test   rdx,rdx
    9f19:	74 cf                	je     9eea <x2nrealloc+0x2a>
    9f1b:	48 83 ec 08          	sub    rsp,0x8
    9f1f:	e8 1c 01 00 00       	call   a040 <xalloc_die>
    9f24:	0f 1f 40 00          	nop    DWORD PTR [rax+0x0]
    9f28:	31 d2                	xor    edx,edx
    9f2a:	b8 80 00 00 00       	mov    eax,0x80
    9f2f:	45 31 c0             	xor    r8d,r8d
    9f32:	49 f7 f1             	div    r9
    9f35:	48 85 c0             	test   rax,rax
    9f38:	41 0f 94 c0          	sete   r8b
    9f3c:	49 8d 0c 00          	lea    rcx,[r8+rax*1]
    9f40:	eb c3                	jmp    9f05 <x2nrealloc+0x45>
    9f42:	0f 1f 40 00          	nop    DWORD PTR [rax+0x0]
    9f46:	66 2e 0f 1f 84 00 00 	nop    WORD PTR cs:[rax+rax*1+0x0]
    9f4d:	00 00 00 

0000000000009f50 <x2realloc>:
    9f50:	48 85 ff             	test   rdi,rdi
    9f53:	48 8b 06             	mov    rax,QWORD PTR [rsi]
    9f56:	74 28                	je     9f80 <x2realloc+0x30>
    9f58:	48 ba 53 55 55 55 55 	movabs rdx,0x5555555555555553
    9f5f:	55 55 55 
    9f62:	48 39 d0             	cmp    rax,rdx
    9f65:	77 2a                	ja     9f91 <x2realloc+0x41>
    9f67:	48 89 c2             	mov    rdx,rax
    9f6a:	48 d1 ea             	shr    rdx,1
    9f6d:	48 8d 44 02 01       	lea    rax,[rdx+rax*1+0x1]
    9f72:	48 89 06             	mov    QWORD PTR [rsi],rax
    9f75:	48 89 c6             	mov    rsi,rax
    9f78:	e9 d3 fe ff ff       	jmp    9e50 <xrealloc>
    9f7d:	0f 1f 00             	nop    DWORD PTR [rax]
    9f80:	48 85 c0             	test   rax,rax
    9f83:	ba 80 00 00 00       	mov    edx,0x80
    9f88:	48 0f 44 c2          	cmove  rax,rdx
    9f8c:	48 85 c0             	test   rax,rax
    9f8f:	79 e1                	jns    9f72 <x2realloc+0x22>
    9f91:	48 83 ec 08          	sub    rsp,0x8
    9f95:	e8 a6 00 00 00       	call   a040 <xalloc_die>
    9f9a:	66 0f 1f 44 00 00    	nop    WORD PTR [rax+rax*1+0x0]

0000000000009fa0 <xzalloc>:
    9fa0:	53                   	push   rbx
    9fa1:	48 89 fb             	mov    rbx,rdi
    9fa4:	e8 47 fe ff ff       	call   9df0 <xmalloc>
    9fa9:	48 89 da             	mov    rdx,rbx
    9fac:	31 f6                	xor    esi,esi
    9fae:	48 89 c7             	mov    rdi,rax
    9fb1:	5b                   	pop    rbx
    9fb2:	e9 49 77 ff ff       	jmp    1700 <memset@plt>
    9fb7:	66 0f 1f 84 00 00 00 	nop    WORD PTR [rax+rax*1+0x0]
    9fbe:	00 00 

0000000000009fc0 <xcalloc>:
    9fc0:	48 89 f8             	mov    rax,rdi
    9fc3:	48 83 ec 08          	sub    rsp,0x8
    9fc7:	48 f7 e6             	mul    rsi
    9fca:	0f 90 c2             	seto   dl
    9fcd:	48 85 c0             	test   rax,rax
    9fd0:	78 17                	js     9fe9 <xcalloc+0x29>
    9fd2:	0f b6 d2             	movzx  edx,dl
    9fd5:	48 85 d2             	test   rdx,rdx
    9fd8:	75 0f                	jne    9fe9 <xcalloc+0x29>
    9fda:	e8 71 77 ff ff       	call   1750 <calloc@plt>
    9fdf:	48 85 c0             	test   rax,rax
    9fe2:	74 05                	je     9fe9 <xcalloc+0x29>
    9fe4:	48 83 c4 08          	add    rsp,0x8
    9fe8:	c3                   	ret    
    9fe9:	e8 52 00 00 00       	call   a040 <xalloc_die>
    9fee:	66 90                	xchg   ax,ax

0000000000009ff0 <xmemdup>:
    9ff0:	55                   	push   rbp
    9ff1:	53                   	push   rbx
    9ff2:	48 89 fd             	mov    rbp,rdi
    9ff5:	48 89 f7             	mov    rdi,rsi
    9ff8:	48 89 f3             	mov    rbx,rsi
    9ffb:	48 83 ec 08          	sub    rsp,0x8
    9fff:	e8 ec fd ff ff       	call   9df0 <xmalloc>
    a004:	48 83 c4 08          	add    rsp,0x8
    a008:	48 89 da             	mov    rdx,rbx
    a00b:	48 89 ee             	mov    rsi,rbp
    a00e:	5b                   	pop    rbx
    a00f:	5d                   	pop    rbp
    a010:	48 89 c7             	mov    rdi,rax
    a013:	e9 58 77 ff ff       	jmp    1770 <memcpy@plt>
    a018:	0f 1f 84 00 00 00 00 	nop    DWORD PTR [rax+rax*1+0x0]
    a01f:	00 

000000000000a020 <xstrdup>:
    a020:	53                   	push   rbx
    a021:	48 89 fb             	mov    rbx,rdi
    a024:	e8 57 76 ff ff       	call   1680 <strlen@plt>
    a029:	48 89 df             	mov    rdi,rbx
    a02c:	48 8d 70 01          	lea    rsi,[rax+0x1]
    a030:	5b                   	pop    rbx
    a031:	eb bd                	jmp    9ff0 <xmemdup>
    a033:	66 2e 0f 1f 84 00 00 	nop    WORD PTR cs:[rax+rax*1+0x0]
    a03a:	00 00 00 
    a03d:	0f 1f 00             	nop    DWORD PTR [rax]

000000000000a040 <xalloc_die>:
    a040:	48 8d 35 28 1b 00 00 	lea    rsi,[rip+0x1b28]        # bb6f <version_etc_copyright+0x2f>
    a047:	48 83 ec 08          	sub    rsp,0x8
    a04b:	ba 05 00 00 00       	mov    edx,0x5
    a050:	31 ff                	xor    edi,edi
    a052:	e8 09 76 ff ff       	call   1660 <dcgettext@plt>
    a057:	8b 3d c3 3f 20 00    	mov    edi,DWORD PTR [rip+0x203fc3]        # 20e020 <exit_failure>
    a05d:	48 8d 15 f1 11 00 00 	lea    rdx,[rip+0x11f1]        # b255 <bin2hex.7156+0x25>
    a064:	48 89 c1             	mov    rcx,rax
    a067:	31 f6                	xor    esi,esi
    a069:	31 c0                	xor    eax,eax
    a06b:	e8 c0 77 ff ff       	call   1830 <error@plt>
    a070:	e8 4b 75 ff ff       	call   15c0 <abort@plt>
    a075:	66 2e 0f 1f 84 00 00 	nop    WORD PTR cs:[rax+rax*1+0x0]
    a07c:	00 00 00 
    a07f:	90                   	nop

000000000000a080 <rpl_fclose>:
    a080:	41 54                	push   r12
    a082:	55                   	push   rbp
    a083:	53                   	push   rbx
    a084:	48 89 fb             	mov    rbx,rdi
    a087:	e8 f4 76 ff ff       	call   1780 <fileno@plt>
    a08c:	85 c0                	test   eax,eax
    a08e:	48 89 df             	mov    rdi,rbx
    a091:	78 54                	js     a0e7 <rpl_fclose+0x67>
    a093:	e8 28 77 ff ff       	call   17c0 <__freading@plt>
    a098:	85 c0                	test   eax,eax
    a09a:	75 2c                	jne    a0c8 <rpl_fclose+0x48>
    a09c:	48 89 df             	mov    rdi,rbx
    a09f:	e8 dc 02 00 00       	call   a380 <rpl_fflush>
    a0a4:	85 c0                	test   eax,eax
    a0a6:	74 3c                	je     a0e4 <rpl_fclose+0x64>
    a0a8:	e8 23 75 ff ff       	call   15d0 <__errno_location@plt>
    a0ad:	44 8b 20             	mov    r12d,DWORD PTR [rax]
    a0b0:	48 89 df             	mov    rdi,rbx
    a0b3:	48 89 c5             	mov    rbp,rax
    a0b6:	e8 85 75 ff ff       	call   1640 <fclose@plt>
    a0bb:	45 85 e4             	test   r12d,r12d
    a0be:	75 30                	jne    a0f0 <rpl_fclose+0x70>
    a0c0:	5b                   	pop    rbx
    a0c1:	5d                   	pop    rbp
    a0c2:	41 5c                	pop    r12
    a0c4:	c3                   	ret    
    a0c5:	0f 1f 00             	nop    DWORD PTR [rax]
    a0c8:	48 89 df             	mov    rdi,rbx
    a0cb:	e8 b0 76 ff ff       	call   1780 <fileno@plt>
    a0d0:	31 f6                	xor    esi,esi
    a0d2:	ba 01 00 00 00       	mov    edx,0x1
    a0d7:	89 c7                	mov    edi,eax
    a0d9:	e8 12 76 ff ff       	call   16f0 <lseek@plt>
    a0de:	48 83 f8 ff          	cmp    rax,0xffffffffffffffff
    a0e2:	75 b8                	jne    a09c <rpl_fclose+0x1c>
    a0e4:	48 89 df             	mov    rdi,rbx
    a0e7:	5b                   	pop    rbx
    a0e8:	5d                   	pop    rbp
    a0e9:	41 5c                	pop    r12
    a0eb:	e9 50 75 ff ff       	jmp    1640 <fclose@plt>
    a0f0:	44 89 65 00          	mov    DWORD PTR [rbp+0x0],r12d
    a0f4:	b8 ff ff ff ff       	mov    eax,0xffffffff
    a0f9:	eb c5                	jmp    a0c0 <rpl_fclose+0x40>
    a0fb:	0f 1f 44 00 00       	nop    DWORD PTR [rax+rax*1+0x0]

000000000000a100 <rpl_fcntl>:
    a100:	41 54                	push   r12
    a102:	55                   	push   rbp
    a103:	89 fd                	mov    ebp,edi
    a105:	53                   	push   rbx
    a106:	48 83 ec 50          	sub    rsp,0x50
    a10a:	64 48 8b 04 25 28 00 	mov    rax,QWORD PTR fs:0x28
    a111:	00 00 
    a113:	48 89 44 24 18       	mov    QWORD PTR [rsp+0x18],rax
    a118:	31 c0                	xor    eax,eax
    a11a:	48 8d 44 24 70       	lea    rax,[rsp+0x70]
    a11f:	85 f6                	test   esi,esi
    a121:	48 89 54 24 30       	mov    QWORD PTR [rsp+0x30],rdx
    a126:	48 89 4c 24 38       	mov    QWORD PTR [rsp+0x38],rcx
    a12b:	4c 89 44 24 40       	mov    QWORD PTR [rsp+0x40],r8
    a130:	48 89 44 24 08       	mov    QWORD PTR [rsp+0x8],rax
    a135:	48 8d 44 24 20       	lea    rax,[rsp+0x20]
    a13a:	4c 89 4c 24 48       	mov    QWORD PTR [rsp+0x48],r9
    a13f:	c7 04 24 10 00 00 00 	mov    DWORD PTR [rsp],0x10
    a146:	48 89 44 24 10       	mov    QWORD PTR [rsp+0x10],rax
    a14b:	0f 84 01 02 00 00    	je     a352 <rpl_fcntl+0x252>
    a151:	81 fe 06 04 00 00    	cmp    esi,0x406
    a157:	75 47                	jne    a1a0 <rpl_fcntl+0xa0>
    a159:	48 8b 44 24 10       	mov    rax,QWORD PTR [rsp+0x10]
    a15e:	83 3d 13 41 20 00 00 	cmp    DWORD PTR [rip+0x204113],0x0        # 20e278 <have_dupfd_cloexec.3326>
    a165:	c7 04 24 18 00 00 00 	mov    DWORD PTR [rsp],0x18
    a16c:	44 8b 60 10          	mov    r12d,DWORD PTR [rax+0x10]
    a170:	44 89 e2             	mov    edx,r12d
    a173:	0f 88 2a 01 00 00    	js     a2a3 <rpl_fcntl+0x1a3>
    a179:	31 c0                	xor    eax,eax
    a17b:	be 06 04 00 00       	mov    esi,0x406
    a180:	e8 8b 74 ff ff       	call   1610 <fcntl@plt>
    a185:	85 c0                	test   eax,eax
    a187:	89 c3                	mov    ebx,eax
    a189:	0f 88 89 01 00 00    	js     a318 <rpl_fcntl+0x218>
    a18f:	c7 05 df 40 20 00 01 	mov    DWORD PTR [rip+0x2040df],0x1        # 20e278 <have_dupfd_cloexec.3326>
    a196:	00 00 00 
    a199:	eb 45                	jmp    a1e0 <rpl_fcntl+0xe0>
    a19b:	0f 1f 44 00 00       	nop    DWORD PTR [rax+rax*1+0x0]
    a1a0:	83 fe 0b             	cmp    esi,0xb
    a1a3:	74 2b                	je     a1d0 <rpl_fcntl+0xd0>
    a1a5:	7f 59                	jg     a200 <rpl_fcntl+0x100>
    a1a7:	83 fe 04             	cmp    esi,0x4
    a1aa:	0f 84 d0 00 00 00    	je     a280 <rpl_fcntl+0x180>
    a1b0:	0f 8f ba 00 00 00    	jg     a270 <rpl_fcntl+0x170>
    a1b6:	83 fe 02             	cmp    esi,0x2
    a1b9:	0f 84 c1 00 00 00    	je     a280 <rpl_fcntl+0x180>
    a1bf:	7f 0f                	jg     a1d0 <rpl_fcntl+0xd0>
    a1c1:	83 fe 01             	cmp    esi,0x1
    a1c4:	75 62                	jne    a228 <rpl_fcntl+0x128>
    a1c6:	66 2e 0f 1f 84 00 00 	nop    WORD PTR cs:[rax+rax*1+0x0]
    a1cd:	00 00 00 
    a1d0:	89 ef                	mov    edi,ebp
    a1d2:	31 c0                	xor    eax,eax
    a1d4:	e8 37 74 ff ff       	call   1610 <fcntl@plt>
    a1d9:	89 c3                	mov    ebx,eax
    a1db:	0f 1f 44 00 00       	nop    DWORD PTR [rax+rax*1+0x0]
    a1e0:	48 8b 4c 24 18       	mov    rcx,QWORD PTR [rsp+0x18]
    a1e5:	64 48 33 0c 25 28 00 	xor    rcx,QWORD PTR fs:0x28
    a1ec:	00 00 
    a1ee:	89 d8                	mov    eax,ebx
    a1f0:	0f 85 57 01 00 00    	jne    a34d <rpl_fcntl+0x24d>
    a1f6:	48 83 c4 50          	add    rsp,0x50
    a1fa:	5b                   	pop    rbx
    a1fb:	5d                   	pop    rbp
    a1fc:	41 5c                	pop    r12
    a1fe:	c3                   	ret    
    a1ff:	90                   	nop
    a200:	81 fe 07 04 00 00    	cmp    esi,0x407
    a206:	7f 48                	jg     a250 <rpl_fcntl+0x150>
    a208:	81 fe 06 04 00 00    	cmp    esi,0x406
    a20e:	7d 70                	jge    a280 <rpl_fcntl+0x180>
    a210:	81 fe 01 04 00 00    	cmp    esi,0x401
    a216:	74 b8                	je     a1d0 <rpl_fcntl+0xd0>
    a218:	81 fe 02 04 00 00    	cmp    esi,0x402
    a21e:	74 60                	je     a280 <rpl_fcntl+0x180>
    a220:	81 fe 00 04 00 00    	cmp    esi,0x400
    a226:	74 58                	je     a280 <rpl_fcntl+0x180>
    a228:	8b 04 24             	mov    eax,DWORD PTR [rsp]
    a22b:	83 f8 2f             	cmp    eax,0x2f
    a22e:	0f 87 36 01 00 00    	ja     a36a <rpl_fcntl+0x26a>
    a234:	48 03 44 24 10       	add    rax,QWORD PTR [rsp+0x10]
    a239:	48 8b 10             	mov    rdx,QWORD PTR [rax]
    a23c:	89 ef                	mov    edi,ebp
    a23e:	31 c0                	xor    eax,eax
    a240:	e8 cb 73 ff ff       	call   1610 <fcntl@plt>
    a245:	89 c3                	mov    ebx,eax
    a247:	eb 97                	jmp    a1e0 <rpl_fcntl+0xe0>
    a249:	0f 1f 80 00 00 00 00 	nop    DWORD PTR [rax+0x0]
    a250:	81 fe 09 04 00 00    	cmp    esi,0x409
    a256:	74 28                	je     a280 <rpl_fcntl+0x180>
    a258:	0f 8c 72 ff ff ff    	jl     a1d0 <rpl_fcntl+0xd0>
    a25e:	81 fe 0a 04 00 00    	cmp    esi,0x40a
    a264:	75 c2                	jne    a228 <rpl_fcntl+0x128>
    a266:	e9 65 ff ff ff       	jmp    a1d0 <rpl_fcntl+0xd0>
    a26b:	0f 1f 44 00 00       	nop    DWORD PTR [rax+rax*1+0x0]
    a270:	83 fe 09             	cmp    esi,0x9
    a273:	0f 84 57 ff ff ff    	je     a1d0 <rpl_fcntl+0xd0>
    a279:	7f 05                	jg     a280 <rpl_fcntl+0x180>
    a27b:	83 fe 08             	cmp    esi,0x8
    a27e:	75 a8                	jne    a228 <rpl_fcntl+0x128>
    a280:	8b 04 24             	mov    eax,DWORD PTR [rsp]
    a283:	83 f8 2f             	cmp    eax,0x2f
    a286:	0f 87 e8 00 00 00    	ja     a374 <rpl_fcntl+0x274>
    a28c:	48 03 44 24 10       	add    rax,QWORD PTR [rsp+0x10]
    a291:	8b 10                	mov    edx,DWORD PTR [rax]
    a293:	89 ef                	mov    edi,ebp
    a295:	31 c0                	xor    eax,eax
    a297:	e8 74 73 ff ff       	call   1610 <fcntl@plt>
    a29c:	89 c3                	mov    ebx,eax
    a29e:	e9 3d ff ff ff       	jmp    a1e0 <rpl_fcntl+0xe0>
    a2a3:	31 f6                	xor    esi,esi
    a2a5:	31 c0                	xor    eax,eax
    a2a7:	e8 64 73 ff ff       	call   1610 <fcntl@plt>
    a2ac:	85 c0                	test   eax,eax
    a2ae:	89 c3                	mov    ebx,eax
    a2b0:	0f 88 2a ff ff ff    	js     a1e0 <rpl_fcntl+0xe0>
    a2b6:	83 3d bb 3f 20 00 ff 	cmp    DWORD PTR [rip+0x203fbb],0xffffffff        # 20e278 <have_dupfd_cloexec.3326>
    a2bd:	0f 85 1d ff ff ff    	jne    a1e0 <rpl_fcntl+0xe0>
    a2c3:	31 c0                	xor    eax,eax
    a2c5:	be 01 00 00 00       	mov    esi,0x1
    a2ca:	89 df                	mov    edi,ebx
    a2cc:	e8 3f 73 ff ff       	call   1610 <fcntl@plt>
    a2d1:	85 c0                	test   eax,eax
    a2d3:	78 1c                	js     a2f1 <rpl_fcntl+0x1f1>
    a2d5:	83 c8 01             	or     eax,0x1
    a2d8:	be 02 00 00 00       	mov    esi,0x2
    a2dd:	89 df                	mov    edi,ebx
    a2df:	89 c2                	mov    edx,eax
    a2e1:	31 c0                	xor    eax,eax
    a2e3:	e8 28 73 ff ff       	call   1610 <fcntl@plt>
    a2e8:	83 f8 ff             	cmp    eax,0xffffffff
    a2eb:	0f 85 ef fe ff ff    	jne    a1e0 <rpl_fcntl+0xe0>
    a2f1:	e8 da 72 ff ff       	call   15d0 <__errno_location@plt>
    a2f6:	44 8b 20             	mov    r12d,DWORD PTR [rax]
    a2f9:	48 89 c5             	mov    rbp,rax
    a2fc:	89 df                	mov    edi,ebx
    a2fe:	e8 0d 74 ff ff       	call   1710 <close@plt>
    a303:	bb ff ff ff ff       	mov    ebx,0xffffffff
    a308:	44 89 65 00          	mov    DWORD PTR [rbp+0x0],r12d
    a30c:	e9 cf fe ff ff       	jmp    a1e0 <rpl_fcntl+0xe0>
    a311:	0f 1f 80 00 00 00 00 	nop    DWORD PTR [rax+0x0]
    a318:	e8 b3 72 ff ff       	call   15d0 <__errno_location@plt>
    a31d:	83 38 16             	cmp    DWORD PTR [rax],0x16
    a320:	0f 85 69 fe ff ff    	jne    a18f <rpl_fcntl+0x8f>
    a326:	31 f6                	xor    esi,esi
    a328:	31 c0                	xor    eax,eax
    a32a:	44 89 e2             	mov    edx,r12d
    a32d:	89 ef                	mov    edi,ebp
    a32f:	e8 dc 72 ff ff       	call   1610 <fcntl@plt>
    a334:	85 c0                	test   eax,eax
    a336:	89 c3                	mov    ebx,eax
    a338:	0f 88 a2 fe ff ff    	js     a1e0 <rpl_fcntl+0xe0>
    a33e:	c7 05 30 3f 20 00 ff 	mov    DWORD PTR [rip+0x203f30],0xffffffff        # 20e278 <have_dupfd_cloexec.3326>
    a345:	ff ff ff 
    a348:	e9 76 ff ff ff       	jmp    a2c3 <rpl_fcntl+0x1c3>
    a34d:	e8 3e 73 ff ff       	call   1690 <__stack_chk_fail@plt>
    a352:	48 8b 44 24 10       	mov    rax,QWORD PTR [rsp+0x10]
    a357:	31 f6                	xor    esi,esi
    a359:	8b 50 10             	mov    edx,DWORD PTR [rax+0x10]
    a35c:	31 c0                	xor    eax,eax
    a35e:	e8 ad 72 ff ff       	call   1610 <fcntl@plt>
    a363:	89 c3                	mov    ebx,eax
    a365:	e9 76 fe ff ff       	jmp    a1e0 <rpl_fcntl+0xe0>
    a36a:	48 8b 44 24 08       	mov    rax,QWORD PTR [rsp+0x8]
    a36f:	e9 c5 fe ff ff       	jmp    a239 <rpl_fcntl+0x139>
    a374:	48 8b 44 24 08       	mov    rax,QWORD PTR [rsp+0x8]
    a379:	e9 13 ff ff ff       	jmp    a291 <rpl_fcntl+0x191>
    a37e:	66 90                	xchg   ax,ax

000000000000a380 <rpl_fflush>:
    a380:	48 85 ff             	test   rdi,rdi
    a383:	53                   	push   rbx
    a384:	48 89 fb             	mov    rbx,rdi
    a387:	74 11                	je     a39a <rpl_fflush+0x1a>
    a389:	e8 32 74 ff ff       	call   17c0 <__freading@plt>
    a38e:	85 c0                	test   eax,eax
    a390:	74 08                	je     a39a <rpl_fflush+0x1a>
    a392:	f7 03 00 01 00 00    	test   DWORD PTR [rbx],0x100
    a398:	75 0e                	jne    a3a8 <rpl_fflush+0x28>
    a39a:	48 89 df             	mov    rdi,rbx
    a39d:	5b                   	pop    rbx
    a39e:	e9 fd 73 ff ff       	jmp    17a0 <fflush@plt>
    a3a3:	0f 1f 44 00 00       	nop    DWORD PTR [rax+rax*1+0x0]
    a3a8:	48 89 df             	mov    rdi,rbx
    a3ab:	ba 01 00 00 00       	mov    edx,0x1
    a3b0:	31 f6                	xor    esi,esi
    a3b2:	e8 09 00 00 00       	call   a3c0 <rpl_fseeko>
    a3b7:	48 89 df             	mov    rdi,rbx
    a3ba:	5b                   	pop    rbx
    a3bb:	e9 e0 73 ff ff       	jmp    17a0 <fflush@plt>

000000000000a3c0 <rpl_fseeko>:
    a3c0:	48 8b 47 08          	mov    rax,QWORD PTR [rdi+0x8]
    a3c4:	48 39 47 10          	cmp    QWORD PTR [rdi+0x10],rax
    a3c8:	74 06                	je     a3d0 <rpl_fseeko+0x10>
    a3ca:	e9 71 74 ff ff       	jmp    1840 <fseeko@plt>
    a3cf:	90                   	nop
    a3d0:	48 8b 47 20          	mov    rax,QWORD PTR [rdi+0x20]
    a3d4:	48 39 47 28          	cmp    QWORD PTR [rdi+0x28],rax
    a3d8:	75 f0                	jne    a3ca <rpl_fseeko+0xa>
    a3da:	48 83 7f 48 00       	cmp    QWORD PTR [rdi+0x48],0x0
    a3df:	75 e9                	jne    a3ca <rpl_fseeko+0xa>
    a3e1:	41 54                	push   r12
    a3e3:	55                   	push   rbp
    a3e4:	41 89 d4             	mov    r12d,edx
    a3e7:	53                   	push   rbx
    a3e8:	48 89 f5             	mov    rbp,rsi
    a3eb:	48 89 fb             	mov    rbx,rdi
    a3ee:	e8 8d 73 ff ff       	call   1780 <fileno@plt>
    a3f3:	44 89 e2             	mov    edx,r12d
    a3f6:	48 89 ee             	mov    rsi,rbp
    a3f9:	89 c7                	mov    edi,eax
    a3fb:	e8 f0 72 ff ff       	call   16f0 <lseek@plt>
    a400:	48 83 f8 ff          	cmp    rax,0xffffffffffffffff
    a404:	74 0c                	je     a412 <rpl_fseeko+0x52>
    a406:	83 23 ef             	and    DWORD PTR [rbx],0xffffffef
    a409:	48 89 83 90 00 00 00 	mov    QWORD PTR [rbx+0x90],rax
    a410:	31 c0                	xor    eax,eax
    a412:	5b                   	pop    rbx
    a413:	5d                   	pop    rbp
    a414:	41 5c                	pop    r12
    a416:	c3                   	ret    
    a417:	66 0f 1f 84 00 00 00 	nop    WORD PTR [rax+rax*1+0x0]
    a41e:	00 00 

000000000000a420 <rpl_mbrtowc>:
    a420:	41 55                	push   r13
    a422:	41 54                	push   r12
    a424:	49 89 f5             	mov    r13,rsi
    a427:	55                   	push   rbp
    a428:	53                   	push   rbx
    a429:	48 89 fb             	mov    rbx,rdi
    a42c:	49 89 d4             	mov    r12,rdx
    a42f:	48 83 ec 18          	sub    rsp,0x18
    a433:	64 48 8b 04 25 28 00 	mov    rax,QWORD PTR fs:0x28
    a43a:	00 00 
    a43c:	48 89 44 24 08       	mov    QWORD PTR [rsp+0x8],rax
    a441:	31 c0                	xor    eax,eax
    a443:	48 8d 44 24 04       	lea    rax,[rsp+0x4]
    a448:	48 85 ff             	test   rdi,rdi
    a44b:	48 0f 44 d8          	cmove  rbx,rax
    a44f:	48 89 df             	mov    rdi,rbx
    a452:	e8 59 72 ff ff       	call   16b0 <mbrtowc@plt>
    a457:	48 83 f8 fd          	cmp    rax,0xfffffffffffffffd
    a45b:	48 89 c5             	mov    rbp,rax
    a45e:	76 20                	jbe    a480 <rpl_mbrtowc+0x60>
    a460:	4d 85 e4             	test   r12,r12
    a463:	74 1b                	je     a480 <rpl_mbrtowc+0x60>
    a465:	31 ff                	xor    edi,edi
    a467:	e8 c4 00 00 00       	call   a530 <hard_locale>
    a46c:	84 c0                	test   al,al
    a46e:	75 10                	jne    a480 <rpl_mbrtowc+0x60>
    a470:	41 0f b6 45 00       	movzx  eax,BYTE PTR [r13+0x0]
    a475:	bd 01 00 00 00       	mov    ebp,0x1
    a47a:	89 03                	mov    DWORD PTR [rbx],eax
    a47c:	0f 1f 40 00          	nop    DWORD PTR [rax+0x0]
    a480:	48 8b 54 24 08       	mov    rdx,QWORD PTR [rsp+0x8]
    a485:	64 48 33 14 25 28 00 	xor    rdx,QWORD PTR fs:0x28
    a48c:	00 00 
    a48e:	48 89 e8             	mov    rax,rbp
    a491:	75 0b                	jne    a49e <rpl_mbrtowc+0x7e>
    a493:	48 83 c4 18          	add    rsp,0x18
    a497:	5b                   	pop    rbx
    a498:	5d                   	pop    rbp
    a499:	41 5c                	pop    r12
    a49b:	41 5d                	pop    r13
    a49d:	c3                   	ret    
    a49e:	e8 ed 71 ff ff       	call   1690 <__stack_chk_fail@plt>
    a4a3:	66 2e 0f 1f 84 00 00 	nop    WORD PTR cs:[rax+rax*1+0x0]
    a4aa:	00 00 00 
    a4ad:	0f 1f 00             	nop    DWORD PTR [rax]

000000000000a4b0 <close_stream>:
    a4b0:	41 54                	push   r12
    a4b2:	55                   	push   rbp
    a4b3:	48 89 fd             	mov    rbp,rdi
    a4b6:	53                   	push   rbx
    a4b7:	e8 44 71 ff ff       	call   1600 <__fpending@plt>
    a4bc:	8b 5d 00             	mov    ebx,DWORD PTR [rbp+0x0]
    a4bf:	48 89 ef             	mov    rdi,rbp
    a4c2:	49 89 c4             	mov    r12,rax
    a4c5:	e8 b6 fb ff ff       	call   a080 <rpl_fclose>
    a4ca:	83 e3 20             	and    ebx,0x20
    a4cd:	85 db                	test   ebx,ebx
    a4cf:	75 17                	jne    a4e8 <close_stream+0x38>
    a4d1:	85 c0                	test   eax,eax
    a4d3:	74 0a                	je     a4df <close_stream+0x2f>
    a4d5:	4d 85 e4             	test   r12,r12
    a4d8:	b8 ff ff ff ff       	mov    eax,0xffffffff
    a4dd:	74 39                	je     a518 <close_stream+0x68>
    a4df:	5b                   	pop    rbx
    a4e0:	5d                   	pop    rbp
    a4e1:	41 5c                	pop    r12
    a4e3:	c3                   	ret    
    a4e4:	0f 1f 40 00          	nop    DWORD PTR [rax+0x0]
    a4e8:	85 c0                	test   eax,eax
    a4ea:	75 1c                	jne    a508 <close_stream+0x58>
    a4ec:	e8 df 70 ff ff       	call   15d0 <__errno_location@plt>
    a4f1:	c7 00 00 00 00 00    	mov    DWORD PTR [rax],0x0
    a4f7:	b8 ff ff ff ff       	mov    eax,0xffffffff
    a4fc:	5b                   	pop    rbx
    a4fd:	5d                   	pop    rbp
    a4fe:	41 5c                	pop    r12
    a500:	c3                   	ret    
    a501:	0f 1f 80 00 00 00 00 	nop    DWORD PTR [rax+0x0]
    a508:	5b                   	pop    rbx
    a509:	b8 ff ff ff ff       	mov    eax,0xffffffff
    a50e:	5d                   	pop    rbp
    a50f:	41 5c                	pop    r12
    a511:	c3                   	ret    
    a512:	66 0f 1f 44 00 00    	nop    WORD PTR [rax+rax*1+0x0]
    a518:	e8 b3 70 ff ff       	call   15d0 <__errno_location@plt>
    a51d:	83 38 09             	cmp    DWORD PTR [rax],0x9
    a520:	5b                   	pop    rbx
    a521:	5d                   	pop    rbp
    a522:	41 5c                	pop    r12
    a524:	0f 95 c0             	setne  al
    a527:	0f b6 c0             	movzx  eax,al
    a52a:	f7 d8                	neg    eax
    a52c:	c3                   	ret    
    a52d:	0f 1f 00             	nop    DWORD PTR [rax]

000000000000a530 <hard_locale>:
    a530:	48 83 ec 08          	sub    rsp,0x8
    a534:	31 f6                	xor    esi,esi
    a536:	e8 c5 72 ff ff       	call   1800 <setlocale@plt>
    a53b:	48 89 c2             	mov    rdx,rax
    a53e:	b8 01 00 00 00       	mov    eax,0x1
    a543:	48 85 d2             	test   rdx,rdx
    a546:	74 1d                	je     a565 <hard_locale+0x35>
    a548:	48 8d 3d 31 16 00 00 	lea    rdi,[rip+0x1631]        # bb80 <version_etc_copyright+0x40>
    a54f:	b9 02 00 00 00       	mov    ecx,0x2
    a554:	48 89 d6             	mov    rsi,rdx
    a557:	f3 a6                	repz cmps BYTE PTR ds:[rsi],BYTE PTR es:[rdi]
    a559:	0f 97 c1             	seta   cl
    a55c:	80 d9 00             	sbb    cl,0x0
    a55f:	31 c0                	xor    eax,eax
    a561:	84 c9                	test   cl,cl
    a563:	75 0b                	jne    a570 <hard_locale+0x40>
    a565:	48 83 c4 08          	add    rsp,0x8
    a569:	c3                   	ret    
    a56a:	66 0f 1f 44 00 00    	nop    WORD PTR [rax+rax*1+0x0]
    a570:	48 8d 3d 0b 16 00 00 	lea    rdi,[rip+0x160b]        # bb82 <version_etc_copyright+0x42>
    a577:	b9 06 00 00 00       	mov    ecx,0x6
    a57c:	48 89 d6             	mov    rsi,rdx
    a57f:	f3 a6                	repz cmps BYTE PTR ds:[rsi],BYTE PTR es:[rdi]
    a581:	0f 97 c0             	seta   al
    a584:	1c 00                	sbb    al,0x0
    a586:	84 c0                	test   al,al
    a588:	0f 95 c0             	setne  al
    a58b:	48 83 c4 08          	add    rsp,0x8
    a58f:	c3                   	ret    

000000000000a590 <locale_charset>:
    a590:	48 83 ec 08          	sub    rsp,0x8
    a594:	bf 0e 00 00 00       	mov    edi,0xe
    a599:	e8 12 72 ff ff       	call   17b0 <nl_langinfo@plt>
    a59e:	48 85 c0             	test   rax,rax
    a5a1:	74 1d                	je     a5c0 <locale_charset+0x30>
    a5a3:	80 38 00             	cmp    BYTE PTR [rax],0x0
    a5a6:	48 8d 15 db 15 00 00 	lea    rdx,[rip+0x15db]        # bb88 <version_etc_copyright+0x48>
    a5ad:	48 0f 44 c2          	cmove  rax,rdx
    a5b1:	48 83 c4 08          	add    rsp,0x8
    a5b5:	c3                   	ret    
    a5b6:	66 2e 0f 1f 84 00 00 	nop    WORD PTR cs:[rax+rax*1+0x0]
    a5bd:	00 00 00 
    a5c0:	48 8d 05 c1 15 00 00 	lea    rax,[rip+0x15c1]        # bb88 <version_etc_copyright+0x48>
    a5c7:	48 83 c4 08          	add    rsp,0x8
    a5cb:	c3                   	ret    
    a5cc:	0f 1f 40 00          	nop    DWORD PTR [rax+0x0]

000000000000a5d0 <__libc_csu_init>:
    a5d0:	41 57                	push   r15
    a5d2:	41 56                	push   r14
    a5d4:	49 89 d7             	mov    r15,rdx
    a5d7:	41 55                	push   r13
    a5d9:	41 54                	push   r12
    a5db:	4c 8d 25 2e 34 20 00 	lea    r12,[rip+0x20342e]        # 20da10 <__frame_dummy_init_array_entry>
    a5e2:	55                   	push   rbp
    a5e3:	48 8d 2d 2e 34 20 00 	lea    rbp,[rip+0x20342e]        # 20da18 <__init_array_end>
    a5ea:	53                   	push   rbx
    a5eb:	41 89 fd             	mov    r13d,edi
    a5ee:	49 89 f6             	mov    r14,rsi
    a5f1:	4c 29 e5             	sub    rbp,r12
    a5f4:	48 83 ec 08          	sub    rsp,0x8
    a5f8:	48 c1 fd 03          	sar    rbp,0x3
    a5fc:	e8 7f 6f ff ff       	call   1580 <_init>
    a601:	48 85 ed             	test   rbp,rbp
    a604:	74 20                	je     a626 <__libc_csu_init+0x56>
    a606:	31 db                	xor    ebx,ebx
    a608:	0f 1f 84 00 00 00 00 	nop    DWORD PTR [rax+rax*1+0x0]
    a60f:	00 
    a610:	4c 89 fa             	mov    rdx,r15
    a613:	4c 89 f6             	mov    rsi,r14
    a616:	44 89 ef             	mov    edi,r13d
    a619:	41 ff 14 dc          	call   QWORD PTR [r12+rbx*8]
    a61d:	48 83 c3 01          	add    rbx,0x1
    a621:	48 39 dd             	cmp    rbp,rbx
    a624:	75 ea                	jne    a610 <__libc_csu_init+0x40>
    a626:	48 83 c4 08          	add    rsp,0x8
    a62a:	5b                   	pop    rbx
    a62b:	5d                   	pop    rbp
    a62c:	41 5c                	pop    r12
    a62e:	41 5d                	pop    r13
    a630:	41 5e                	pop    r14
    a632:	41 5f                	pop    r15
    a634:	c3                   	ret    
    a635:	90                   	nop
    a636:	66 2e 0f 1f 84 00 00 	nop    WORD PTR cs:[rax+rax*1+0x0]
    a63d:	00 00 00 

000000000000a640 <__libc_csu_fini>:
    a640:	f3 c3                	repz ret 
    a642:	66 2e 0f 1f 84 00 00 	nop    WORD PTR cs:[rax+rax*1+0x0]
    a649:	00 00 00 
    a64c:	0f 1f 40 00          	nop    DWORD PTR [rax+0x0]

000000000000a650 <atexit>:
    a650:	48 8b 15 b1 39 20 00 	mov    rdx,QWORD PTR [rip+0x2039b1]        # 20e008 <__dso_handle>
    a657:	31 f6                	xor    esi,esi
    a659:	e9 12 72 ff ff       	jmp    1870 <__cxa_atexit@plt>

Disassembly of section .fini:

000000000000a660 <_fini>:
    a660:	48 83 ec 08          	sub    rsp,0x8
    a664:	48 83 c4 08          	add    rsp,0x8
    a668:	c3                   	ret    
