
/home/cindy/Documents/Projects/benchmark/coreutils-build/src/sha512sum:     file format elf64-x86-64


Disassembly of section .init:

0000000000001580 <_init>:
    1580:	48 83 ec 08          	sub    rsp,0x8
    1584:	48 8b 05 45 ca 20 00 	mov    rax,QWORD PTR [rip+0x20ca45]        # 20dfd0 <__gmon_start__>
    158b:	48 85 c0             	test   rax,rax
    158e:	74 02                	je     1592 <_init+0x12>
    1590:	ff d0                	call   rax
    1592:	48 83 c4 08          	add    rsp,0x8
    1596:	c3                   	ret    

Disassembly of section .plt:

00000000000015a0 <.plt>:
    15a0:	ff 35 6a c8 20 00    	push   QWORD PTR [rip+0x20c86a]        # 20de10 <_GLOBAL_OFFSET_TABLE_+0x8>
    15a6:	ff 25 6c c8 20 00    	jmp    QWORD PTR [rip+0x20c86c]        # 20de18 <_GLOBAL_OFFSET_TABLE_+0x10>
    15ac:	0f 1f 40 00          	nop    DWORD PTR [rax+0x0]

00000000000015b0 <free@plt>:
    15b0:	ff 25 6a c8 20 00    	jmp    QWORD PTR [rip+0x20c86a]        # 20de20 <free@GLIBC_2.2.5>
    15b6:	68 00 00 00 00       	push   0x0
    15bb:	e9 e0 ff ff ff       	jmp    15a0 <.plt>

00000000000015c0 <abort@plt>:
    15c0:	ff 25 62 c8 20 00    	jmp    QWORD PTR [rip+0x20c862]        # 20de28 <abort@GLIBC_2.2.5>
    15c6:	68 01 00 00 00       	push   0x1
    15cb:	e9 d0 ff ff ff       	jmp    15a0 <.plt>

00000000000015d0 <__errno_location@plt>:
    15d0:	ff 25 5a c8 20 00    	jmp    QWORD PTR [rip+0x20c85a]        # 20de30 <__errno_location@GLIBC_2.2.5>
    15d6:	68 02 00 00 00       	push   0x2
    15db:	e9 c0 ff ff ff       	jmp    15a0 <.plt>

00000000000015e0 <strncmp@plt>:
    15e0:	ff 25 52 c8 20 00    	jmp    QWORD PTR [rip+0x20c852]        # 20de38 <strncmp@GLIBC_2.2.5>
    15e6:	68 03 00 00 00       	push   0x3
    15eb:	e9 b0 ff ff ff       	jmp    15a0 <.plt>

00000000000015f0 <_exit@plt>:
    15f0:	ff 25 4a c8 20 00    	jmp    QWORD PTR [rip+0x20c84a]        # 20de40 <_exit@GLIBC_2.2.5>
    15f6:	68 04 00 00 00       	push   0x4
    15fb:	e9 a0 ff ff ff       	jmp    15a0 <.plt>

0000000000001600 <__fpending@plt>:
    1600:	ff 25 42 c8 20 00    	jmp    QWORD PTR [rip+0x20c842]        # 20de48 <__fpending@GLIBC_2.2.5>
    1606:	68 05 00 00 00       	push   0x5
    160b:	e9 90 ff ff ff       	jmp    15a0 <.plt>

0000000000001610 <fcntl@plt>:
    1610:	ff 25 3a c8 20 00    	jmp    QWORD PTR [rip+0x20c83a]        # 20de50 <fcntl@GLIBC_2.2.5>
    1616:	68 06 00 00 00       	push   0x6
    161b:	e9 80 ff ff ff       	jmp    15a0 <.plt>

0000000000001620 <fread_unlocked@plt>:
    1620:	ff 25 32 c8 20 00    	jmp    QWORD PTR [rip+0x20c832]        # 20de58 <fread_unlocked@GLIBC_2.2.5>
    1626:	68 07 00 00 00       	push   0x7
    162b:	e9 70 ff ff ff       	jmp    15a0 <.plt>

0000000000001630 <textdomain@plt>:
    1630:	ff 25 2a c8 20 00    	jmp    QWORD PTR [rip+0x20c82a]        # 20de60 <textdomain@GLIBC_2.2.5>
    1636:	68 08 00 00 00       	push   0x8
    163b:	e9 60 ff ff ff       	jmp    15a0 <.plt>

0000000000001640 <fclose@plt>:
    1640:	ff 25 22 c8 20 00    	jmp    QWORD PTR [rip+0x20c822]        # 20de68 <fclose@GLIBC_2.2.5>
    1646:	68 09 00 00 00       	push   0x9
    164b:	e9 50 ff ff ff       	jmp    15a0 <.plt>

0000000000001650 <bindtextdomain@plt>:
    1650:	ff 25 1a c8 20 00    	jmp    QWORD PTR [rip+0x20c81a]        # 20de70 <bindtextdomain@GLIBC_2.2.5>
    1656:	68 0a 00 00 00       	push   0xa
    165b:	e9 40 ff ff ff       	jmp    15a0 <.plt>

0000000000001660 <dcgettext@plt>:
    1660:	ff 25 12 c8 20 00    	jmp    QWORD PTR [rip+0x20c812]        # 20de78 <dcgettext@GLIBC_2.2.5>
    1666:	68 0b 00 00 00       	push   0xb
    166b:	e9 30 ff ff ff       	jmp    15a0 <.plt>

0000000000001670 <__ctype_get_mb_cur_max@plt>:
    1670:	ff 25 0a c8 20 00    	jmp    QWORD PTR [rip+0x20c80a]        # 20de80 <__ctype_get_mb_cur_max@GLIBC_2.2.5>
    1676:	68 0c 00 00 00       	push   0xc
    167b:	e9 20 ff ff ff       	jmp    15a0 <.plt>

0000000000001680 <strlen@plt>:
    1680:	ff 25 02 c8 20 00    	jmp    QWORD PTR [rip+0x20c802]        # 20de88 <strlen@GLIBC_2.2.5>
    1686:	68 0d 00 00 00       	push   0xd
    168b:	e9 10 ff ff ff       	jmp    15a0 <.plt>

0000000000001690 <__stack_chk_fail@plt>:
    1690:	ff 25 fa c7 20 00    	jmp    QWORD PTR [rip+0x20c7fa]        # 20de90 <__stack_chk_fail@GLIBC_2.4>
    1696:	68 0e 00 00 00       	push   0xe
    169b:	e9 00 ff ff ff       	jmp    15a0 <.plt>

00000000000016a0 <getopt_long@plt>:
    16a0:	ff 25 f2 c7 20 00    	jmp    QWORD PTR [rip+0x20c7f2]        # 20de98 <getopt_long@GLIBC_2.2.5>
    16a6:	68 0f 00 00 00       	push   0xf
    16ab:	e9 f0 fe ff ff       	jmp    15a0 <.plt>

00000000000016b0 <mbrtowc@plt>:
    16b0:	ff 25 ea c7 20 00    	jmp    QWORD PTR [rip+0x20c7ea]        # 20dea0 <mbrtowc@GLIBC_2.2.5>
    16b6:	68 10 00 00 00       	push   0x10
    16bb:	e9 e0 fe ff ff       	jmp    15a0 <.plt>

00000000000016c0 <strchr@plt>:
    16c0:	ff 25 e2 c7 20 00    	jmp    QWORD PTR [rip+0x20c7e2]        # 20dea8 <strchr@GLIBC_2.2.5>
    16c6:	68 11 00 00 00       	push   0x11
    16cb:	e9 d0 fe ff ff       	jmp    15a0 <.plt>

00000000000016d0 <__overflow@plt>:
    16d0:	ff 25 da c7 20 00    	jmp    QWORD PTR [rip+0x20c7da]        # 20deb0 <__overflow@GLIBC_2.2.5>
    16d6:	68 12 00 00 00       	push   0x12
    16db:	e9 c0 fe ff ff       	jmp    15a0 <.plt>

00000000000016e0 <strrchr@plt>:
    16e0:	ff 25 d2 c7 20 00    	jmp    QWORD PTR [rip+0x20c7d2]        # 20deb8 <strrchr@GLIBC_2.2.5>
    16e6:	68 13 00 00 00       	push   0x13
    16eb:	e9 b0 fe ff ff       	jmp    15a0 <.plt>

00000000000016f0 <lseek@plt>:
    16f0:	ff 25 ca c7 20 00    	jmp    QWORD PTR [rip+0x20c7ca]        # 20dec0 <lseek@GLIBC_2.2.5>
    16f6:	68 14 00 00 00       	push   0x14
    16fb:	e9 a0 fe ff ff       	jmp    15a0 <.plt>

0000000000001700 <memset@plt>:
    1700:	ff 25 c2 c7 20 00    	jmp    QWORD PTR [rip+0x20c7c2]        # 20dec8 <memset@GLIBC_2.2.5>
    1706:	68 15 00 00 00       	push   0x15
    170b:	e9 90 fe ff ff       	jmp    15a0 <.plt>

0000000000001710 <close@plt>:
    1710:	ff 25 ba c7 20 00    	jmp    QWORD PTR [rip+0x20c7ba]        # 20ded0 <close@GLIBC_2.2.5>
    1716:	68 16 00 00 00       	push   0x16
    171b:	e9 80 fe ff ff       	jmp    15a0 <.plt>

0000000000001720 <posix_fadvise@plt>:
    1720:	ff 25 b2 c7 20 00    	jmp    QWORD PTR [rip+0x20c7b2]        # 20ded8 <posix_fadvise@GLIBC_2.2.5>
    1726:	68 17 00 00 00       	push   0x17
    172b:	e9 70 fe ff ff       	jmp    15a0 <.plt>

0000000000001730 <memcmp@plt>:
    1730:	ff 25 aa c7 20 00    	jmp    QWORD PTR [rip+0x20c7aa]        # 20dee0 <memcmp@GLIBC_2.2.5>
    1736:	68 18 00 00 00       	push   0x18
    173b:	e9 60 fe ff ff       	jmp    15a0 <.plt>

0000000000001740 <fputs_unlocked@plt>:
    1740:	ff 25 a2 c7 20 00    	jmp    QWORD PTR [rip+0x20c7a2]        # 20dee8 <fputs_unlocked@GLIBC_2.2.5>
    1746:	68 19 00 00 00       	push   0x19
    174b:	e9 50 fe ff ff       	jmp    15a0 <.plt>

0000000000001750 <calloc@plt>:
    1750:	ff 25 9a c7 20 00    	jmp    QWORD PTR [rip+0x20c79a]        # 20def0 <calloc@GLIBC_2.2.5>
    1756:	68 1a 00 00 00       	push   0x1a
    175b:	e9 40 fe ff ff       	jmp    15a0 <.plt>

0000000000001760 <__getdelim@plt>:
    1760:	ff 25 92 c7 20 00    	jmp    QWORD PTR [rip+0x20c792]        # 20def8 <__getdelim@GLIBC_2.2.5>
    1766:	68 1b 00 00 00       	push   0x1b
    176b:	e9 30 fe ff ff       	jmp    15a0 <.plt>

0000000000001770 <memcpy@plt>:
    1770:	ff 25 8a c7 20 00    	jmp    QWORD PTR [rip+0x20c78a]        # 20df00 <memcpy@GLIBC_2.14>
    1776:	68 1c 00 00 00       	push   0x1c
    177b:	e9 20 fe ff ff       	jmp    15a0 <.plt>

0000000000001780 <fileno@plt>:
    1780:	ff 25 82 c7 20 00    	jmp    QWORD PTR [rip+0x20c782]        # 20df08 <fileno@GLIBC_2.2.5>
    1786:	68 1d 00 00 00       	push   0x1d
    178b:	e9 10 fe ff ff       	jmp    15a0 <.plt>

0000000000001790 <malloc@plt>:
    1790:	ff 25 7a c7 20 00    	jmp    QWORD PTR [rip+0x20c77a]        # 20df10 <malloc@GLIBC_2.2.5>
    1796:	68 1e 00 00 00       	push   0x1e
    179b:	e9 00 fe ff ff       	jmp    15a0 <.plt>

00000000000017a0 <fflush@plt>:
    17a0:	ff 25 72 c7 20 00    	jmp    QWORD PTR [rip+0x20c772]        # 20df18 <fflush@GLIBC_2.2.5>
    17a6:	68 1f 00 00 00       	push   0x1f
    17ab:	e9 f0 fd ff ff       	jmp    15a0 <.plt>

00000000000017b0 <nl_langinfo@plt>:
    17b0:	ff 25 6a c7 20 00    	jmp    QWORD PTR [rip+0x20c76a]        # 20df20 <nl_langinfo@GLIBC_2.2.5>
    17b6:	68 20 00 00 00       	push   0x20
    17bb:	e9 e0 fd ff ff       	jmp    15a0 <.plt>

00000000000017c0 <__freading@plt>:
    17c0:	ff 25 62 c7 20 00    	jmp    QWORD PTR [rip+0x20c762]        # 20df28 <__freading@GLIBC_2.2.5>
    17c6:	68 21 00 00 00       	push   0x21
    17cb:	e9 d0 fd ff ff       	jmp    15a0 <.plt>

00000000000017d0 <fwrite_unlocked@plt>:
    17d0:	ff 25 5a c7 20 00    	jmp    QWORD PTR [rip+0x20c75a]        # 20df30 <fwrite_unlocked@GLIBC_2.2.5>
    17d6:	68 22 00 00 00       	push   0x22
    17db:	e9 c0 fd ff ff       	jmp    15a0 <.plt>

00000000000017e0 <realloc@plt>:
    17e0:	ff 25 52 c7 20 00    	jmp    QWORD PTR [rip+0x20c752]        # 20df38 <realloc@GLIBC_2.2.5>
    17e6:	68 23 00 00 00       	push   0x23
    17eb:	e9 b0 fd ff ff       	jmp    15a0 <.plt>

00000000000017f0 <fdopen@plt>:
    17f0:	ff 25 4a c7 20 00    	jmp    QWORD PTR [rip+0x20c74a]        # 20df40 <fdopen@GLIBC_2.2.5>
    17f6:	68 24 00 00 00       	push   0x24
    17fb:	e9 a0 fd ff ff       	jmp    15a0 <.plt>

0000000000001800 <setlocale@plt>:
    1800:	ff 25 42 c7 20 00    	jmp    QWORD PTR [rip+0x20c742]        # 20df48 <setlocale@GLIBC_2.2.5>
    1806:	68 25 00 00 00       	push   0x25
    180b:	e9 90 fd ff ff       	jmp    15a0 <.plt>

0000000000001810 <__printf_chk@plt>:
    1810:	ff 25 3a c7 20 00    	jmp    QWORD PTR [rip+0x20c73a]        # 20df50 <__printf_chk@GLIBC_2.3.4>
    1816:	68 26 00 00 00       	push   0x26
    181b:	e9 80 fd ff ff       	jmp    15a0 <.plt>

0000000000001820 <setvbuf@plt>:
    1820:	ff 25 32 c7 20 00    	jmp    QWORD PTR [rip+0x20c732]        # 20df58 <setvbuf@GLIBC_2.2.5>
    1826:	68 27 00 00 00       	push   0x27
    182b:	e9 70 fd ff ff       	jmp    15a0 <.plt>

0000000000001830 <error@plt>:
    1830:	ff 25 2a c7 20 00    	jmp    QWORD PTR [rip+0x20c72a]        # 20df60 <error@GLIBC_2.2.5>
    1836:	68 28 00 00 00       	push   0x28
    183b:	e9 60 fd ff ff       	jmp    15a0 <.plt>

0000000000001840 <fseeko@plt>:
    1840:	ff 25 22 c7 20 00    	jmp    QWORD PTR [rip+0x20c722]        # 20df68 <fseeko@GLIBC_2.2.5>
    1846:	68 29 00 00 00       	push   0x29
    184b:	e9 50 fd ff ff       	jmp    15a0 <.plt>

0000000000001850 <fopen@plt>:
    1850:	ff 25 1a c7 20 00    	jmp    QWORD PTR [rip+0x20c71a]        # 20df70 <fopen@GLIBC_2.2.5>
    1856:	68 2a 00 00 00       	push   0x2a
    185b:	e9 40 fd ff ff       	jmp    15a0 <.plt>

0000000000001860 <dcngettext@plt>:
    1860:	ff 25 12 c7 20 00    	jmp    QWORD PTR [rip+0x20c712]        # 20df78 <dcngettext@GLIBC_2.2.5>
    1866:	68 2b 00 00 00       	push   0x2b
    186b:	e9 30 fd ff ff       	jmp    15a0 <.plt>

0000000000001870 <__cxa_atexit@plt>:
    1870:	ff 25 0a c7 20 00    	jmp    QWORD PTR [rip+0x20c70a]        # 20df80 <__cxa_atexit@GLIBC_2.2.5>
    1876:	68 2c 00 00 00       	push   0x2c
    187b:	e9 20 fd ff ff       	jmp    15a0 <.plt>

0000000000001880 <exit@plt>:
    1880:	ff 25 02 c7 20 00    	jmp    QWORD PTR [rip+0x20c702]        # 20df88 <exit@GLIBC_2.2.5>
    1886:	68 2d 00 00 00       	push   0x2d
    188b:	e9 10 fd ff ff       	jmp    15a0 <.plt>

0000000000001890 <fwrite@plt>:
    1890:	ff 25 fa c6 20 00    	jmp    QWORD PTR [rip+0x20c6fa]        # 20df90 <fwrite@GLIBC_2.2.5>
    1896:	68 2e 00 00 00       	push   0x2e
    189b:	e9 00 fd ff ff       	jmp    15a0 <.plt>

00000000000018a0 <__fprintf_chk@plt>:
    18a0:	ff 25 f2 c6 20 00    	jmp    QWORD PTR [rip+0x20c6f2]        # 20df98 <__fprintf_chk@GLIBC_2.3.4>
    18a6:	68 2f 00 00 00       	push   0x2f
    18ab:	e9 f0 fc ff ff       	jmp    15a0 <.plt>

00000000000018b0 <mbsinit@plt>:
    18b0:	ff 25 ea c6 20 00    	jmp    QWORD PTR [rip+0x20c6ea]        # 20dfa0 <mbsinit@GLIBC_2.2.5>
    18b6:	68 30 00 00 00       	push   0x30
    18bb:	e9 e0 fc ff ff       	jmp    15a0 <.plt>

00000000000018c0 <iswprint@plt>:
    18c0:	ff 25 e2 c6 20 00    	jmp    QWORD PTR [rip+0x20c6e2]        # 20dfa8 <iswprint@GLIBC_2.2.5>
    18c6:	68 31 00 00 00       	push   0x31
    18cb:	e9 d0 fc ff ff       	jmp    15a0 <.plt>

00000000000018d0 <__ctype_tolower_loc@plt>:
    18d0:	ff 25 da c6 20 00    	jmp    QWORD PTR [rip+0x20c6da]        # 20dfb0 <__ctype_tolower_loc@GLIBC_2.3>
    18d6:	68 32 00 00 00       	push   0x32
    18db:	e9 c0 fc ff ff       	jmp    15a0 <.plt>

00000000000018e0 <__ctype_b_loc@plt>:
    18e0:	ff 25 d2 c6 20 00    	jmp    QWORD PTR [rip+0x20c6d2]        # 20dfb8 <__ctype_b_loc@GLIBC_2.3>
    18e6:	68 33 00 00 00       	push   0x33
    18eb:	e9 b0 fc ff ff       	jmp    15a0 <.plt>

Disassembly of section .plt.got:

00000000000018f0 <__cxa_finalize@plt>:
    18f0:	ff 25 ea c6 20 00    	jmp    QWORD PTR [rip+0x20c6ea]        # 20dfe0 <__cxa_finalize@GLIBC_2.2.5>
    18f6:	66 90                	xchg   ax,ax

Disassembly of section .text:

0000000000001900 <main>:
    1900:	41 57                	push   r15
    1902:	41 56                	push   r14
    1904:	41 55                	push   r13
    1906:	41 54                	push   r12
    1908:	41 89 fc             	mov    r12d,edi
    190b:	55                   	push   rbp
    190c:	53                   	push   rbx
    190d:	48 89 f3             	mov    rbx,rsi
    1910:	bd ff ff ff ff       	mov    ebp,0xffffffff
    1915:	48 81 ec 48 01 00 00 	sub    rsp,0x148
    191c:	48 8b 3e             	mov    rdi,QWORD PTR [rsi]
    191f:	64 48 8b 04 25 28 00 	mov    rax,QWORD PTR fs:0x28
    1926:	00 00 
    1928:	48 89 84 24 38 01 00 	mov    QWORD PTR [rsp+0x138],rax
    192f:	00 
    1930:	31 c0                	xor    eax,eax
    1932:	e8 59 61 00 00       	call   7a90 <set_program_name>
    1937:	48 8d 35 23 9f 00 00 	lea    rsi,[rip+0x9f23]        # b861 <quoting_style_vals+0x81>
    193e:	bf 06 00 00 00       	mov    edi,0x6
    1943:	e8 b8 fe ff ff       	call   1800 <setlocale@plt>
    1948:	48 8d 35 f0 8d 00 00 	lea    rsi,[rip+0x8df0]        # a73f <_IO_stdin_used+0xbf>
    194f:	48 8d 3d c0 8d 00 00 	lea    rdi,[rip+0x8dc0]        # a716 <_IO_stdin_used+0x96>
    1956:	e8 f5 fc ff ff       	call   1650 <bindtextdomain@plt>
    195b:	48 8d 3d b4 8d 00 00 	lea    rdi,[rip+0x8db4]        # a716 <_IO_stdin_used+0x96>
    1962:	e8 c9 fc ff ff       	call   1630 <textdomain@plt>
    1967:	48 8d 3d b2 19 00 00 	lea    rdi,[rip+0x19b2]        # 3320 <close_stdout>
    196e:	e8 dd 8c 00 00       	call   a650 <atexit>
    1973:	48 8b 3d 2e c7 20 00 	mov    rdi,QWORD PTR [rip+0x20c72e]        # 20e0a8 <stdout@@GLIBC_2.2.5>
    197a:	31 c9                	xor    ecx,ecx
    197c:	ba 01 00 00 00       	mov    edx,0x1
    1981:	31 f6                	xor    esi,esi
    1983:	e8 98 fe ff ff       	call   1820 <setvbuf@plt>
    1988:	c6 44 24 78 00       	mov    BYTE PTR [rsp+0x78],0x0
    198d:	c6 44 24 2b 00       	mov    BYTE PTR [rsp+0x2b],0x0
    1992:	66 0f 1f 44 00 00    	nop    WORD PTR [rax+rax*1+0x0]
    1998:	48 8d 0d 81 c0 20 00 	lea    rcx,[rip+0x20c081]        # 20da20 <long_options>
    199f:	48 8d 15 da 8d 00 00 	lea    rdx,[rip+0x8dda]        # a780 <_IO_stdin_used+0x100>
    19a6:	45 31 c0             	xor    r8d,r8d
    19a9:	48 89 de             	mov    rsi,rbx
    19ac:	44 89 e7             	mov    edi,r12d
    19af:	e8 ec fc ff ff       	call   16a0 <getopt_long@plt>
    19b4:	83 f8 ff             	cmp    eax,0xffffffff
    19b7:	0f 84 7f 01 00 00    	je     1b3c <main+0x23c>
    19bd:	83 f8 77             	cmp    eax,0x77
    19c0:	0f 84 da 00 00 00    	je     1aa0 <main+0x1a0>
    19c6:	7e 38                	jle    1a00 <main+0x100>
    19c8:	3d 81 00 00 00       	cmp    eax,0x81
    19cd:	0f 84 1d 01 00 00    	je     1af0 <main+0x1f0>
    19d3:	7e 53                	jle    1a28 <main+0x128>
    19d5:	3d 83 00 00 00       	cmp    eax,0x83
    19da:	0f 84 00 01 00 00    	je     1ae0 <main+0x1e0>
    19e0:	0f 8c da 00 00 00    	jl     1ac0 <main+0x1c0>
    19e6:	3d 84 00 00 00       	cmp    eax,0x84
    19eb:	0f 85 df 01 00 00    	jne    1bd0 <main+0x2d0>
    19f1:	c6 44 24 78 01       	mov    BYTE PTR [rsp+0x78],0x1
    19f6:	bd 01 00 00 00       	mov    ebp,0x1
    19fb:	eb 9b                	jmp    1998 <main+0x98>
    19fd:	0f 1f 00             	nop    DWORD PTR [rax]
    1a00:	83 f8 62             	cmp    eax,0x62
    1a03:	0f 84 17 01 00 00    	je     1b20 <main+0x220>
    1a09:	7e 45                	jle    1a50 <main+0x150>
    1a0b:	83 f8 63             	cmp    eax,0x63
    1a0e:	0f 84 fc 00 00 00    	je     1b10 <main+0x210>
    1a14:	83 f8 74             	cmp    eax,0x74
    1a17:	0f 85 b3 01 00 00    	jne    1bd0 <main+0x2d0>
    1a1d:	31 ed                	xor    ebp,ebp
    1a1f:	e9 74 ff ff ff       	jmp    1998 <main+0x98>
    1a24:	0f 1f 40 00          	nop    DWORD PTR [rax+0x0]
    1a28:	83 f8 7a             	cmp    eax,0x7a
    1a2b:	0f 84 ff 00 00 00    	je     1b30 <main+0x230>
    1a31:	83 c0 80             	add    eax,0xffffff80
    1a34:	0f 85 96 01 00 00    	jne    1bd0 <main+0x2d0>
    1a3a:	c6 05 b1 c6 20 00 01 	mov    BYTE PTR [rip+0x20c6b1],0x1        # 20e0f2 <ignore_missing>
    1a41:	e9 52 ff ff ff       	jmp    1998 <main+0x98>
    1a46:	66 2e 0f 1f 84 00 00 	nop    WORD PTR cs:[rax+rax*1+0x0]
    1a4d:	00 00 00 
    1a50:	3d 7d ff ff ff       	cmp    eax,0xffffff7d
    1a55:	0f 85 76 0f 00 00    	jne    29d1 <main+0x10d1>
    1a5b:	48 8d 05 11 8d 00 00 	lea    rax,[rip+0x8d11]        # a773 <_IO_stdin_used+0xf3>
    1a62:	48 8b 3d 3f c6 20 00 	mov    rdi,QWORD PTR [rip+0x20c63f]        # 20e0a8 <stdout@@GLIBC_2.2.5>
    1a69:	48 8b 0d a8 c5 20 00 	mov    rcx,QWORD PTR [rip+0x20c5a8]        # 20e018 <Version>
    1a70:	6a 00                	push   0x0
    1a72:	4c 8d 0d de 8c 00 00 	lea    r9,[rip+0x8cde]        # a757 <_IO_stdin_used+0xd7>
    1a79:	4c 8d 05 e4 8c 00 00 	lea    r8,[rip+0x8ce4]        # a764 <_IO_stdin_used+0xe4>
    1a80:	50                   	push   rax
    1a81:	48 8d 15 8a 8c 00 00 	lea    rdx,[rip+0x8c8a]        # a712 <_IO_stdin_used+0x92>
    1a88:	48 8d 35 fb 8b 00 00 	lea    rsi,[rip+0x8bfb]        # a68a <_IO_stdin_used+0xa>
    1a8f:	31 c0                	xor    eax,eax
    1a91:	e8 fa 81 00 00       	call   9c90 <version_etc>
    1a96:	31 ff                	xor    edi,edi
    1a98:	e8 e3 fd ff ff       	call   1880 <exit@plt>
    1a9d:	0f 1f 00             	nop    DWORD PTR [rax]
    1aa0:	c6 05 4d c6 20 00 00 	mov    BYTE PTR [rip+0x20c64d],0x0        # 20e0f4 <status_only>
    1aa7:	c6 05 45 c6 20 00 01 	mov    BYTE PTR [rip+0x20c645],0x1        # 20e0f3 <warn>
    1aae:	c6 05 3c c6 20 00 00 	mov    BYTE PTR [rip+0x20c63c],0x0        # 20e0f1 <quiet>
    1ab5:	e9 de fe ff ff       	jmp    1998 <main+0x98>
    1aba:	66 0f 1f 44 00 00    	nop    WORD PTR [rax+rax*1+0x0]
    1ac0:	c6 05 2d c6 20 00 00 	mov    BYTE PTR [rip+0x20c62d],0x0        # 20e0f4 <status_only>
    1ac7:	c6 05 25 c6 20 00 00 	mov    BYTE PTR [rip+0x20c625],0x0        # 20e0f3 <warn>
    1ace:	c6 05 1c c6 20 00 01 	mov    BYTE PTR [rip+0x20c61c],0x1        # 20e0f1 <quiet>
    1ad5:	e9 be fe ff ff       	jmp    1998 <main+0x98>
    1ada:	66 0f 1f 44 00 00    	nop    WORD PTR [rax+rax*1+0x0]
    1ae0:	c6 05 09 c6 20 00 01 	mov    BYTE PTR [rip+0x20c609],0x1        # 20e0f0 <strict>
    1ae7:	e9 ac fe ff ff       	jmp    1998 <main+0x98>
    1aec:	0f 1f 40 00          	nop    DWORD PTR [rax+0x0]
    1af0:	c6 05 fd c5 20 00 01 	mov    BYTE PTR [rip+0x20c5fd],0x1        # 20e0f4 <status_only>
    1af7:	c6 05 f5 c5 20 00 00 	mov    BYTE PTR [rip+0x20c5f5],0x0        # 20e0f3 <warn>
    1afe:	c6 05 ec c5 20 00 00 	mov    BYTE PTR [rip+0x20c5ec],0x0        # 20e0f1 <quiet>
    1b05:	e9 8e fe ff ff       	jmp    1998 <main+0x98>
    1b0a:	66 0f 1f 44 00 00    	nop    WORD PTR [rax+rax*1+0x0]
    1b10:	c6 44 24 2b 01       	mov    BYTE PTR [rsp+0x2b],0x1
    1b15:	e9 7e fe ff ff       	jmp    1998 <main+0x98>
    1b1a:	66 0f 1f 44 00 00    	nop    WORD PTR [rax+rax*1+0x0]
    1b20:	bd 01 00 00 00       	mov    ebp,0x1
    1b25:	e9 6e fe ff ff       	jmp    1998 <main+0x98>
    1b2a:	66 0f 1f 44 00 00    	nop    WORD PTR [rax+rax*1+0x0]
    1b30:	c6 05 d9 c4 20 00 00 	mov    BYTE PTR [rip+0x20c4d9],0x0        # 20e010 <delim>
    1b37:	e9 5c fe ff ff       	jmp    1998 <main+0x98>
    1b3c:	85 ed                	test   ebp,ebp
    1b3e:	48 c7 05 b7 c5 20 00 	mov    QWORD PTR [rip+0x20c5b7],0x82        # 20e100 <min_digest_line_length>
    1b45:	82 00 00 00 
    1b49:	48 c7 05 a4 c5 20 00 	mov    QWORD PTR [rip+0x20c5a4],0x80        # 20e0f8 <digest_hex_bytes>
    1b50:	80 00 00 00 
    1b54:	0f 94 c0             	sete   al
    1b57:	84 44 24 78          	test   BYTE PTR [rsp+0x78],al
    1b5b:	0f 85 ba 0e 00 00    	jne    2a1b <main+0x111b>
    1b61:	80 3d a8 c4 20 00 0a 	cmp    BYTE PTR [rip+0x20c4a8],0xa        # 20e010 <delim>
    1b68:	74 70                	je     1bda <main+0x2da>
    1b6a:	80 7c 24 2b 00       	cmp    BYTE PTR [rsp+0x2b],0x0
    1b6f:	ba 05 00 00 00       	mov    edx,0x5
    1b74:	48 8d 35 0d 93 00 00 	lea    rsi,[rip+0x930d]        # ae88 <_IO_stdin_used+0x808>
    1b7b:	75 3e                	jne    1bbb <main+0x2bb>
    1b7d:	80 3d 6e c5 20 00 00 	cmp    BYTE PTR [rip+0x20c56e],0x0        # 20e0f2 <ignore_missing>
    1b84:	0f 85 a2 0e 00 00    	jne    2a2c <main+0x112c>
    1b8a:	80 3d 63 c5 20 00 00 	cmp    BYTE PTR [rip+0x20c563],0x0        # 20e0f4 <status_only>
    1b91:	0f 85 69 0e 00 00    	jne    2a00 <main+0x1100>
    1b97:	80 3d 55 c5 20 00 00 	cmp    BYTE PTR [rip+0x20c555],0x0        # 20e0f3 <warn>
    1b9e:	0f 84 01 03 00 00    	je     1ea5 <main+0x5a5>
    1ba4:	80 7c 24 2b 00       	cmp    BYTE PTR [rsp+0x2b],0x0
    1ba9:	ba 05 00 00 00       	mov    edx,0x5
    1bae:	48 8d 35 2b 94 00 00 	lea    rsi,[rip+0x942b]        # afe0 <_IO_stdin_used+0x960>
    1bb5:	0f 85 82 00 00 00    	jne    1c3d <main+0x33d>
    1bbb:	31 ff                	xor    edi,edi
    1bbd:	e8 9e fa ff ff       	call   1660 <dcgettext@plt>
    1bc2:	31 f6                	xor    esi,esi
    1bc4:	48 89 c2             	mov    rdx,rax
    1bc7:	31 ff                	xor    edi,edi
    1bc9:	31 c0                	xor    eax,eax
    1bcb:	e8 60 fc ff ff       	call   1830 <error@plt>
    1bd0:	bf 01 00 00 00       	mov    edi,0x1
    1bd5:	e8 c6 12 00 00       	call   2ea0 <usage>
    1bda:	80 7c 24 2b 00       	cmp    BYTE PTR [rsp+0x2b],0x0
    1bdf:	74 13                	je     1bf4 <main+0x2f4>
    1be1:	80 7c 24 78 00       	cmp    BYTE PTR [rsp+0x78],0x0
    1be6:	ba 05 00 00 00       	mov    edx,0x5
    1beb:	48 8d 35 d6 92 00 00 	lea    rsi,[rip+0x92d6]        # aec8 <_IO_stdin_used+0x848>
    1bf2:	75 c7                	jne    1bbb <main+0x2bb>
    1bf4:	85 ed                	test   ebp,ebp
    1bf6:	78 13                	js     1c0b <main+0x30b>
    1bf8:	80 7c 24 2b 00       	cmp    BYTE PTR [rsp+0x2b],0x0
    1bfd:	ba 05 00 00 00       	mov    edx,0x5
    1c02:	48 8d 35 ff 92 00 00 	lea    rsi,[rip+0x92ff]        # af08 <_IO_stdin_used+0x888>
    1c09:	75 b0                	jne    1bbb <main+0x2bb>
    1c0b:	80 3d e0 c4 20 00 00 	cmp    BYTE PTR [rip+0x20c4e0],0x0        # 20e0f2 <ignore_missing>
    1c12:	0f 84 d0 0d 00 00    	je     29e8 <main+0x10e8>
    1c18:	80 7c 24 2b 00       	cmp    BYTE PTR [rsp+0x2b],0x0
    1c1d:	0f 84 09 0e 00 00    	je     2a2c <main+0x112c>
    1c23:	80 3d ca c4 20 00 00 	cmp    BYTE PTR [rip+0x20c4ca],0x0        # 20e0f4 <status_only>
    1c2a:	0f 84 7d 09 00 00    	je     25ad <main+0xcad>
    1c30:	80 3d bc c4 20 00 00 	cmp    BYTE PTR [rip+0x20c4bc],0x0        # 20e0f3 <warn>
    1c37:	0f 84 68 02 00 00    	je     1ea5 <main+0x5a5>
    1c3d:	83 fd ff             	cmp    ebp,0xffffffff
    1c40:	75 02                	jne    1c44 <main+0x344>
    1c42:	31 ed                	xor    ebp,ebp
    1c44:	49 63 c4             	movsxd rax,r12d
    1c47:	48 8d 04 c3          	lea    rax,[rbx+rax*8]
    1c4b:	48 89 44 24 48       	mov    QWORD PTR [rsp+0x48],rax
    1c50:	48 63 05 61 c4 20 00 	movsxd rax,DWORD PTR [rip+0x20c461]        # 20e0b8 <optind@@GLIBC_2.2.5>
    1c57:	44 39 e0             	cmp    eax,r12d
    1c5a:	75 19                	jne    1c75 <main+0x375>
    1c5c:	48 8b 7c 24 48       	mov    rdi,QWORD PTR [rsp+0x48]
    1c61:	48 8d 35 ba 96 00 00 	lea    rsi,[rip+0x96ba]        # b322 <fillbuf+0xc2>
    1c68:	48 83 c7 08          	add    rdi,0x8
    1c6c:	48 89 77 f8          	mov    QWORD PTR [rdi-0x8],rsi
    1c70:	48 89 7c 24 48       	mov    QWORD PTR [rsp+0x48],rdi
    1c75:	48 8d 04 c3          	lea    rax,[rbx+rax*8]
    1c79:	48 39 44 24 48       	cmp    QWORD PTR [rsp+0x48],rax
    1c7e:	48 89 44 24 18       	mov    QWORD PTR [rsp+0x18],rax
    1c83:	0f 86 ab 0c 00 00    	jbe    2934 <main+0x1034>
    1c89:	83 fd 01             	cmp    ebp,0x1
    1c8c:	4c 8d 35 9d 95 00 00 	lea    r14,[rip+0x959d]        # b230 <bin2hex.7156>
    1c93:	c6 44 24 79 01       	mov    BYTE PTR [rsp+0x79],0x1
    1c98:	19 c0                	sbb    eax,eax
    1c9a:	83 e0 f6             	and    eax,0xfffffff6
    1c9d:	83 c0 2a             	add    eax,0x2a
    1ca0:	89 44 24 7c          	mov    DWORD PTR [rsp+0x7c],eax
    1ca4:	88 44 24 7b          	mov    BYTE PTR [rsp+0x7b],al
    1ca8:	0f 1f 84 00 00 00 00 	nop    DWORD PTR [rax+rax*1+0x0]
    1caf:	00 
    1cb0:	48 8b 44 24 18       	mov    rax,QWORD PTR [rsp+0x18]
    1cb5:	80 7c 24 2b 00       	cmp    BYTE PTR [rsp+0x2b],0x0
    1cba:	48 8b 30             	mov    rsi,QWORD PTR [rax]
    1cbd:	48 89 74 24 20       	mov    QWORD PTR [rsp+0x20],rsi
    1cc2:	0f 84 78 06 00 00    	je     2340 <main+0xa40>
    1cc8:	48 8d 3d 53 96 00 00 	lea    rdi,[rip+0x9653]        # b322 <fillbuf+0xc2>
    1ccf:	b9 02 00 00 00       	mov    ecx,0x2
    1cd4:	f3 a6                	repz cmps BYTE PTR ds:[rsi],BYTE PTR es:[rdi]
    1cd6:	0f 97 c0             	seta   al
    1cd9:	1c 00                	sbb    al,0x0
    1cdb:	0f be c0             	movsx  eax,al
    1cde:	85 c0                	test   eax,eax
    1ce0:	89 44 24 2c          	mov    DWORD PTR [rsp+0x2c],eax
    1ce4:	0f 85 2b 07 00 00    	jne    2415 <main+0xb15>
    1cea:	48 8d 35 95 8a 00 00 	lea    rsi,[rip+0x8a95]        # a786 <_IO_stdin_used+0x106>
    1cf1:	ba 05 00 00 00       	mov    edx,0x5
    1cf6:	31 ff                	xor    edi,edi
    1cf8:	c6 05 09 c4 20 00 01 	mov    BYTE PTR [rip+0x20c409],0x1        # 20e108 <have_read_stdin>
    1cff:	e8 5c f9 ff ff       	call   1660 <dcgettext@plt>
    1d04:	4c 8b 25 a5 c3 20 00 	mov    r12,QWORD PTR [rip+0x20c3a5]        # 20e0b0 <stdin@@GLIBC_2.2.5>
    1d0b:	48 89 44 24 20       	mov    QWORD PTR [rsp+0x20],rax
    1d10:	48 8d 84 24 98 00 00 	lea    rax,[rsp+0x98]
    1d17:	00 
    1d18:	48 c7 84 24 90 00 00 	mov    QWORD PTR [rsp+0x90],0x0
    1d1f:	00 00 00 00 00 
    1d24:	48 c7 84 24 98 00 00 	mov    QWORD PTR [rsp+0x98],0x0
    1d2b:	00 00 00 00 00 
    1d30:	c6 44 24 7a 00       	mov    BYTE PTR [rsp+0x7a],0x0
    1d35:	c6 44 24 30 00       	mov    BYTE PTR [rsp+0x30],0x0
    1d3a:	45 31 ed             	xor    r13d,r13d
    1d3d:	48 89 44 24 08       	mov    QWORD PTR [rsp+0x8],rax
    1d42:	48 8d 84 24 90 00 00 	lea    rax,[rsp+0x90]
    1d49:	00 
    1d4a:	48 c7 44 24 58 00 00 	mov    QWORD PTR [rsp+0x58],0x0
    1d51:	00 00 
    1d53:	48 c7 44 24 50 00 00 	mov    QWORD PTR [rsp+0x50],0x0
    1d5a:	00 00 
    1d5c:	bd 01 00 00 00       	mov    ebp,0x1
    1d61:	48 89 44 24 10       	mov    QWORD PTR [rsp+0x10],rax
    1d66:	48 8d 84 24 8f 00 00 	lea    rax,[rsp+0x8f]
    1d6d:	00 
    1d6e:	48 89 44 24 40       	mov    QWORD PTR [rsp+0x40],rax
    1d73:	48 8d 84 24 f0 00 00 	lea    rax,[rsp+0xf0]
    1d7a:	00 
    1d7b:	48 89 44 24 38       	mov    QWORD PTR [rsp+0x38],rax
    1d80:	48 8b 74 24 08       	mov    rsi,QWORD PTR [rsp+0x8]
    1d85:	48 8b 7c 24 10       	mov    rdi,QWORD PTR [rsp+0x10]
    1d8a:	4c 89 e1             	mov    rcx,r12
    1d8d:	ba 0a 00 00 00       	mov    edx,0xa
    1d92:	e8 c9 f9 ff ff       	call   1760 <__getdelim@plt>
    1d97:	48 85 c0             	test   rax,rax
    1d9a:	0f 8e fc 02 00 00    	jle    209c <main+0x79c>
    1da0:	48 8b 9c 24 90 00 00 	mov    rbx,QWORD PTR [rsp+0x90]
    1da7:	00 
    1da8:	0f b6 0b             	movzx  ecx,BYTE PTR [rbx]
    1dab:	80 f9 23             	cmp    cl,0x23
    1dae:	0f 84 a1 00 00 00    	je     1e55 <main+0x555>
    1db4:	80 7c 03 ff 0a       	cmp    BYTE PTR [rbx+rax*1-0x1],0xa
    1db9:	49 89 c7             	mov    r15,rax
    1dbc:	75 14                	jne    1dd2 <main+0x4d2>
    1dbe:	49 83 ef 01          	sub    r15,0x1
    1dc2:	42 c6 04 3b 00       	mov    BYTE PTR [rbx+r15*1],0x0
    1dc7:	48 8b 9c 24 90 00 00 	mov    rbx,QWORD PTR [rsp+0x90]
    1dce:	00 
    1dcf:	0f b6 0b             	movzx  ecx,BYTE PTR [rbx]
    1dd2:	80 f9 09             	cmp    cl,0x9
    1dd5:	74 07                	je     1dde <main+0x4de>
    1dd7:	31 d2                	xor    edx,edx
    1dd9:	80 f9 20             	cmp    cl,0x20
    1ddc:	75 14                	jne    1df2 <main+0x4f2>
    1dde:	31 d2                	xor    edx,edx
    1de0:	48 83 c2 01          	add    rdx,0x1
    1de4:	0f b6 0c 13          	movzx  ecx,BYTE PTR [rbx+rdx*1]
    1de8:	80 f9 20             	cmp    cl,0x20
    1deb:	74 f3                	je     1de0 <main+0x4e0>
    1ded:	80 f9 09             	cmp    cl,0x9
    1df0:	74 ee                	je     1de0 <main+0x4e0>
    1df2:	45 31 c9             	xor    r9d,r9d
    1df5:	80 f9 5c             	cmp    cl,0x5c
    1df8:	75 0a                	jne    1e04 <main+0x504>
    1dfa:	44 0f b6 4c 24 2b    	movzx  r9d,BYTE PTR [rsp+0x2b]
    1e00:	48 83 c2 01          	add    rdx,0x1
    1e04:	4c 8d 04 13          	lea    r8,[rbx+rdx*1]
    1e08:	48 8d 3d 85 88 00 00 	lea    rdi,[rip+0x8885]        # a694 <_IO_stdin_used+0x14>
    1e0f:	b9 06 00 00 00       	mov    ecx,0x6
    1e14:	4c 89 c6             	mov    rsi,r8
    1e17:	f3 a6                	repz cmps BYTE PTR ds:[rsi],BYTE PTR es:[rdi]
    1e19:	0f 97 c0             	seta   al
    1e1c:	1c 00                	sbb    al,0x0
    1e1e:	84 c0                	test   al,al
    1e20:	0f 85 ca 00 00 00    	jne    1ef0 <main+0x5f0>
    1e26:	0f b6 44 13 06       	movzx  eax,BYTE PTR [rbx+rdx*1+0x6]
    1e2b:	48 8d 4a 06          	lea    rcx,[rdx+0x6]
    1e2f:	3c 20                	cmp    al,0x20
    1e31:	75 09                	jne    1e3c <main+0x53c>
    1e33:	0f b6 44 13 07       	movzx  eax,BYTE PTR [rbx+rdx*1+0x7]
    1e38:	48 8d 4a 07          	lea    rcx,[rdx+0x7]
    1e3c:	3c 28                	cmp    al,0x28
    1e3e:	0f 84 80 05 00 00    	je     23c4 <main+0xac4>
    1e44:	49 83 c5 01          	add    r13,0x1
    1e48:	80 3d a4 c2 20 00 00 	cmp    BYTE PTR [rip+0x20c2a4],0x0        # 20e0f3 <warn>
    1e4f:	0f 85 7b 03 00 00    	jne    21d0 <main+0x8d0>
    1e55:	41 f6 04 24 30       	test   BYTE PTR [r12],0x30
    1e5a:	0f 85 3c 02 00 00    	jne    209c <main+0x79c>
    1e60:	48 83 c5 01          	add    rbp,0x1
    1e64:	0f 85 16 ff ff ff    	jne    1d80 <main+0x480>
    1e6a:	48 8b 54 24 20       	mov    rdx,QWORD PTR [rsp+0x20]
    1e6f:	be 03 00 00 00       	mov    esi,0x3
    1e74:	31 ff                	xor    edi,edi
    1e76:	e8 55 77 00 00       	call   95d0 <quotearg_n_style_colon>
    1e7b:	48 8d 35 13 89 00 00 	lea    rsi,[rip+0x8913]        # a795 <_IO_stdin_used+0x115>
    1e82:	48 89 c3             	mov    rbx,rax
    1e85:	ba 05 00 00 00       	mov    edx,0x5
    1e8a:	31 ff                	xor    edi,edi
    1e8c:	e8 cf f7 ff ff       	call   1660 <dcgettext@plt>
    1e91:	48 89 d9             	mov    rcx,rbx
    1e94:	48 89 c2             	mov    rdx,rax
    1e97:	31 f6                	xor    esi,esi
    1e99:	bf 01 00 00 00       	mov    edi,0x1
    1e9e:	31 c0                	xor    eax,eax
    1ea0:	e8 8b f9 ff ff       	call   1830 <error@plt>
    1ea5:	80 3d 45 c2 20 00 01 	cmp    BYTE PTR [rip+0x20c245],0x1        # 20e0f1 <quiet>
    1eac:	75 17                	jne    1ec5 <main+0x5c5>
    1eae:	80 7c 24 2b 00       	cmp    BYTE PTR [rsp+0x2b],0x0
    1eb3:	ba 05 00 00 00       	mov    edx,0x5
    1eb8:	48 8d 35 61 91 00 00 	lea    rsi,[rip+0x9161]        # b020 <_IO_stdin_used+0x9a0>
    1ebf:	0f 84 f6 fc ff ff    	je     1bbb <main+0x2bb>
    1ec5:	80 3d 24 c2 20 00 00 	cmp    BYTE PTR [rip+0x20c224],0x0        # 20e0f0 <strict>
    1ecc:	0f 84 6b fd ff ff    	je     1c3d <main+0x33d>
    1ed2:	80 7c 24 2b 00       	cmp    BYTE PTR [rsp+0x2b],0x0
    1ed7:	ba 05 00 00 00       	mov    edx,0x5
    1edc:	48 8d 35 7d 91 00 00 	lea    rsi,[rip+0x917d]        # b060 <_IO_stdin_used+0x9e0>
    1ee3:	0f 85 54 fd ff ff    	jne    1c3d <main+0x33d>
    1ee9:	e9 cd fc ff ff       	jmp    1bbb <main+0x2bb>
    1eee:	66 90                	xchg   ax,ax
    1ef0:	4c 89 f9             	mov    rcx,r15
    1ef3:	31 c0                	xor    eax,eax
    1ef5:	48 29 d1             	sub    rcx,rdx
    1ef8:	41 80 38 5c          	cmp    BYTE PTR [r8],0x5c
    1efc:	0f 94 c0             	sete   al
    1eff:	48 03 05 fa c1 20 00 	add    rax,QWORD PTR [rip+0x20c1fa]        # 20e100 <min_digest_line_length>
    1f06:	48 39 c1             	cmp    rcx,rax
    1f09:	0f 82 35 ff ff ff    	jb     1e44 <main+0x544>
    1f0f:	48 03 15 e2 c1 20 00 	add    rdx,QWORD PTR [rip+0x20c1e2]        # 20e0f8 <digest_hex_bytes>
    1f16:	48 8d 0c 13          	lea    rcx,[rbx+rdx*1]
    1f1a:	0f b6 01             	movzx  eax,BYTE PTR [rcx]
    1f1d:	3c 20                	cmp    al,0x20
    1f1f:	74 08                	je     1f29 <main+0x629>
    1f21:	3c 09                	cmp    al,0x9
    1f23:	0f 85 1b ff ff ff    	jne    1e44 <main+0x544>
    1f29:	c6 01 00             	mov    BYTE PTR [rcx],0x0
    1f2c:	4c 89 c7             	mov    rdi,r8
    1f2f:	48 89 54 24 70       	mov    QWORD PTR [rsp+0x70],rdx
    1f34:	44 88 4c 24 68       	mov    BYTE PTR [rsp+0x68],r9b
    1f39:	4c 89 44 24 60       	mov    QWORD PTR [rsp+0x60],r8
    1f3e:	e8 8d 0c 00 00       	call   2bd0 <hex_digits>
    1f43:	84 c0                	test   al,al
    1f45:	0f 84 f9 fe ff ff    	je     1e44 <main+0x544>
    1f4b:	48 8b 54 24 70       	mov    rdx,QWORD PTR [rsp+0x70]
    1f50:	4c 89 f9             	mov    rcx,r15
    1f53:	8b 35 bb c0 20 00    	mov    esi,DWORD PTR [rip+0x20c0bb]        # 20e014 <bsd_reversed>
    1f59:	4c 8b 44 24 60       	mov    r8,QWORD PTR [rsp+0x60]
    1f5e:	44 0f b6 4c 24 68    	movzx  r9d,BYTE PTR [rsp+0x68]
    1f64:	48 8d 42 01          	lea    rax,[rdx+0x1]
    1f68:	48 29 c1             	sub    rcx,rax
    1f6b:	48 83 e9 01          	sub    rcx,0x1
    1f6f:	74 17                	je     1f88 <main+0x688>
    1f71:	0f b6 4c 13 01       	movzx  ecx,BYTE PTR [rbx+rdx*1+0x1]
    1f76:	80 f9 20             	cmp    cl,0x20
    1f79:	0f 84 65 07 00 00    	je     26e4 <main+0xde4>
    1f7f:	80 f9 2a             	cmp    cl,0x2a
    1f82:	0f 84 5c 07 00 00    	je     26e4 <main+0xde4>
    1f88:	85 f6                	test   esi,esi
    1f8a:	0f 84 b4 fe ff ff    	je     1e44 <main+0x544>
    1f90:	c7 05 7a c0 20 00 01 	mov    DWORD PTR [rip+0x20c07a],0x1        # 20e014 <bsd_reversed>
    1f97:	00 00 00 
    1f9a:	48 01 c3             	add    rbx,rax
    1f9d:	45 84 c9             	test   r9b,r9b
    1fa0:	0f 85 9b 07 00 00    	jne    2741 <main+0xe41>
    1fa6:	8b 44 24 2c          	mov    eax,DWORD PTR [rsp+0x2c]
    1faa:	85 c0                	test   eax,eax
    1fac:	75 1e                	jne    1fcc <main+0x6cc>
    1fae:	48 8d 3d 6d 93 00 00 	lea    rdi,[rip+0x936d]        # b322 <fillbuf+0xc2>
    1fb5:	b9 02 00 00 00       	mov    ecx,0x2
    1fba:	48 89 de             	mov    rsi,rbx
    1fbd:	f3 a6                	repz cmps BYTE PTR ds:[rsi],BYTE PTR es:[rdi]
    1fbf:	0f 97 c0             	seta   al
    1fc2:	1c 00                	sbb    al,0x0
    1fc4:	84 c0                	test   al,al
    1fc6:	0f 84 78 fe ff ff    	je     1e44 <main+0x544>
    1fcc:	45 31 ff             	xor    r15d,r15d
    1fcf:	80 3d 1e c1 20 00 00 	cmp    BYTE PTR [rip+0x20c11e],0x0        # 20e0f4 <status_only>
    1fd6:	75 21                	jne    1ff9 <main+0x6f9>
    1fd8:	be 0a 00 00 00       	mov    esi,0xa
    1fdd:	48 89 df             	mov    rdi,rbx
    1fe0:	4c 89 44 24 30       	mov    QWORD PTR [rsp+0x30],r8
    1fe5:	e8 d6 f6 ff ff       	call   16c0 <strchr@plt>
    1fea:	4c 8b 44 24 30       	mov    r8,QWORD PTR [rsp+0x30]
    1fef:	45 31 ff             	xor    r15d,r15d
    1ff2:	48 85 c0             	test   rax,rax
    1ff5:	41 0f 95 c7          	setne  r15b
    1ff9:	48 8b 54 24 40       	mov    rdx,QWORD PTR [rsp+0x40]
    1ffe:	48 8b 74 24 38       	mov    rsi,QWORD PTR [rsp+0x38]
    2003:	48 89 df             	mov    rdi,rbx
    2006:	4c 89 44 24 30       	mov    QWORD PTR [rsp+0x30],r8
    200b:	e8 f0 0c 00 00       	call   2d00 <digest_file.isra.1>
    2010:	84 c0                	test   al,al
    2012:	41 89 c1             	mov    r9d,eax
    2015:	4c 8b 44 24 30       	mov    r8,QWORD PTR [rsp+0x30]
    201a:	0f 85 00 02 00 00    	jne    2220 <main+0x920>
    2020:	48 83 44 24 50 01    	add    QWORD PTR [rsp+0x50],0x1
    2026:	80 3d c7 c0 20 00 00 	cmp    BYTE PTR [rip+0x20c0c7],0x0        # 20e0f4 <status_only>
    202d:	75 59                	jne    2088 <main+0x788>
    202f:	45 85 ff             	test   r15d,r15d
    2032:	74 20                	je     2054 <main+0x754>
    2034:	48 8b 3d 6d c0 20 00 	mov    rdi,QWORD PTR [rip+0x20c06d]        # 20e0a8 <stdout@@GLIBC_2.2.5>
    203b:	48 8b 47 28          	mov    rax,QWORD PTR [rdi+0x28]
    203f:	48 3b 47 30          	cmp    rax,QWORD PTR [rdi+0x30]
    2043:	0f 83 1b 09 00 00    	jae    2964 <main+0x1064>
    2049:	48 8d 50 01          	lea    rdx,[rax+0x1]
    204d:	48 89 57 28          	mov    QWORD PTR [rdi+0x28],rdx
    2051:	c6 00 5c             	mov    BYTE PTR [rax],0x5c
    2054:	44 89 fe             	mov    esi,r15d
    2057:	48 89 df             	mov    rdi,rbx
    205a:	e8 d1 0b 00 00       	call   2c30 <print_filename>
    205f:	48 8d 35 4b 87 00 00 	lea    rsi,[rip+0x874b]        # a7b1 <_IO_stdin_used+0x131>
    2066:	ba 05 00 00 00       	mov    edx,0x5
    206b:	31 ff                	xor    edi,edi
    206d:	e8 ee f5 ff ff       	call   1660 <dcgettext@plt>
    2072:	48 8d 35 f8 97 00 00 	lea    rsi,[rip+0x97f8]        # b871 <quoting_style_vals+0x91>
    2079:	48 89 c2             	mov    rdx,rax
    207c:	bf 01 00 00 00       	mov    edi,0x1
    2081:	31 c0                	xor    eax,eax
    2083:	e8 88 f7 ff ff       	call   1810 <__printf_chk@plt>
    2088:	0f b6 44 24 2b       	movzx  eax,BYTE PTR [rsp+0x2b]
    208d:	41 f6 04 24 30       	test   BYTE PTR [r12],0x30
    2092:	88 44 24 30          	mov    BYTE PTR [rsp+0x30],al
    2096:	0f 84 c4 fd ff ff    	je     1e60 <main+0x560>
    209c:	48 8b bc 24 90 00 00 	mov    rdi,QWORD PTR [rsp+0x90]
    20a3:	00 
    20a4:	e8 07 f5 ff ff       	call   15b0 <free@plt>
    20a9:	41 8b 1c 24          	mov    ebx,DWORD PTR [r12]
    20ad:	83 e3 20             	and    ebx,0x20
    20b0:	0f 85 b8 04 00 00    	jne    256e <main+0xc6e>
    20b6:	83 7c 24 2c 00       	cmp    DWORD PTR [rsp+0x2c],0x0
    20bb:	0f 85 67 05 00 00    	jne    2628 <main+0xd28>
    20c1:	80 7c 24 30 00       	cmp    BYTE PTR [rsp+0x30],0x0
    20c6:	0f 84 79 05 00 00    	je     2645 <main+0xd45>
    20cc:	80 3d 21 c0 20 00 00 	cmp    BYTE PTR [rip+0x20c021],0x0        # 20e0f4 <status_only>
    20d3:	0f 85 85 04 00 00    	jne    255e <main+0xc5e>
    20d9:	4d 85 ed             	test   r13,r13
    20dc:	74 2f                	je     210d <main+0x80d>
    20de:	48 8d 15 23 90 00 00 	lea    rdx,[rip+0x9023]        # b108 <_IO_stdin_used+0xa88>
    20e5:	48 8d 35 4c 90 00 00 	lea    rsi,[rip+0x904c]        # b138 <_IO_stdin_used+0xab8>
    20ec:	4c 89 e9             	mov    rcx,r13
    20ef:	31 ff                	xor    edi,edi
    20f1:	41 b8 05 00 00 00    	mov    r8d,0x5
    20f7:	e8 64 f7 ff ff       	call   1860 <dcngettext@plt>
    20fc:	4c 89 e9             	mov    rcx,r13
    20ff:	48 89 c2             	mov    rdx,rax
    2102:	31 f6                	xor    esi,esi
    2104:	31 ff                	xor    edi,edi
    2106:	31 c0                	xor    eax,eax
    2108:	e8 23 f7 ff ff       	call   1830 <error@plt>
    210d:	48 83 7c 24 50 00    	cmp    QWORD PTR [rsp+0x50],0x0
    2113:	74 34                	je     2149 <main+0x849>
    2115:	4c 8b 7c 24 50       	mov    r15,QWORD PTR [rsp+0x50]
    211a:	48 8d 15 47 90 00 00 	lea    rdx,[rip+0x9047]        # b168 <_IO_stdin_used+0xae8>
    2121:	48 8d 35 70 90 00 00 	lea    rsi,[rip+0x9070]        # b198 <_IO_stdin_used+0xb18>
    2128:	31 ff                	xor    edi,edi
    212a:	41 b8 05 00 00 00    	mov    r8d,0x5
    2130:	4c 89 f9             	mov    rcx,r15
    2133:	e8 28 f7 ff ff       	call   1860 <dcngettext@plt>
    2138:	4c 89 f9             	mov    rcx,r15
    213b:	48 89 c2             	mov    rdx,rax
    213e:	31 f6                	xor    esi,esi
    2140:	31 ff                	xor    edi,edi
    2142:	31 c0                	xor    eax,eax
    2144:	e8 e7 f6 ff ff       	call   1830 <error@plt>
    2149:	48 83 7c 24 58 00    	cmp    QWORD PTR [rsp+0x58],0x0
    214f:	74 34                	je     2185 <main+0x885>
    2151:	4c 8b 7c 24 58       	mov    r15,QWORD PTR [rsp+0x58]
    2156:	48 8d 15 6b 90 00 00 	lea    rdx,[rip+0x906b]        # b1c8 <_IO_stdin_used+0xb48>
    215d:	48 8d 35 94 90 00 00 	lea    rsi,[rip+0x9094]        # b1f8 <_IO_stdin_used+0xb78>
    2164:	31 ff                	xor    edi,edi
    2166:	41 b8 05 00 00 00    	mov    r8d,0x5
    216c:	4c 89 f9             	mov    rcx,r15
    216f:	e8 ec f6 ff ff       	call   1860 <dcngettext@plt>
    2174:	4c 89 f9             	mov    rcx,r15
    2177:	48 89 c2             	mov    rdx,rax
    217a:	31 f6                	xor    esi,esi
    217c:	31 ff                	xor    edi,edi
    217e:	31 c0                	xor    eax,eax
    2180:	e8 ab f6 ff ff       	call   1830 <error@plt>
    2185:	80 3d 66 bf 20 00 00 	cmp    BYTE PTR [rip+0x20bf66],0x0        # 20e0f2 <ignore_missing>
    218c:	0f 84 cc 03 00 00    	je     255e <main+0xc5e>
    2192:	80 7c 24 7a 00       	cmp    BYTE PTR [rsp+0x7a],0x0
    2197:	0f 84 5a 07 00 00    	je     28f7 <main+0xff7>
    219d:	48 8b 44 24 50       	mov    rax,QWORD PTR [rsp+0x50]
    21a2:	48 0b 44 24 58       	or     rax,QWORD PTR [rsp+0x58]
    21a7:	75 15                	jne    21be <main+0x8be>
    21a9:	0f b6 05 40 bf 20 00 	movzx  eax,BYTE PTR [rip+0x20bf40]        # 20e0f0 <strict>
    21b0:	83 f0 01             	xor    eax,0x1
    21b3:	4d 85 ed             	test   r13,r13
    21b6:	0f 94 c3             	sete   bl
    21b9:	09 d8                	or     eax,ebx
    21bb:	0f b6 d8             	movzx  ebx,al
    21be:	89 d8                	mov    eax,ebx
    21c0:	83 e0 01             	and    eax,0x1
    21c3:	20 44 24 79          	and    BYTE PTR [rsp+0x79],al
    21c7:	e9 a1 01 00 00       	jmp    236d <main+0xa6d>
    21cc:	0f 1f 40 00          	nop    DWORD PTR [rax+0x0]
    21d0:	48 8b 54 24 20       	mov    rdx,QWORD PTR [rsp+0x20]
    21d5:	31 ff                	xor    edi,edi
    21d7:	be 03 00 00 00       	mov    esi,0x3
    21dc:	e8 ef 73 00 00       	call   95d0 <quotearg_n_style_colon>
    21e1:	48 8d 35 b8 8e 00 00 	lea    rsi,[rip+0x8eb8]        # b0a0 <_IO_stdin_used+0xa20>
    21e8:	31 ff                	xor    edi,edi
    21ea:	ba 05 00 00 00       	mov    edx,0x5
    21ef:	48 89 c3             	mov    rbx,rax
    21f2:	e8 69 f4 ff ff       	call   1660 <dcgettext@plt>
    21f7:	4c 8d 0d 96 84 00 00 	lea    r9,[rip+0x8496]        # a694 <_IO_stdin_used+0x14>
    21fe:	48 89 c2             	mov    rdx,rax
    2201:	49 89 e8             	mov    r8,rbp
    2204:	48 89 d9             	mov    rcx,rbx
    2207:	31 f6                	xor    esi,esi
    2209:	31 ff                	xor    edi,edi
    220b:	31 c0                	xor    eax,eax
    220d:	e8 1e f6 ff ff       	call   1830 <error@plt>
    2212:	e9 3e fc ff ff       	jmp    1e55 <main+0x555>
    2217:	66 0f 1f 84 00 00 00 	nop    WORD PTR [rax+rax*1+0x0]
    221e:	00 00 
    2220:	80 3d cb be 20 00 00 	cmp    BYTE PTR [rip+0x20becb],0x0        # 20e0f2 <ignore_missing>
    2227:	74 0e                	je     2237 <main+0x937>
    2229:	80 bc 24 8f 00 00 00 	cmp    BYTE PTR [rsp+0x8f],0x0
    2230:	00 
    2231:	0f 85 51 fe ff ff    	jne    2088 <main+0x788>
    2237:	48 8b 0d ba be 20 00 	mov    rcx,QWORD PTR [rip+0x20beba]        # 20e0f8 <digest_hex_bytes>
    223e:	4c 89 44 24 68       	mov    QWORD PTR [rsp+0x68],r8
    2243:	48 d1 e9             	shr    rcx,1
    2246:	0f 84 73 03 00 00    	je     25bf <main+0xcbf>
    224c:	48 89 4c 24 60       	mov    QWORD PTR [rsp+0x60],rcx
    2251:	44 88 4c 24 30       	mov    BYTE PTR [rsp+0x30],r9b
    2256:	e8 75 f6 ff ff       	call   18d0 <__ctype_tolower_loc@plt>
    225b:	31 d2                	xor    edx,edx
    225d:	48 8b 38             	mov    rdi,QWORD PTR [rax]
    2260:	44 0f b6 4c 24 30    	movzx  r9d,BYTE PTR [rsp+0x30]
    2266:	48 8b 4c 24 60       	mov    rcx,QWORD PTR [rsp+0x60]
    226b:	4c 8b 44 24 68       	mov    r8,QWORD PTR [rsp+0x68]
    2270:	4c 8b 54 24 38       	mov    r10,QWORD PTR [rsp+0x38]
    2275:	eb 29                	jmp    22a0 <main+0x9a0>
    2277:	66 0f 1f 84 00 00 00 	nop    WORD PTR [rax+rax*1+0x0]
    227e:	00 00 
    2280:	41 0f b6 74 50 01    	movzx  esi,BYTE PTR [r8+rdx*2+0x1]
    2286:	83 e0 0f             	and    eax,0xf
    2289:	41 0f be 04 06       	movsx  eax,BYTE PTR [r14+rax*1]
    228e:	39 04 b7             	cmp    DWORD PTR [rdi+rsi*4],eax
    2291:	75 2b                	jne    22be <main+0x9be>
    2293:	48 83 c2 01          	add    rdx,0x1
    2297:	48 39 d1             	cmp    rcx,rdx
    229a:	0f 84 9d 03 00 00    	je     263d <main+0xd3d>
    22a0:	41 0f b6 04 12       	movzx  eax,BYTE PTR [r10+rdx*1]
    22a5:	45 0f b6 1c 50       	movzx  r11d,BYTE PTR [r8+rdx*2]
    22aa:	89 c6                	mov    esi,eax
    22ac:	40 c0 ee 04          	shr    sil,0x4
    22b0:	83 e6 0f             	and    esi,0xf
    22b3:	41 0f be 34 36       	movsx  esi,BYTE PTR [r14+rsi*1]
    22b8:	42 39 34 9f          	cmp    DWORD PTR [rdi+r11*4],esi
    22bc:	74 c2                	je     2280 <main+0x980>
    22be:	48 39 d1             	cmp    rcx,rdx
    22c1:	0f 84 fa 02 00 00    	je     25c1 <main+0xcc1>
    22c7:	48 83 44 24 58 01    	add    QWORD PTR [rsp+0x58],0x1
    22cd:	80 3d 20 be 20 00 00 	cmp    BYTE PTR [rip+0x20be20],0x0        # 20e0f4 <status_only>
    22d4:	0f 85 ae fd ff ff    	jne    2088 <main+0x788>
    22da:	45 85 ff             	test   r15d,r15d
    22dd:	0f 84 05 06 00 00    	je     28e8 <main+0xfe8>
    22e3:	48 8b 3d be bd 20 00 	mov    rdi,QWORD PTR [rip+0x20bdbe]        # 20e0a8 <stdout@@GLIBC_2.2.5>
    22ea:	48 8b 47 28          	mov    rax,QWORD PTR [rdi+0x28]
    22ee:	48 3b 47 30          	cmp    rax,QWORD PTR [rdi+0x30]
    22f2:	0f 83 a7 06 00 00    	jae    299f <main+0x109f>
    22f8:	48 8d 70 01          	lea    rsi,[rax+0x1]
    22fc:	48 89 77 28          	mov    QWORD PTR [rdi+0x28],rsi
    2300:	c6 00 5c             	mov    BYTE PTR [rax],0x5c
    2303:	be 01 00 00 00       	mov    esi,0x1
    2308:	48 89 df             	mov    rdi,rbx
    230b:	48 89 4c 24 60       	mov    QWORD PTR [rsp+0x60],rcx
    2310:	48 89 54 24 30       	mov    QWORD PTR [rsp+0x30],rdx
    2315:	e8 16 09 00 00       	call   2c30 <print_filename>
    231a:	48 8b 54 24 30       	mov    rdx,QWORD PTR [rsp+0x30]
    231f:	48 8b 4c 24 60       	mov    rcx,QWORD PTR [rsp+0x60]
    2324:	48 39 ca             	cmp    rdx,rcx
    2327:	0f 84 dd 02 00 00    	je     260a <main+0xd0a>
    232d:	ba 05 00 00 00       	mov    edx,0x5
    2332:	48 8d 35 8c 84 00 00 	lea    rsi,[rip+0x848c]        # a7c5 <_IO_stdin_used+0x145>
    2339:	e9 2d fd ff ff       	jmp    206b <main+0x76b>
    233e:	66 90                	xchg   ax,ax
    2340:	48 8d 84 24 98 00 00 	lea    rax,[rsp+0x98]
    2347:	00 
    2348:	48 8d 9c 24 a0 00 00 	lea    rbx,[rsp+0xa0]
    234f:	00 
    2350:	48 8b 7c 24 20       	mov    rdi,QWORD PTR [rsp+0x20]
    2355:	48 89 c2             	mov    rdx,rax
    2358:	48 89 de             	mov    rsi,rbx
    235b:	e8 a0 09 00 00       	call   2d00 <digest_file.isra.1>
    2360:	84 c0                	test   al,al
    2362:	0f 85 ff 00 00 00    	jne    2467 <main+0xb67>
    2368:	c6 44 24 79 00       	mov    BYTE PTR [rsp+0x79],0x0
    236d:	48 83 44 24 18 08    	add    QWORD PTR [rsp+0x18],0x8
    2373:	48 8b 44 24 18       	mov    rax,QWORD PTR [rsp+0x18]
    2378:	48 39 44 24 48       	cmp    QWORD PTR [rsp+0x48],rax
    237d:	0f 87 2d f9 ff ff    	ja     1cb0 <main+0x3b0>
    2383:	80 3d 7e bd 20 00 00 	cmp    BYTE PTR [rip+0x20bd7e],0x0        # 20e108 <have_read_stdin>
    238a:	0f 85 70 03 00 00    	jne    2700 <main+0xe00>
    2390:	0f b6 44 24 79       	movzx  eax,BYTE PTR [rsp+0x79]
    2395:	83 f0 01             	xor    eax,0x1
    2398:	48 8b bc 24 38 01 00 	mov    rdi,QWORD PTR [rsp+0x138]
    239f:	00 
    23a0:	64 48 33 3c 25 28 00 	xor    rdi,QWORD PTR fs:0x28
    23a7:	00 00 
    23a9:	0f b6 c0             	movzx  eax,al
    23ac:	0f 85 31 06 00 00    	jne    29e3 <main+0x10e3>
    23b2:	48 81 c4 48 01 00 00 	add    rsp,0x148
    23b9:	5b                   	pop    rbx
    23ba:	5d                   	pop    rbp
    23bb:	41 5c                	pop    r12
    23bd:	41 5d                	pop    r13
    23bf:	41 5e                	pop    r14
    23c1:	41 5f                	pop    r15
    23c3:	c3                   	ret    
    23c4:	48 83 c1 01          	add    rcx,0x1
    23c8:	49 29 cf             	sub    r15,rcx
    23cb:	0f 84 73 fa ff ff    	je     1e44 <main+0x544>
    23d1:	4d 89 fa             	mov    r10,r15
    23d4:	48 01 cb             	add    rbx,rcx
    23d7:	49 83 ea 01          	sub    r10,0x1
    23db:	74 24                	je     2401 <main+0xb01>
    23dd:	42 80 7c 3b ff 29    	cmp    BYTE PTR [rbx+r15*1-0x1],0x29
    23e3:	75 16                	jne    23fb <main+0xafb>
    23e5:	e9 9f 02 00 00       	jmp    2689 <main+0xd89>
    23ea:	66 0f 1f 44 00 00    	nop    WORD PTR [rax+rax*1+0x0]
    23f0:	42 80 3c 13 29       	cmp    BYTE PTR [rbx+r10*1],0x29
    23f5:	0f 84 8e 02 00 00    	je     2689 <main+0xd89>
    23fb:	49 83 ea 01          	sub    r10,0x1
    23ff:	75 ef                	jne    23f0 <main+0xaf0>
    2401:	80 3b 29             	cmp    BYTE PTR [rbx],0x29
    2404:	0f 85 3a fa ff ff    	jne    1e44 <main+0x544>
    240a:	49 89 db             	mov    r11,rbx
    240d:	45 31 d2             	xor    r10d,r10d
    2410:	e9 78 02 00 00       	jmp    268d <main+0xd8d>
    2415:	48 8b 7c 24 20       	mov    rdi,QWORD PTR [rsp+0x20]
    241a:	48 8d 35 41 83 00 00 	lea    rsi,[rip+0x8341]        # a762 <_IO_stdin_used+0xe2>
    2421:	e8 ca 55 00 00       	call   79f0 <fopen_safer>
    2426:	48 85 c0             	test   rax,rax
    2429:	49 89 c4             	mov    r12,rax
    242c:	0f 85 de f8 ff ff    	jne    1d10 <main+0x410>
    2432:	48 8b 54 24 20       	mov    rdx,QWORD PTR [rsp+0x20]
    2437:	be 03 00 00 00       	mov    esi,0x3
    243c:	31 ff                	xor    edi,edi
    243e:	e8 8d 71 00 00       	call   95d0 <quotearg_n_style_colon>
    2443:	48 89 c3             	mov    rbx,rax
    2446:	e8 85 f1 ff ff       	call   15d0 <__errno_location@plt>
    244b:	8b 30                	mov    esi,DWORD PTR [rax]
    244d:	48 8d 15 01 8e 00 00 	lea    rdx,[rip+0x8e01]        # b255 <bin2hex.7156+0x25>
    2454:	31 c0                	xor    eax,eax
    2456:	48 89 d9             	mov    rcx,rbx
    2459:	31 ff                	xor    edi,edi
    245b:	e8 d0 f3 ff ff       	call   1830 <error@plt>
    2460:	31 c0                	xor    eax,eax
    2462:	e9 5c fd ff ff       	jmp    21c3 <main+0x8c3>
    2467:	48 8b 7c 24 20       	mov    rdi,QWORD PTR [rsp+0x20]
    246c:	be 5c 00 00 00       	mov    esi,0x5c
    2471:	e8 4a f2 ff ff       	call   16c0 <strchr@plt>
    2476:	48 85 c0             	test   rax,rax
    2479:	0f 84 d2 03 00 00    	je     2851 <main+0xf51>
    247f:	80 3d 8a bb 20 00 0a 	cmp    BYTE PTR [rip+0x20bb8a],0xa        # 20e010 <delim>
    2486:	0f 84 e0 02 00 00    	je     276c <main+0xe6c>
    248c:	80 7c 24 78 00       	cmp    BYTE PTR [rsp+0x78],0x0
    2491:	0f 85 d7 03 00 00    	jne    286e <main+0xf6e>
    2497:	48 8b 05 5a bc 20 00 	mov    rax,QWORD PTR [rip+0x20bc5a]        # 20e0f8 <digest_hex_bytes>
    249e:	31 ed                	xor    ebp,ebp
    24a0:	48 d1 e8             	shr    rax,1
    24a3:	74 3d                	je     24e2 <main+0xbe2>
    24a5:	45 31 e4             	xor    r12d,r12d
    24a8:	0f 1f 84 00 00 00 00 	nop    DWORD PTR [rax+rax*1+0x0]
    24af:	00 
    24b0:	42 0f b6 14 23       	movzx  edx,BYTE PTR [rbx+r12*1]
    24b5:	48 8d 35 3b 83 00 00 	lea    rsi,[rip+0x833b]        # a7f7 <_IO_stdin_used+0x177>
    24bc:	31 c0                	xor    eax,eax
    24be:	bf 01 00 00 00       	mov    edi,0x1
    24c3:	49 83 c4 01          	add    r12,0x1
    24c7:	e8 44 f3 ff ff       	call   1810 <__printf_chk@plt>
    24cc:	48 8b 05 25 bc 20 00 	mov    rax,QWORD PTR [rip+0x20bc25]        # 20e0f8 <digest_hex_bytes>
    24d3:	48 d1 e8             	shr    rax,1
    24d6:	4c 39 e0             	cmp    rax,r12
    24d9:	77 d5                	ja     24b0 <main+0xbb0>
    24db:	80 7c 24 78 00       	cmp    BYTE PTR [rsp+0x78],0x0
    24e0:	75 51                	jne    2533 <main+0xc33>
    24e2:	48 8b 3d bf bb 20 00 	mov    rdi,QWORD PTR [rip+0x20bbbf]        # 20e0a8 <stdout@@GLIBC_2.2.5>
    24e9:	48 8b 47 28          	mov    rax,QWORD PTR [rdi+0x28]
    24ed:	48 39 47 30          	cmp    QWORD PTR [rdi+0x30],rax
    24f1:	0f 86 99 04 00 00    	jbe    2990 <main+0x1090>
    24f7:	48 8d 50 01          	lea    rdx,[rax+0x1]
    24fb:	48 89 57 28          	mov    QWORD PTR [rdi+0x28],rdx
    24ff:	c6 00 20             	mov    BYTE PTR [rax],0x20
    2502:	48 8b 3d 9f bb 20 00 	mov    rdi,QWORD PTR [rip+0x20bb9f]        # 20e0a8 <stdout@@GLIBC_2.2.5>
    2509:	48 8b 47 28          	mov    rax,QWORD PTR [rdi+0x28]
    250d:	48 3b 47 30          	cmp    rax,QWORD PTR [rdi+0x30]
    2511:	0f 83 6b 04 00 00    	jae    2982 <main+0x1082>
    2517:	48 8d 50 01          	lea    rdx,[rax+0x1]
    251b:	48 89 57 28          	mov    QWORD PTR [rdi+0x28],rdx
    251f:	0f b6 7c 24 7b       	movzx  edi,BYTE PTR [rsp+0x7b]
    2524:	40 88 38             	mov    BYTE PTR [rax],dil
    2527:	48 8b 7c 24 20       	mov    rdi,QWORD PTR [rsp+0x20]
    252c:	89 ee                	mov    esi,ebp
    252e:	e8 fd 06 00 00       	call   2c30 <print_filename>
    2533:	48 8b 3d 6e bb 20 00 	mov    rdi,QWORD PTR [rip+0x20bb6e]        # 20e0a8 <stdout@@GLIBC_2.2.5>
    253a:	0f b6 15 cf ba 20 00 	movzx  edx,BYTE PTR [rip+0x20bacf]        # 20e010 <delim>
    2541:	48 8b 47 28          	mov    rax,QWORD PTR [rdi+0x28]
    2545:	48 3b 47 30          	cmp    rax,QWORD PTR [rdi+0x30]
    2549:	0f 83 08 04 00 00    	jae    2957 <main+0x1057>
    254f:	48 8d 48 01          	lea    rcx,[rax+0x1]
    2553:	48 89 4f 28          	mov    QWORD PTR [rdi+0x28],rcx
    2557:	88 10                	mov    BYTE PTR [rax],dl
    2559:	e9 0f fe ff ff       	jmp    236d <main+0xa6d>
    255e:	80 7c 24 7a 00       	cmp    BYTE PTR [rsp+0x7a],0x0
    2563:	0f 85 34 fc ff ff    	jne    219d <main+0x89d>
    2569:	e9 50 fc ff ff       	jmp    21be <main+0x8be>
    256e:	48 8b 54 24 20       	mov    rdx,QWORD PTR [rsp+0x20]
    2573:	be 03 00 00 00       	mov    esi,0x3
    2578:	31 ff                	xor    edi,edi
    257a:	e8 51 70 00 00       	call   95d0 <quotearg_n_style_colon>
    257f:	48 8d 35 49 82 00 00 	lea    rsi,[rip+0x8249]        # a7cf <_IO_stdin_used+0x14f>
    2586:	48 89 c3             	mov    rbx,rax
    2589:	ba 05 00 00 00       	mov    edx,0x5
    258e:	31 ff                	xor    edi,edi
    2590:	e8 cb f0 ff ff       	call   1660 <dcgettext@plt>
    2595:	48 89 d9             	mov    rcx,rbx
    2598:	48 89 c2             	mov    rdx,rax
    259b:	31 f6                	xor    esi,esi
    259d:	31 c0                	xor    eax,eax
    259f:	31 ff                	xor    edi,edi
    25a1:	e8 8a f2 ff ff       	call   1830 <error@plt>
    25a6:	31 c0                	xor    eax,eax
    25a8:	e9 16 fc ff ff       	jmp    21c3 <main+0x8c3>
    25ad:	80 3d 3f bb 20 00 00 	cmp    BYTE PTR [rip+0x20bb3f],0x0        # 20e0f3 <warn>
    25b4:	0f 85 83 f6 ff ff    	jne    1c3d <main+0x33d>
    25ba:	e9 06 f9 ff ff       	jmp    1ec5 <main+0x5c5>
    25bf:	31 d2                	xor    edx,edx
    25c1:	0f b6 05 2c bb 20 00 	movzx  eax,BYTE PTR [rip+0x20bb2c]        # 20e0f4 <status_only>
    25c8:	84 c0                	test   al,al
    25ca:	88 44 24 7a          	mov    BYTE PTR [rsp+0x7a],al
    25ce:	0f 85 b4 fa ff ff    	jne    2088 <main+0x788>
    25d4:	0f b6 05 16 bb 20 00 	movzx  eax,BYTE PTR [rip+0x20bb16]        # 20e0f1 <quiet>
    25db:	84 c0                	test   al,al
    25dd:	88 44 24 7a          	mov    BYTE PTR [rsp+0x7a],al
    25e1:	0f 85 a1 fa ff ff    	jne    2088 <main+0x788>
    25e7:	45 85 ff             	test   r15d,r15d
    25ea:	0f 85 21 04 00 00    	jne    2a11 <main+0x1111>
    25f0:	31 f6                	xor    esi,esi
    25f2:	48 89 df             	mov    rdi,rbx
    25f5:	44 88 4c 24 30       	mov    BYTE PTR [rsp+0x30],r9b
    25fa:	e8 31 06 00 00       	call   2c30 <print_filename>
    25ff:	44 0f b6 4c 24 30    	movzx  r9d,BYTE PTR [rsp+0x30]
    2605:	44 88 4c 24 7a       	mov    BYTE PTR [rsp+0x7a],r9b
    260a:	80 3d e0 ba 20 00 00 	cmp    BYTE PTR [rip+0x20bae0],0x0        # 20e0f1 <quiet>
    2611:	0f 85 71 fa ff ff    	jne    2088 <main+0x788>
    2617:	ba 05 00 00 00       	mov    edx,0x5
    261c:	48 8d 35 a9 81 00 00 	lea    rsi,[rip+0x81a9]        # a7cc <_IO_stdin_used+0x14c>
    2623:	e9 43 fa ff ff       	jmp    206b <main+0x76b>
    2628:	4c 89 e7             	mov    rdi,r12
    262b:	e8 50 7a 00 00       	call   a080 <rpl_fclose>
    2630:	85 c0                	test   eax,eax
    2632:	0f 84 89 fa ff ff    	je     20c1 <main+0x7c1>
    2638:	e9 f5 fd ff ff       	jmp    2432 <main+0xb32>
    263d:	48 89 ca             	mov    rdx,rcx
    2640:	e9 7c ff ff ff       	jmp    25c1 <main+0xcc1>
    2645:	48 8b 54 24 20       	mov    rdx,QWORD PTR [rsp+0x20]
    264a:	31 ff                	xor    edi,edi
    264c:	be 03 00 00 00       	mov    esi,0x3
    2651:	e8 7a 6f 00 00       	call   95d0 <quotearg_n_style_colon>
    2656:	48 8d 35 73 8a 00 00 	lea    rsi,[rip+0x8a73]        # b0d0 <_IO_stdin_used+0xa50>
    265d:	31 ff                	xor    edi,edi
    265f:	ba 05 00 00 00       	mov    edx,0x5
    2664:	48 89 c5             	mov    rbp,rax
    2667:	e8 f4 ef ff ff       	call   1660 <dcgettext@plt>
    266c:	4c 8d 05 21 80 00 00 	lea    r8,[rip+0x8021]        # a694 <_IO_stdin_used+0x14>
    2673:	48 89 c2             	mov    rdx,rax
    2676:	48 89 e9             	mov    rcx,rbp
    2679:	31 f6                	xor    esi,esi
    267b:	31 ff                	xor    edi,edi
    267d:	31 c0                	xor    eax,eax
    267f:	e8 ac f1 ff ff       	call   1830 <error@plt>
    2684:	e9 35 fb ff ff       	jmp    21be <main+0x8be>
    2689:	4e 8d 1c 13          	lea    r11,[rbx+r10*1]
    268d:	45 84 c9             	test   r9b,r9b
    2690:	0f 85 a8 02 00 00    	jne    293e <main+0x103e>
    2696:	49 83 c2 01          	add    r10,0x1
    269a:	41 c6 03 00          	mov    BYTE PTR [r11],0x0
    269e:	eb 04                	jmp    26a4 <main+0xda4>
    26a0:	49 83 c2 01          	add    r10,0x1
    26a4:	42 0f b6 04 13       	movzx  eax,BYTE PTR [rbx+r10*1]
    26a9:	3c 20                	cmp    al,0x20
    26ab:	74 f3                	je     26a0 <main+0xda0>
    26ad:	3c 09                	cmp    al,0x9
    26af:	74 ef                	je     26a0 <main+0xda0>
    26b1:	3c 3d                	cmp    al,0x3d
    26b3:	0f 85 8b f7 ff ff    	jne    1e44 <main+0x544>
    26b9:	4a 8d 54 13 01       	lea    rdx,[rbx+r10*1+0x1]
    26be:	0f b6 02             	movzx  eax,BYTE PTR [rdx]
    26c1:	49 89 d0             	mov    r8,rdx
    26c4:	48 8d 52 01          	lea    rdx,[rdx+0x1]
    26c8:	3c 20                	cmp    al,0x20
    26ca:	74 f2                	je     26be <main+0xdbe>
    26cc:	3c 09                	cmp    al,0x9
    26ce:	74 ee                	je     26be <main+0xdbe>
    26d0:	4c 89 c7             	mov    rdi,r8
    26d3:	4c 89 44 24 60       	mov    QWORD PTR [rsp+0x60],r8
    26d8:	e8 f3 04 00 00       	call   2bd0 <hex_digits>
    26dd:	4c 8b 44 24 60       	mov    r8,QWORD PTR [rsp+0x60]
    26e2:	eb 7b                	jmp    275f <main+0xe5f>
    26e4:	83 ee 01             	sub    esi,0x1
    26e7:	0f 84 ad f8 ff ff    	je     1f9a <main+0x69a>
    26ed:	c7 05 1d b9 20 00 00 	mov    DWORD PTR [rip+0x20b91d],0x0        # 20e014 <bsd_reversed>
    26f4:	00 00 00 
    26f7:	48 8d 42 02          	lea    rax,[rdx+0x2]
    26fb:	e9 9a f8 ff ff       	jmp    1f9a <main+0x69a>
    2700:	48 8b 3d a9 b9 20 00 	mov    rdi,QWORD PTR [rip+0x20b9a9]        # 20e0b0 <stdin@@GLIBC_2.2.5>
    2707:	e8 74 79 00 00       	call   a080 <rpl_fclose>
    270c:	83 c0 01             	add    eax,0x1
    270f:	0f 85 7b fc ff ff    	jne    2390 <main+0xa90>
    2715:	48 8d 35 6a 80 00 00 	lea    rsi,[rip+0x806a]        # a786 <_IO_stdin_used+0x106>
    271c:	ba 05 00 00 00       	mov    edx,0x5
    2721:	31 ff                	xor    edi,edi
    2723:	e8 38 ef ff ff       	call   1660 <dcgettext@plt>
    2728:	48 89 c3             	mov    rbx,rax
    272b:	e8 a0 ee ff ff       	call   15d0 <__errno_location@plt>
    2730:	8b 30                	mov    esi,DWORD PTR [rax]
    2732:	48 89 da             	mov    rdx,rbx
    2735:	bf 01 00 00 00       	mov    edi,0x1
    273a:	31 c0                	xor    eax,eax
    273c:	e8 ef f0 ff ff       	call   1830 <error@plt>
    2741:	4c 89 fe             	mov    rsi,r15
    2744:	48 89 df             	mov    rdi,rbx
    2747:	4c 89 44 24 60       	mov    QWORD PTR [rsp+0x60],r8
    274c:	48 29 c6             	sub    rsi,rax
    274f:	e8 fc 03 00 00       	call   2b50 <filename_unescape>
    2754:	4c 8b 44 24 60       	mov    r8,QWORD PTR [rsp+0x60]
    2759:	48 85 c0             	test   rax,rax
    275c:	0f 95 c0             	setne  al
    275f:	84 c0                	test   al,al
    2761:	0f 85 3f f8 ff ff    	jne    1fa6 <main+0x6a6>
    2767:	e9 d8 f6 ff ff       	jmp    1e44 <main+0x544>
    276c:	80 7c 24 78 00       	cmp    BYTE PTR [rsp+0x78],0x0
    2771:	0f 84 a0 00 00 00    	je     2817 <main+0xf17>
    2777:	48 8b 3d 2a b9 20 00 	mov    rdi,QWORD PTR [rip+0x20b92a]        # 20e0a8 <stdout@@GLIBC_2.2.5>
    277e:	48 8b 47 28          	mov    rax,QWORD PTR [rdi+0x28]
    2782:	48 3b 47 30          	cmp    rax,QWORD PTR [rdi+0x30]
    2786:	0f 83 36 02 00 00    	jae    29c2 <main+0x10c2>
    278c:	48 8d 50 01          	lea    rdx,[rax+0x1]
    2790:	48 89 57 28          	mov    QWORD PTR [rdi+0x28],rdx
    2794:	c6 00 5c             	mov    BYTE PTR [rax],0x5c
    2797:	48 8b 0d 0a b9 20 00 	mov    rcx,QWORD PTR [rip+0x20b90a]        # 20e0a8 <stdout@@GLIBC_2.2.5>
    279e:	48 8d 3d ef 7e 00 00 	lea    rdi,[rip+0x7eef]        # a694 <_IO_stdin_used+0x14>
    27a5:	ba 06 00 00 00       	mov    edx,0x6
    27aa:	be 01 00 00 00       	mov    esi,0x1
    27af:	e8 1c f0 ff ff       	call   17d0 <fwrite_unlocked@plt>
    27b4:	48 8b 0d ed b8 20 00 	mov    rcx,QWORD PTR [rip+0x20b8ed]        # 20e0a8 <stdout@@GLIBC_2.2.5>
    27bb:	48 8d 3d 3a 80 00 00 	lea    rdi,[rip+0x803a]        # a7fc <_IO_stdin_used+0x17c>
    27c2:	ba 02 00 00 00       	mov    edx,0x2
    27c7:	be 01 00 00 00       	mov    esi,0x1
    27cc:	e8 ff ef ff ff       	call   17d0 <fwrite_unlocked@plt>
    27d1:	48 8b 7c 24 20       	mov    rdi,QWORD PTR [rsp+0x20]
    27d6:	be 01 00 00 00       	mov    esi,0x1
    27db:	e8 50 04 00 00       	call   2c30 <print_filename>
    27e0:	48 8b 0d c1 b8 20 00 	mov    rcx,QWORD PTR [rip+0x20b8c1]        # 20e0a8 <stdout@@GLIBC_2.2.5>
    27e7:	48 8d 3d 11 80 00 00 	lea    rdi,[rip+0x8011]        # a7ff <_IO_stdin_used+0x17f>
    27ee:	ba 04 00 00 00       	mov    edx,0x4
    27f3:	be 01 00 00 00       	mov    esi,0x1
    27f8:	e8 d3 ef ff ff       	call   17d0 <fwrite_unlocked@plt>
    27fd:	48 8b 05 f4 b8 20 00 	mov    rax,QWORD PTR [rip+0x20b8f4]        # 20e0f8 <digest_hex_bytes>
    2804:	bd 01 00 00 00       	mov    ebp,0x1
    2809:	48 d1 e8             	shr    rax,1
    280c:	0f 85 93 fc ff ff    	jne    24a5 <main+0xba5>
    2812:	e9 c4 fc ff ff       	jmp    24db <main+0xbdb>
    2817:	48 8b 3d 8a b8 20 00 	mov    rdi,QWORD PTR [rip+0x20b88a]        # 20e0a8 <stdout@@GLIBC_2.2.5>
    281e:	48 8b 47 28          	mov    rax,QWORD PTR [rdi+0x28]
    2822:	48 3b 47 30          	cmp    rax,QWORD PTR [rdi+0x30]
    2826:	0f 83 47 01 00 00    	jae    2973 <main+0x1073>
    282c:	48 8d 50 01          	lea    rdx,[rax+0x1]
    2830:	bd 01 00 00 00       	mov    ebp,0x1
    2835:	48 89 57 28          	mov    QWORD PTR [rdi+0x28],rdx
    2839:	c6 00 5c             	mov    BYTE PTR [rax],0x5c
    283c:	48 8b 05 b5 b8 20 00 	mov    rax,QWORD PTR [rip+0x20b8b5]        # 20e0f8 <digest_hex_bytes>
    2843:	48 d1 e8             	shr    rax,1
    2846:	0f 85 59 fc ff ff    	jne    24a5 <main+0xba5>
    284c:	e9 91 fc ff ff       	jmp    24e2 <main+0xbe2>
    2851:	48 8b 7c 24 20       	mov    rdi,QWORD PTR [rsp+0x20]
    2856:	be 0a 00 00 00       	mov    esi,0xa
    285b:	e8 60 ee ff ff       	call   16c0 <strchr@plt>
    2860:	48 85 c0             	test   rax,rax
    2863:	0f 85 16 fc ff ff    	jne    247f <main+0xb7f>
    2869:	e9 1e fc ff ff       	jmp    248c <main+0xb8c>
    286e:	48 8b 0d 33 b8 20 00 	mov    rcx,QWORD PTR [rip+0x20b833]        # 20e0a8 <stdout@@GLIBC_2.2.5>
    2875:	48 8d 3d 18 7e 00 00 	lea    rdi,[rip+0x7e18]        # a694 <_IO_stdin_used+0x14>
    287c:	ba 06 00 00 00       	mov    edx,0x6
    2881:	be 01 00 00 00       	mov    esi,0x1
    2886:	31 ed                	xor    ebp,ebp
    2888:	e8 43 ef ff ff       	call   17d0 <fwrite_unlocked@plt>
    288d:	48 8b 0d 14 b8 20 00 	mov    rcx,QWORD PTR [rip+0x20b814]        # 20e0a8 <stdout@@GLIBC_2.2.5>
    2894:	48 8d 3d 61 7f 00 00 	lea    rdi,[rip+0x7f61]        # a7fc <_IO_stdin_used+0x17c>
    289b:	ba 02 00 00 00       	mov    edx,0x2
    28a0:	be 01 00 00 00       	mov    esi,0x1
    28a5:	e8 26 ef ff ff       	call   17d0 <fwrite_unlocked@plt>
    28aa:	48 8b 7c 24 20       	mov    rdi,QWORD PTR [rsp+0x20]
    28af:	31 f6                	xor    esi,esi
    28b1:	e8 7a 03 00 00       	call   2c30 <print_filename>
    28b6:	48 8b 0d eb b7 20 00 	mov    rcx,QWORD PTR [rip+0x20b7eb]        # 20e0a8 <stdout@@GLIBC_2.2.5>
    28bd:	48 8d 3d 3b 7f 00 00 	lea    rdi,[rip+0x7f3b]        # a7ff <_IO_stdin_used+0x17f>
    28c4:	ba 04 00 00 00       	mov    edx,0x4
    28c9:	be 01 00 00 00       	mov    esi,0x1
    28ce:	e8 fd ee ff ff       	call   17d0 <fwrite_unlocked@plt>
    28d3:	48 8b 05 1e b8 20 00 	mov    rax,QWORD PTR [rip+0x20b81e]        # 20e0f8 <digest_hex_bytes>
    28da:	48 d1 e8             	shr    rax,1
    28dd:	0f 85 c2 fb ff ff    	jne    24a5 <main+0xba5>
    28e3:	e9 4b fc ff ff       	jmp    2533 <main+0xc33>
    28e8:	31 f6                	xor    esi,esi
    28ea:	48 89 df             	mov    rdi,rbx
    28ed:	e8 3e 03 00 00       	call   2c30 <print_filename>
    28f2:	e9 36 fa ff ff       	jmp    232d <main+0xa2d>
    28f7:	48 8b 54 24 20       	mov    rdx,QWORD PTR [rsp+0x20]
    28fc:	31 ff                	xor    edi,edi
    28fe:	be 03 00 00 00       	mov    esi,0x3
    2903:	e8 c8 6c 00 00       	call   95d0 <quotearg_n_style_colon>
    2908:	48 8d 35 cf 7e 00 00 	lea    rsi,[rip+0x7ecf]        # a7de <_IO_stdin_used+0x15e>
    290f:	48 89 c5             	mov    rbp,rax
    2912:	31 ff                	xor    edi,edi
    2914:	ba 05 00 00 00       	mov    edx,0x5
    2919:	e8 42 ed ff ff       	call   1660 <dcgettext@plt>
    291e:	48 89 e9             	mov    rcx,rbp
    2921:	48 89 c2             	mov    rdx,rax
    2924:	31 f6                	xor    esi,esi
    2926:	31 ff                	xor    edi,edi
    2928:	31 c0                	xor    eax,eax
    292a:	e8 01 ef ff ff       	call   1830 <error@plt>
    292f:	e9 8a f8 ff ff       	jmp    21be <main+0x8be>
    2934:	c6 44 24 79 01       	mov    BYTE PTR [rsp+0x79],0x1
    2939:	e9 45 fa ff ff       	jmp    2383 <main+0xa83>
    293e:	4c 89 d6             	mov    rsi,r10
    2941:	48 89 df             	mov    rdi,rbx
    2944:	e8 07 02 00 00       	call   2b50 <filename_unescape>
    2949:	48 85 c0             	test   rax,rax
    294c:	0f 85 44 fd ff ff    	jne    2696 <main+0xd96>
    2952:	e9 ed f4 ff ff       	jmp    1e44 <main+0x544>
    2957:	0f b6 f2             	movzx  esi,dl
    295a:	e8 71 ed ff ff       	call   16d0 <__overflow@plt>
    295f:	e9 09 fa ff ff       	jmp    236d <main+0xa6d>
    2964:	be 5c 00 00 00       	mov    esi,0x5c
    2969:	e8 62 ed ff ff       	call   16d0 <__overflow@plt>
    296e:	e9 e1 f6 ff ff       	jmp    2054 <main+0x754>
    2973:	be 5c 00 00 00       	mov    esi,0x5c
    2978:	e8 53 ed ff ff       	call   16d0 <__overflow@plt>
    297d:	e9 7b fe ff ff       	jmp    27fd <main+0xefd>
    2982:	8b 74 24 7c          	mov    esi,DWORD PTR [rsp+0x7c]
    2986:	e8 45 ed ff ff       	call   16d0 <__overflow@plt>
    298b:	e9 97 fb ff ff       	jmp    2527 <main+0xc27>
    2990:	be 20 00 00 00       	mov    esi,0x20
    2995:	e8 36 ed ff ff       	call   16d0 <__overflow@plt>
    299a:	e9 63 fb ff ff       	jmp    2502 <main+0xc02>
    299f:	be 5c 00 00 00       	mov    esi,0x5c
    29a4:	48 89 4c 24 60       	mov    QWORD PTR [rsp+0x60],rcx
    29a9:	48 89 54 24 30       	mov    QWORD PTR [rsp+0x30],rdx
    29ae:	e8 1d ed ff ff       	call   16d0 <__overflow@plt>
    29b3:	48 8b 54 24 30       	mov    rdx,QWORD PTR [rsp+0x30]
    29b8:	48 8b 4c 24 60       	mov    rcx,QWORD PTR [rsp+0x60]
    29bd:	e9 41 f9 ff ff       	jmp    2303 <main+0xa03>
    29c2:	be 5c 00 00 00       	mov    esi,0x5c
    29c7:	e8 04 ed ff ff       	call   16d0 <__overflow@plt>
    29cc:	e9 c6 fd ff ff       	jmp    2797 <main+0xe97>
    29d1:	3d 7e ff ff ff       	cmp    eax,0xffffff7e
    29d6:	0f 85 f4 f1 ff ff    	jne    1bd0 <main+0x2d0>
    29dc:	31 ff                	xor    edi,edi
    29de:	e8 bd 04 00 00       	call   2ea0 <usage>
    29e3:	e8 a8 ec ff ff       	call   1690 <__stack_chk_fail@plt>
    29e8:	80 3d 05 b7 20 00 00 	cmp    BYTE PTR [rip+0x20b705],0x0        # 20e0f4 <status_only>
    29ef:	0f 84 a2 f1 ff ff    	je     1b97 <main+0x297>
    29f5:	80 7c 24 2b 00       	cmp    BYTE PTR [rsp+0x2b],0x0
    29fa:	0f 85 ad fb ff ff    	jne    25ad <main+0xcad>
    2a00:	ba 05 00 00 00       	mov    edx,0x5
    2a05:	48 8d 35 94 85 00 00 	lea    rsi,[rip+0x8594]        # afa0 <_IO_stdin_used+0x920>
    2a0c:	e9 aa f1 ff ff       	jmp    1bbb <main+0x2bb>
    2a11:	44 88 4c 24 7a       	mov    BYTE PTR [rsp+0x7a],r9b
    2a16:	e9 c8 f8 ff ff       	jmp    22e3 <main+0x9e3>
    2a1b:	ba 05 00 00 00       	mov    edx,0x5
    2a20:	48 8d 35 39 84 00 00 	lea    rsi,[rip+0x8439]        # ae60 <_IO_stdin_used+0x7e0>
    2a27:	e9 8f f1 ff ff       	jmp    1bbb <main+0x2bb>
    2a2c:	ba 05 00 00 00       	mov    edx,0x5
    2a31:	48 8d 35 20 85 00 00 	lea    rsi,[rip+0x8520]        # af58 <_IO_stdin_used+0x8d8>
    2a38:	e9 7e f1 ff ff       	jmp    1bbb <main+0x2bb>
    2a3d:	0f 1f 00             	nop    DWORD PTR [rax]

0000000000002a40 <_start>:
    2a40:	31 ed                	xor    ebp,ebp
    2a42:	49 89 d1             	mov    r9,rdx
    2a45:	5e                   	pop    rsi
    2a46:	48 89 e2             	mov    rdx,rsp
    2a49:	48 83 e4 f0          	and    rsp,0xfffffffffffffff0
    2a4d:	50                   	push   rax
    2a4e:	54                   	push   rsp
    2a4f:	4c 8d 05 ea 7b 00 00 	lea    r8,[rip+0x7bea]        # a640 <__libc_csu_fini>
    2a56:	48 8d 0d 73 7b 00 00 	lea    rcx,[rip+0x7b73]        # a5d0 <__libc_csu_init>
    2a5d:	48 8d 3d 9c ee ff ff 	lea    rdi,[rip+0xffffffffffffee9c]        # 1900 <main>
    2a64:	ff 15 5e b5 20 00    	call   QWORD PTR [rip+0x20b55e]        # 20dfc8 <__libc_start_main@GLIBC_2.2.5>
    2a6a:	f4                   	hlt    
    2a6b:	0f 1f 44 00 00       	nop    DWORD PTR [rax+rax*1+0x0]

0000000000002a70 <deregister_tm_clones>:
    2a70:	48 8d 3d 29 b6 20 00 	lea    rdi,[rip+0x20b629]        # 20e0a0 <__progname@@GLIBC_2.2.5>
    2a77:	55                   	push   rbp
    2a78:	48 8d 05 21 b6 20 00 	lea    rax,[rip+0x20b621]        # 20e0a0 <__progname@@GLIBC_2.2.5>
    2a7f:	48 39 f8             	cmp    rax,rdi
    2a82:	48 89 e5             	mov    rbp,rsp
    2a85:	74 19                	je     2aa0 <deregister_tm_clones+0x30>
    2a87:	48 8b 05 32 b5 20 00 	mov    rax,QWORD PTR [rip+0x20b532]        # 20dfc0 <_ITM_deregisterTMCloneTable>
    2a8e:	48 85 c0             	test   rax,rax
    2a91:	74 0d                	je     2aa0 <deregister_tm_clones+0x30>
    2a93:	5d                   	pop    rbp
    2a94:	ff e0                	jmp    rax
    2a96:	66 2e 0f 1f 84 00 00 	nop    WORD PTR cs:[rax+rax*1+0x0]
    2a9d:	00 00 00 
    2aa0:	5d                   	pop    rbp
    2aa1:	c3                   	ret    
    2aa2:	0f 1f 40 00          	nop    DWORD PTR [rax+0x0]
    2aa6:	66 2e 0f 1f 84 00 00 	nop    WORD PTR cs:[rax+rax*1+0x0]
    2aad:	00 00 00 

0000000000002ab0 <register_tm_clones>:
    2ab0:	48 8d 3d e9 b5 20 00 	lea    rdi,[rip+0x20b5e9]        # 20e0a0 <__progname@@GLIBC_2.2.5>
    2ab7:	48 8d 35 e2 b5 20 00 	lea    rsi,[rip+0x20b5e2]        # 20e0a0 <__progname@@GLIBC_2.2.5>
    2abe:	55                   	push   rbp
    2abf:	48 29 fe             	sub    rsi,rdi
    2ac2:	48 89 e5             	mov    rbp,rsp
    2ac5:	48 c1 fe 03          	sar    rsi,0x3
    2ac9:	48 89 f0             	mov    rax,rsi
    2acc:	48 c1 e8 3f          	shr    rax,0x3f
    2ad0:	48 01 c6             	add    rsi,rax
    2ad3:	48 d1 fe             	sar    rsi,1
    2ad6:	74 18                	je     2af0 <register_tm_clones+0x40>
    2ad8:	48 8b 05 f9 b4 20 00 	mov    rax,QWORD PTR [rip+0x20b4f9]        # 20dfd8 <_ITM_registerTMCloneTable>
    2adf:	48 85 c0             	test   rax,rax
    2ae2:	74 0c                	je     2af0 <register_tm_clones+0x40>
    2ae4:	5d                   	pop    rbp
    2ae5:	ff e0                	jmp    rax
    2ae7:	66 0f 1f 84 00 00 00 	nop    WORD PTR [rax+rax*1+0x0]
    2aee:	00 00 
    2af0:	5d                   	pop    rbp
    2af1:	c3                   	ret    
    2af2:	0f 1f 40 00          	nop    DWORD PTR [rax+0x0]
    2af6:	66 2e 0f 1f 84 00 00 	nop    WORD PTR cs:[rax+rax*1+0x0]
    2afd:	00 00 00 

0000000000002b00 <__do_global_dtors_aux>:
    2b00:	80 3d e1 b5 20 00 00 	cmp    BYTE PTR [rip+0x20b5e1],0x0        # 20e0e8 <completed.7697>
    2b07:	75 2f                	jne    2b38 <__do_global_dtors_aux+0x38>
    2b09:	48 83 3d cf b4 20 00 	cmp    QWORD PTR [rip+0x20b4cf],0x0        # 20dfe0 <__cxa_finalize@GLIBC_2.2.5>
    2b10:	00 
    2b11:	55                   	push   rbp
    2b12:	48 89 e5             	mov    rbp,rsp
    2b15:	74 0c                	je     2b23 <__do_global_dtors_aux+0x23>
    2b17:	48 8b 3d ea b4 20 00 	mov    rdi,QWORD PTR [rip+0x20b4ea]        # 20e008 <__dso_handle>
    2b1e:	e8 cd ed ff ff       	call   18f0 <__cxa_finalize@plt>
    2b23:	e8 48 ff ff ff       	call   2a70 <deregister_tm_clones>
    2b28:	c6 05 b9 b5 20 00 01 	mov    BYTE PTR [rip+0x20b5b9],0x1        # 20e0e8 <completed.7697>
    2b2f:	5d                   	pop    rbp
    2b30:	c3                   	ret    
    2b31:	0f 1f 80 00 00 00 00 	nop    DWORD PTR [rax+0x0]
    2b38:	f3 c3                	repz ret 
    2b3a:	66 0f 1f 44 00 00    	nop    WORD PTR [rax+rax*1+0x0]

0000000000002b40 <frame_dummy>:
    2b40:	55                   	push   rbp
    2b41:	48 89 e5             	mov    rbp,rsp
    2b44:	5d                   	pop    rbp
    2b45:	e9 66 ff ff ff       	jmp    2ab0 <register_tm_clones>
    2b4a:	66 0f 1f 44 00 00    	nop    WORD PTR [rax+rax*1+0x0]

0000000000002b50 <filename_unescape>:
    2b50:	31 d2                	xor    edx,edx
    2b52:	48 85 f6             	test   rsi,rsi
    2b55:	48 8d 4f 01          	lea    rcx,[rdi+0x1]
    2b59:	4c 8d 46 ff          	lea    r8,[rsi-0x1]
    2b5d:	74 58                	je     2bb7 <filename_unescape+0x67>
    2b5f:	0f b6 04 17          	movzx  eax,BYTE PTR [rdi+rdx*1]
    2b63:	84 c0                	test   al,al
    2b65:	74 29                	je     2b90 <filename_unescape+0x40>
    2b67:	3c 5c                	cmp    al,0x5c
    2b69:	75 2d                	jne    2b98 <filename_unescape+0x48>
    2b6b:	49 39 d0             	cmp    r8,rdx
    2b6e:	74 20                	je     2b90 <filename_unescape+0x40>
    2b70:	48 83 c2 01          	add    rdx,0x1
    2b74:	0f b6 04 17          	movzx  eax,BYTE PTR [rdi+rdx*1]
    2b78:	3c 5c                	cmp    al,0x5c
    2b7a:	74 44                	je     2bc0 <filename_unescape+0x70>
    2b7c:	3c 6e                	cmp    al,0x6e
    2b7e:	75 10                	jne    2b90 <filename_unescape+0x40>
    2b80:	49 89 c9             	mov    r9,rcx
    2b83:	c6 41 ff 0a          	mov    BYTE PTR [rcx-0x1],0xa
    2b87:	eb 15                	jmp    2b9e <filename_unescape+0x4e>
    2b89:	0f 1f 80 00 00 00 00 	nop    DWORD PTR [rax+0x0]
    2b90:	31 c0                	xor    eax,eax
    2b92:	c3                   	ret    
    2b93:	0f 1f 44 00 00       	nop    DWORD PTR [rax+rax*1+0x0]
    2b98:	49 89 c9             	mov    r9,rcx
    2b9b:	88 41 ff             	mov    BYTE PTR [rcx-0x1],al
    2b9e:	48 83 c2 01          	add    rdx,0x1
    2ba2:	48 83 c1 01          	add    rcx,0x1
    2ba6:	48 39 d6             	cmp    rsi,rdx
    2ba9:	77 b4                	ja     2b5f <filename_unescape+0xf>
    2bab:	48 01 fe             	add    rsi,rdi
    2bae:	49 39 f1             	cmp    r9,rsi
    2bb1:	73 04                	jae    2bb7 <filename_unescape+0x67>
    2bb3:	41 c6 01 00          	mov    BYTE PTR [r9],0x0
    2bb7:	48 89 f8             	mov    rax,rdi
    2bba:	c3                   	ret    
    2bbb:	0f 1f 44 00 00       	nop    DWORD PTR [rax+rax*1+0x0]
    2bc0:	49 89 c9             	mov    r9,rcx
    2bc3:	c6 41 ff 5c          	mov    BYTE PTR [rcx-0x1],0x5c
    2bc7:	eb d5                	jmp    2b9e <filename_unescape+0x4e>
    2bc9:	0f 1f 80 00 00 00 00 	nop    DWORD PTR [rax+0x0]

0000000000002bd0 <hex_digits>:
    2bd0:	55                   	push   rbp
    2bd1:	53                   	push   rbx
    2bd2:	48 83 ec 08          	sub    rsp,0x8
    2bd6:	48 8b 2d 1b b5 20 00 	mov    rbp,QWORD PTR [rip+0x20b51b]        # 20e0f8 <digest_hex_bytes>
    2bdd:	48 85 ed             	test   rbp,rbp
    2be0:	74 3e                	je     2c20 <hex_digits+0x50>
    2be2:	48 89 fb             	mov    rbx,rdi
    2be5:	e8 f6 ec ff ff       	call   18e0 <__ctype_b_loc@plt>
    2bea:	48 8b 08             	mov    rcx,QWORD PTR [rax]
    2bed:	48 89 d8             	mov    rax,rbx
    2bf0:	eb 13                	jmp    2c05 <hex_digits+0x35>
    2bf2:	66 0f 1f 44 00 00    	nop    WORD PTR [rax+rax*1+0x0]
    2bf8:	48 83 c0 01          	add    rax,0x1
    2bfc:	89 c2                	mov    edx,eax
    2bfe:	29 da                	sub    edx,ebx
    2c00:	48 39 ea             	cmp    rdx,rbp
    2c03:	73 1e                	jae    2c23 <hex_digits+0x53>
    2c05:	0f b6 10             	movzx  edx,BYTE PTR [rax]
    2c08:	f6 44 51 01 10       	test   BYTE PTR [rcx+rdx*2+0x1],0x10
    2c0d:	75 e9                	jne    2bf8 <hex_digits+0x28>
    2c0f:	48 83 c4 08          	add    rsp,0x8
    2c13:	31 c0                	xor    eax,eax
    2c15:	5b                   	pop    rbx
    2c16:	5d                   	pop    rbp
    2c17:	c3                   	ret    
    2c18:	0f 1f 84 00 00 00 00 	nop    DWORD PTR [rax+rax*1+0x0]
    2c1f:	00 
    2c20:	48 89 f8             	mov    rax,rdi
    2c23:	80 38 00             	cmp    BYTE PTR [rax],0x0
    2c26:	0f 94 c0             	sete   al
    2c29:	48 83 c4 08          	add    rsp,0x8
    2c2d:	5b                   	pop    rbx
    2c2e:	5d                   	pop    rbp
    2c2f:	c3                   	ret    

0000000000002c30 <print_filename>:
    2c30:	55                   	push   rbp
    2c31:	53                   	push   rbx
    2c32:	48 89 fb             	mov    rbx,rdi
    2c35:	48 83 ec 08          	sub    rsp,0x8
    2c39:	40 84 f6             	test   sil,sil
    2c3c:	0f 84 8e 00 00 00    	je     2cd0 <print_filename+0xa0>
    2c42:	0f b6 37             	movzx  esi,BYTE PTR [rdi]
    2c45:	48 8d 2d 38 7a 00 00 	lea    rbp,[rip+0x7a38]        # a684 <_IO_stdin_used+0x4>
    2c4c:	40 84 f6             	test   sil,sil
    2c4f:	75 29                	jne    2c7a <print_filename+0x4a>
    2c51:	eb 5b                	jmp    2cae <print_filename+0x7e>
    2c53:	0f 1f 44 00 00       	nop    DWORD PTR [rax+rax*1+0x0]
    2c58:	48 8d 3d 28 7a 00 00 	lea    rdi,[rip+0x7a28]        # a687 <_IO_stdin_used+0x7>
    2c5f:	ba 02 00 00 00       	mov    edx,0x2
    2c64:	be 01 00 00 00       	mov    esi,0x1
    2c69:	e8 62 eb ff ff       	call   17d0 <fwrite_unlocked@plt>
    2c6e:	48 83 c3 01          	add    rbx,0x1
    2c72:	0f b6 33             	movzx  esi,BYTE PTR [rbx]
    2c75:	40 84 f6             	test   sil,sil
    2c78:	74 34                	je     2cae <print_filename+0x7e>
    2c7a:	40 80 fe 0a          	cmp    sil,0xa
    2c7e:	48 8b 0d 23 b4 20 00 	mov    rcx,QWORD PTR [rip+0x20b423]        # 20e0a8 <stdout@@GLIBC_2.2.5>
    2c85:	74 31                	je     2cb8 <print_filename+0x88>
    2c87:	40 80 fe 5c          	cmp    sil,0x5c
    2c8b:	74 cb                	je     2c58 <print_filename+0x28>
    2c8d:	48 8b 41 28          	mov    rax,QWORD PTR [rcx+0x28]
    2c91:	48 3b 41 30          	cmp    rax,QWORD PTR [rcx+0x30]
    2c95:	73 51                	jae    2ce8 <print_filename+0xb8>
    2c97:	48 8d 50 01          	lea    rdx,[rax+0x1]
    2c9b:	48 83 c3 01          	add    rbx,0x1
    2c9f:	48 89 51 28          	mov    QWORD PTR [rcx+0x28],rdx
    2ca3:	40 88 30             	mov    BYTE PTR [rax],sil
    2ca6:	0f b6 33             	movzx  esi,BYTE PTR [rbx]
    2ca9:	40 84 f6             	test   sil,sil
    2cac:	75 cc                	jne    2c7a <print_filename+0x4a>
    2cae:	48 83 c4 08          	add    rsp,0x8
    2cb2:	5b                   	pop    rbx
    2cb3:	5d                   	pop    rbp
    2cb4:	c3                   	ret    
    2cb5:	0f 1f 00             	nop    DWORD PTR [rax]
    2cb8:	ba 02 00 00 00       	mov    edx,0x2
    2cbd:	be 01 00 00 00       	mov    esi,0x1
    2cc2:	48 89 ef             	mov    rdi,rbp
    2cc5:	e8 06 eb ff ff       	call   17d0 <fwrite_unlocked@plt>
    2cca:	eb a2                	jmp    2c6e <print_filename+0x3e>
    2ccc:	0f 1f 40 00          	nop    DWORD PTR [rax+0x0]
    2cd0:	48 8b 35 d1 b3 20 00 	mov    rsi,QWORD PTR [rip+0x20b3d1]        # 20e0a8 <stdout@@GLIBC_2.2.5>
    2cd7:	48 83 c4 08          	add    rsp,0x8
    2cdb:	5b                   	pop    rbx
    2cdc:	5d                   	pop    rbp
    2cdd:	e9 5e ea ff ff       	jmp    1740 <fputs_unlocked@plt>
    2ce2:	66 0f 1f 44 00 00    	nop    WORD PTR [rax+rax*1+0x0]
    2ce8:	48 89 cf             	mov    rdi,rcx
    2ceb:	e8 e0 e9 ff ff       	call   16d0 <__overflow@plt>
    2cf0:	e9 79 ff ff ff       	jmp    2c6e <print_filename+0x3e>
    2cf5:	90                   	nop
    2cf6:	66 2e 0f 1f 84 00 00 	nop    WORD PTR cs:[rax+rax*1+0x0]
    2cfd:	00 00 00 

0000000000002d00 <digest_file.isra.1>:
    2d00:	41 55                	push   r13
    2d02:	41 54                	push   r12
    2d04:	b9 02 00 00 00       	mov    ecx,0x2
    2d09:	55                   	push   rbp
    2d0a:	53                   	push   rbx
    2d0b:	48 89 fd             	mov    rbp,rdi
    2d0e:	48 8d 3d 0d 86 00 00 	lea    rdi,[rip+0x860d]        # b322 <fillbuf+0xc2>
    2d15:	49 89 f4             	mov    r12,rsi
    2d18:	48 89 ee             	mov    rsi,rbp
    2d1b:	48 83 ec 08          	sub    rsp,0x8
    2d1f:	f3 a6                	repz cmps BYTE PTR ds:[rsi],BYTE PTR es:[rdi]
    2d21:	c6 02 00             	mov    BYTE PTR [rdx],0x0
    2d24:	0f 97 c0             	seta   al
    2d27:	1c 00                	sbb    al,0x0
    2d29:	84 c0                	test   al,al
    2d2b:	0f 85 8f 00 00 00    	jne    2dc0 <digest_file.isra.1+0xc0>
    2d31:	48 8b 1d 78 b3 20 00 	mov    rbx,QWORD PTR [rip+0x20b378]        # 20e0b0 <stdin@@GLIBC_2.2.5>
    2d38:	be 02 00 00 00       	mov    esi,0x2
    2d3d:	c6 05 c4 b3 20 00 01 	mov    BYTE PTR [rip+0x20b3c4],0x1        # 20e108 <have_read_stdin>
    2d44:	48 89 df             	mov    rdi,rbx
    2d47:	e8 74 4c 00 00       	call   79c0 <fadvise>
    2d4c:	4c 89 e6             	mov    rsi,r12
    2d4f:	48 89 df             	mov    rdi,rbx
    2d52:	e8 19 4c 00 00       	call   7970 <sha512_stream>
    2d57:	85 c0                	test   eax,eax
    2d59:	75 15                	jne    2d70 <digest_file.isra.1+0x70>
    2d5b:	41 bc 01 00 00 00    	mov    r12d,0x1
    2d61:	48 83 c4 08          	add    rsp,0x8
    2d65:	44 89 e0             	mov    eax,r12d
    2d68:	5b                   	pop    rbx
    2d69:	5d                   	pop    rbp
    2d6a:	41 5c                	pop    r12
    2d6c:	41 5d                	pop    r13
    2d6e:	c3                   	ret    
    2d6f:	90                   	nop
    2d70:	48 89 ea             	mov    rdx,rbp
    2d73:	31 ff                	xor    edi,edi
    2d75:	be 03 00 00 00       	mov    esi,0x3
    2d7a:	e8 51 68 00 00       	call   95d0 <quotearg_n_style_colon>
    2d7f:	48 89 c5             	mov    rbp,rax
    2d82:	45 31 e4             	xor    r12d,r12d
    2d85:	e8 46 e8 ff ff       	call   15d0 <__errno_location@plt>
    2d8a:	8b 30                	mov    esi,DWORD PTR [rax]
    2d8c:	48 8d 15 c2 84 00 00 	lea    rdx,[rip+0x84c2]        # b255 <bin2hex.7156+0x25>
    2d93:	31 ff                	xor    edi,edi
    2d95:	31 c0                	xor    eax,eax
    2d97:	48 89 e9             	mov    rcx,rbp
    2d9a:	e8 91 ea ff ff       	call   1830 <error@plt>
    2d9f:	48 39 1d 0a b3 20 00 	cmp    QWORD PTR [rip+0x20b30a],rbx        # 20e0b0 <stdin@@GLIBC_2.2.5>
    2da6:	74 b9                	je     2d61 <digest_file.isra.1+0x61>
    2da8:	48 89 df             	mov    rdi,rbx
    2dab:	e8 d0 72 00 00       	call   a080 <rpl_fclose>
    2db0:	48 83 c4 08          	add    rsp,0x8
    2db4:	44 89 e0             	mov    eax,r12d
    2db7:	5b                   	pop    rbx
    2db8:	5d                   	pop    rbp
    2db9:	41 5c                	pop    r12
    2dbb:	41 5d                	pop    r13
    2dbd:	c3                   	ret    
    2dbe:	66 90                	xchg   ax,ax
    2dc0:	48 8d 35 9b 79 00 00 	lea    rsi,[rip+0x799b]        # a762 <_IO_stdin_used+0xe2>
    2dc7:	48 89 ef             	mov    rdi,rbp
    2dca:	49 89 d5             	mov    r13,rdx
    2dcd:	e8 1e 4c 00 00       	call   79f0 <fopen_safer>
    2dd2:	48 85 c0             	test   rax,rax
    2dd5:	48 89 c3             	mov    rbx,rax
    2dd8:	74 66                	je     2e40 <digest_file.isra.1+0x140>
    2dda:	48 89 c7             	mov    rdi,rax
    2ddd:	be 02 00 00 00       	mov    esi,0x2
    2de2:	e8 d9 4b 00 00       	call   79c0 <fadvise>
    2de7:	4c 89 e6             	mov    rsi,r12
    2dea:	48 89 df             	mov    rdi,rbx
    2ded:	e8 7e 4b 00 00       	call   7970 <sha512_stream>
    2df2:	85 c0                	test   eax,eax
    2df4:	0f 85 76 ff ff ff    	jne    2d70 <digest_file.isra.1+0x70>
    2dfa:	48 89 df             	mov    rdi,rbx
    2dfd:	e8 7e 72 00 00       	call   a080 <rpl_fclose>
    2e02:	85 c0                	test   eax,eax
    2e04:	0f 84 51 ff ff ff    	je     2d5b <digest_file.isra.1+0x5b>
    2e0a:	48 89 ea             	mov    rdx,rbp
    2e0d:	be 03 00 00 00       	mov    esi,0x3
    2e12:	31 ff                	xor    edi,edi
    2e14:	e8 b7 67 00 00       	call   95d0 <quotearg_n_style_colon>
    2e19:	48 89 c3             	mov    rbx,rax
    2e1c:	45 31 e4             	xor    r12d,r12d
    2e1f:	e8 ac e7 ff ff       	call   15d0 <__errno_location@plt>
    2e24:	8b 30                	mov    esi,DWORD PTR [rax]
    2e26:	48 8d 15 28 84 00 00 	lea    rdx,[rip+0x8428]        # b255 <bin2hex.7156+0x25>
    2e2d:	48 89 d9             	mov    rcx,rbx
    2e30:	31 ff                	xor    edi,edi
    2e32:	31 c0                	xor    eax,eax
    2e34:	e8 f7 e9 ff ff       	call   1830 <error@plt>
    2e39:	e9 23 ff ff ff       	jmp    2d61 <digest_file.isra.1+0x61>
    2e3e:	66 90                	xchg   ax,ax
    2e40:	44 0f b6 25 aa b2 20 	movzx  r12d,BYTE PTR [rip+0x20b2aa]        # 20e0f2 <ignore_missing>
    2e47:	00 
    2e48:	e8 83 e7 ff ff       	call   15d0 <__errno_location@plt>
    2e4d:	48 89 c3             	mov    rbx,rax
    2e50:	45 84 e4             	test   r12b,r12b
    2e53:	74 05                	je     2e5a <digest_file.isra.1+0x15a>
    2e55:	83 38 02             	cmp    DWORD PTR [rax],0x2
    2e58:	74 36                	je     2e90 <digest_file.isra.1+0x190>
    2e5a:	48 89 ea             	mov    rdx,rbp
    2e5d:	be 03 00 00 00       	mov    esi,0x3
    2e62:	31 ff                	xor    edi,edi
    2e64:	e8 67 67 00 00       	call   95d0 <quotearg_n_style_colon>
    2e69:	8b 33                	mov    esi,DWORD PTR [rbx]
    2e6b:	48 8d 15 e3 83 00 00 	lea    rdx,[rip+0x83e3]        # b255 <bin2hex.7156+0x25>
    2e72:	48 89 c1             	mov    rcx,rax
    2e75:	31 ff                	xor    edi,edi
    2e77:	31 c0                	xor    eax,eax
    2e79:	45 31 e4             	xor    r12d,r12d
    2e7c:	e8 af e9 ff ff       	call   1830 <error@plt>
    2e81:	e9 db fe ff ff       	jmp    2d61 <digest_file.isra.1+0x61>
    2e86:	66 2e 0f 1f 84 00 00 	nop    WORD PTR cs:[rax+rax*1+0x0]
    2e8d:	00 00 00 
    2e90:	41 c6 45 00 01       	mov    BYTE PTR [r13+0x0],0x1
    2e95:	e9 c7 fe ff ff       	jmp    2d61 <digest_file.isra.1+0x61>
    2e9a:	66 0f 1f 44 00 00    	nop    WORD PTR [rax+rax*1+0x0]

0000000000002ea0 <usage>:
    2ea0:	41 55                	push   r13
    2ea2:	41 54                	push   r12
    2ea4:	ba 05 00 00 00       	mov    edx,0x5
    2ea9:	55                   	push   rbp
    2eaa:	53                   	push   rbx
    2eab:	89 fd                	mov    ebp,edi
    2ead:	48 81 ec 88 00 00 00 	sub    rsp,0x88
    2eb4:	48 8b 1d 65 b2 20 00 	mov    rbx,QWORD PTR [rip+0x20b265]        # 20e120 <program_name>
    2ebb:	64 48 8b 04 25 28 00 	mov    rax,QWORD PTR fs:0x28
    2ec2:	00 00 
    2ec4:	48 89 44 24 78       	mov    QWORD PTR [rsp+0x78],rax
    2ec9:	31 c0                	xor    eax,eax
    2ecb:	85 ff                	test   edi,edi
    2ecd:	74 2e                	je     2efd <usage+0x5d>
    2ecf:	48 8d 35 82 79 00 00 	lea    rsi,[rip+0x7982]        # a858 <_IO_stdin_used+0x1d8>
    2ed6:	31 ff                	xor    edi,edi
    2ed8:	e8 83 e7 ff ff       	call   1660 <dcgettext@plt>
    2edd:	48 8b 3d fc b1 20 00 	mov    rdi,QWORD PTR [rip+0x20b1fc]        # 20e0e0 <stderr@@GLIBC_2.2.5>
    2ee4:	48 89 c2             	mov    rdx,rax
    2ee7:	48 89 d9             	mov    rcx,rbx
    2eea:	be 01 00 00 00       	mov    esi,0x1
    2eef:	31 c0                	xor    eax,eax
    2ef1:	e8 aa e9 ff ff       	call   18a0 <__fprintf_chk@plt>
    2ef6:	89 ef                	mov    edi,ebp
    2ef8:	e8 83 e9 ff ff       	call   1880 <exit@plt>
    2efd:	48 8d 35 7c 79 00 00 	lea    rsi,[rip+0x797c]        # a880 <_IO_stdin_used+0x200>
    2f04:	31 ff                	xor    edi,edi
    2f06:	e8 55 e7 ff ff       	call   1660 <dcgettext@plt>
    2f0b:	48 8d 0d 82 77 00 00 	lea    rcx,[rip+0x7782]        # a694 <_IO_stdin_used+0x14>
    2f12:	41 b8 00 02 00 00    	mov    r8d,0x200
    2f18:	48 89 da             	mov    rdx,rbx
    2f1b:	48 89 c6             	mov    rsi,rax
    2f1e:	bf 01 00 00 00       	mov    edi,0x1
    2f23:	31 c0                	xor    eax,eax
    2f25:	e8 e6 e8 ff ff       	call   1810 <__printf_chk@plt>
    2f2a:	48 8b 1d 77 b1 20 00 	mov    rbx,QWORD PTR [rip+0x20b177]        # 20e0a8 <stdout@@GLIBC_2.2.5>
    2f31:	48 8d 35 90 79 00 00 	lea    rsi,[rip+0x7990]        # a8c8 <_IO_stdin_used+0x248>
    2f38:	ba 05 00 00 00       	mov    edx,0x5
    2f3d:	31 ff                	xor    edi,edi
    2f3f:	e8 1c e7 ff ff       	call   1660 <dcgettext@plt>
    2f44:	48 89 de             	mov    rsi,rbx
    2f47:	48 89 c7             	mov    rdi,rax
    2f4a:	e8 f1 e7 ff ff       	call   1740 <fputs_unlocked@plt>
    2f4f:	48 8b 1d 52 b1 20 00 	mov    rbx,QWORD PTR [rip+0x20b152]        # 20e0a8 <stdout@@GLIBC_2.2.5>
    2f56:	48 8d 35 a3 79 00 00 	lea    rsi,[rip+0x79a3]        # a900 <_IO_stdin_used+0x280>
    2f5d:	ba 05 00 00 00       	mov    edx,0x5
    2f62:	31 ff                	xor    edi,edi
    2f64:	e8 f7 e6 ff ff       	call   1660 <dcgettext@plt>
    2f69:	48 89 de             	mov    rsi,rbx
    2f6c:	48 89 c7             	mov    rdi,rax
    2f6f:	e8 cc e7 ff ff       	call   1740 <fputs_unlocked@plt>
    2f74:	48 8d 35 b5 79 00 00 	lea    rsi,[rip+0x79b5]        # a930 <_IO_stdin_used+0x2b0>
    2f7b:	31 ff                	xor    edi,edi
    2f7d:	ba 05 00 00 00       	mov    edx,0x5
    2f82:	e8 d9 e6 ff ff       	call   1660 <dcgettext@plt>
    2f87:	48 8d 15 06 77 00 00 	lea    rdx,[rip+0x7706]        # a694 <_IO_stdin_used+0x14>
    2f8e:	48 89 c6             	mov    rsi,rax
    2f91:	bf 01 00 00 00       	mov    edi,0x1
    2f96:	31 c0                	xor    eax,eax
    2f98:	e8 73 e8 ff ff       	call   1810 <__printf_chk@plt>
    2f9d:	48 8b 1d 04 b1 20 00 	mov    rbx,QWORD PTR [rip+0x20b104]        # 20e0a8 <stdout@@GLIBC_2.2.5>
    2fa4:	48 8d 35 cd 79 00 00 	lea    rsi,[rip+0x79cd]        # a978 <_IO_stdin_used+0x2f8>
    2fab:	ba 05 00 00 00       	mov    edx,0x5
    2fb0:	31 ff                	xor    edi,edi
    2fb2:	e8 a9 e6 ff ff       	call   1660 <dcgettext@plt>
    2fb7:	48 89 de             	mov    rsi,rbx
    2fba:	48 89 c7             	mov    rdi,rax
    2fbd:	e8 7e e7 ff ff       	call   1740 <fputs_unlocked@plt>
    2fc2:	48 8b 1d df b0 20 00 	mov    rbx,QWORD PTR [rip+0x20b0df]        # 20e0a8 <stdout@@GLIBC_2.2.5>
    2fc9:	48 8d 35 e0 79 00 00 	lea    rsi,[rip+0x79e0]        # a9b0 <_IO_stdin_used+0x330>
    2fd0:	ba 05 00 00 00       	mov    edx,0x5
    2fd5:	31 ff                	xor    edi,edi
    2fd7:	e8 84 e6 ff ff       	call   1660 <dcgettext@plt>
    2fdc:	48 89 de             	mov    rsi,rbx
    2fdf:	48 89 c7             	mov    rdi,rax
    2fe2:	e8 59 e7 ff ff       	call   1740 <fputs_unlocked@plt>
    2fe7:	48 8b 1d ba b0 20 00 	mov    rbx,QWORD PTR [rip+0x20b0ba]        # 20e0a8 <stdout@@GLIBC_2.2.5>
    2fee:	48 8d 35 f3 79 00 00 	lea    rsi,[rip+0x79f3]        # a9e8 <_IO_stdin_used+0x368>
    2ff5:	ba 05 00 00 00       	mov    edx,0x5
    2ffa:	31 ff                	xor    edi,edi
    2ffc:	e8 5f e6 ff ff       	call   1660 <dcgettext@plt>
    3001:	48 89 de             	mov    rsi,rbx
    3004:	48 89 c7             	mov    rdi,rax
    3007:	e8 34 e7 ff ff       	call   1740 <fputs_unlocked@plt>
    300c:	48 8b 1d 95 b0 20 00 	mov    rbx,QWORD PTR [rip+0x20b095]        # 20e0a8 <stdout@@GLIBC_2.2.5>
    3013:	48 8d 35 4e 7a 00 00 	lea    rsi,[rip+0x7a4e]        # aa68 <_IO_stdin_used+0x3e8>
    301a:	ba 05 00 00 00       	mov    edx,0x5
    301f:	31 ff                	xor    edi,edi
    3021:	e8 3a e6 ff ff       	call   1660 <dcgettext@plt>
    3026:	48 89 de             	mov    rsi,rbx
    3029:	48 89 c7             	mov    rdi,rax
    302c:	e8 0f e7 ff ff       	call   1740 <fputs_unlocked@plt>
    3031:	48 8b 1d 70 b0 20 00 	mov    rbx,QWORD PTR [rip+0x20b070]        # 20e0a8 <stdout@@GLIBC_2.2.5>
    3038:	48 8d 35 e1 7b 00 00 	lea    rsi,[rip+0x7be1]        # ac20 <_IO_stdin_used+0x5a0>
    303f:	ba 05 00 00 00       	mov    edx,0x5
    3044:	31 ff                	xor    edi,edi
    3046:	e8 15 e6 ff ff       	call   1660 <dcgettext@plt>
    304b:	48 89 de             	mov    rsi,rbx
    304e:	48 89 c7             	mov    rdi,rax
    3051:	e8 ea e6 ff ff       	call   1740 <fputs_unlocked@plt>
    3056:	48 8b 1d 4b b0 20 00 	mov    rbx,QWORD PTR [rip+0x20b04b]        # 20e0a8 <stdout@@GLIBC_2.2.5>
    305d:	48 8d 35 ec 7b 00 00 	lea    rsi,[rip+0x7bec]        # ac50 <_IO_stdin_used+0x5d0>
    3064:	ba 05 00 00 00       	mov    edx,0x5
    3069:	31 ff                	xor    edi,edi
    306b:	e8 f0 e5 ff ff       	call   1660 <dcgettext@plt>
    3070:	48 89 de             	mov    rsi,rbx
    3073:	48 89 c7             	mov    rdi,rax
    3076:	48 8d 1d 0d 76 00 00 	lea    rbx,[rip+0x760d]        # a68a <_IO_stdin_used+0xa>
    307d:	e8 be e6 ff ff       	call   1740 <fputs_unlocked@plt>
    3082:	48 8d 35 ff 7b 00 00 	lea    rsi,[rip+0x7bff]        # ac88 <_IO_stdin_used+0x608>
    3089:	31 ff                	xor    edi,edi
    308b:	ba 05 00 00 00       	mov    edx,0x5
    3090:	e8 cb e5 ff ff       	call   1660 <dcgettext@plt>
    3095:	48 8d 15 ff 75 00 00 	lea    rdx,[rip+0x75ff]        # a69b <_IO_stdin_used+0x1b>
    309c:	48 89 c6             	mov    rsi,rax
    309f:	bf 01 00 00 00       	mov    edi,0x1
    30a4:	31 c0                	xor    eax,eax
    30a6:	e8 65 e7 ff ff       	call   1810 <__printf_chk@plt>
    30ab:	48 8d 05 f4 75 00 00 	lea    rax,[rip+0x75f4]        # a6a6 <_IO_stdin_used+0x26>
    30b2:	48 8d 0d 2e 76 00 00 	lea    rcx,[rip+0x762e]        # a6e7 <_IO_stdin_used+0x67>
    30b9:	48 89 5c 24 50       	mov    QWORD PTR [rsp+0x50],rbx
    30be:	48 c7 44 24 60 00 00 	mov    QWORD PTR [rsp+0x60],0x0
    30c5:	00 00 
    30c7:	48 c7 44 24 68 00 00 	mov    QWORD PTR [rsp+0x68],0x0
    30ce:	00 00 
    30d0:	48 89 e2             	mov    rdx,rsp
    30d3:	48 89 04 24          	mov    QWORD PTR [rsp],rax
    30d7:	48 8d 05 ca 75 00 00 	lea    rax,[rip+0x75ca]        # a6a8 <_IO_stdin_used+0x28>
    30de:	48 89 4c 24 30       	mov    QWORD PTR [rsp+0x30],rcx
    30e3:	48 8d 0d 07 76 00 00 	lea    rcx,[rip+0x7607]        # a6f1 <_IO_stdin_used+0x71>
    30ea:	48 89 44 24 08       	mov    QWORD PTR [rsp+0x8],rax
    30ef:	48 8d 05 20 76 00 00 	lea    rax,[rip+0x7620]        # a716 <_IO_stdin_used+0x96>
    30f6:	48 89 4c 24 40       	mov    QWORD PTR [rsp+0x40],rcx
    30fb:	48 89 44 24 10       	mov    QWORD PTR [rsp+0x10],rax
    3100:	48 8d 05 b1 75 00 00 	lea    rax,[rip+0x75b1]        # a6b8 <_IO_stdin_used+0x38>
    3107:	48 89 44 24 18       	mov    QWORD PTR [rsp+0x18],rax
    310c:	48 8d 05 bb 75 00 00 	lea    rax,[rip+0x75bb]        # a6ce <_IO_stdin_used+0x4e>
    3113:	48 89 44 24 20       	mov    QWORD PTR [rsp+0x20],rax
    3118:	48 8d 05 b9 75 00 00 	lea    rax,[rip+0x75b9]        # a6d8 <_IO_stdin_used+0x58>
    311f:	48 89 44 24 28       	mov    QWORD PTR [rsp+0x28],rax
    3124:	48 89 44 24 38       	mov    QWORD PTR [rsp+0x38],rax
    3129:	48 89 44 24 48       	mov    QWORD PTR [rsp+0x48],rax
    312e:	48 89 44 24 58       	mov    QWORD PTR [rsp+0x58],rax
    3133:	0f 1f 44 00 00       	nop    DWORD PTR [rax+rax*1+0x0]
    3138:	48 83 c2 10          	add    rdx,0x10
    313c:	48 8b 3a             	mov    rdi,QWORD PTR [rdx]
    313f:	48 85 ff             	test   rdi,rdi
    3142:	74 13                	je     3157 <usage+0x2b7>
    3144:	b9 0a 00 00 00       	mov    ecx,0xa
    3149:	48 89 de             	mov    rsi,rbx
    314c:	f3 a6                	repz cmps BYTE PTR ds:[rsi],BYTE PTR es:[rdi]
    314e:	0f 97 c0             	seta   al
    3151:	1c 00                	sbb    al,0x0
    3153:	84 c0                	test   al,al
    3155:	75 e1                	jne    3138 <usage+0x298>
    3157:	4c 8b 62 08          	mov    r12,QWORD PTR [rdx+0x8]
    315b:	31 ff                	xor    edi,edi
    315d:	ba 05 00 00 00       	mov    edx,0x5
    3162:	48 8d 35 92 75 00 00 	lea    rsi,[rip+0x7592]        # a6fb <_IO_stdin_used+0x7b>
    3169:	4d 85 e4             	test   r12,r12
    316c:	0f 84 c1 00 00 00    	je     3233 <usage+0x393>
    3172:	e8 e9 e4 ff ff       	call   1660 <dcgettext@plt>
    3177:	48 8d 0d 3a 7c 00 00 	lea    rcx,[rip+0x7c3a]        # adb8 <_IO_stdin_used+0x738>
    317e:	48 8d 15 8d 75 00 00 	lea    rdx,[rip+0x758d]        # a712 <_IO_stdin_used+0x92>
    3185:	48 89 c6             	mov    rsi,rax
    3188:	bf 01 00 00 00       	mov    edi,0x1
    318d:	31 c0                	xor    eax,eax
    318f:	e8 7c e6 ff ff       	call   1810 <__printf_chk@plt>
    3194:	31 f6                	xor    esi,esi
    3196:	bf 05 00 00 00       	mov    edi,0x5
    319b:	e8 60 e6 ff ff       	call   1800 <setlocale@plt>
    31a0:	48 85 c0             	test   rax,rax
    31a3:	74 1c                	je     31c1 <usage+0x321>
    31a5:	48 8d 35 74 75 00 00 	lea    rsi,[rip+0x7574]        # a720 <_IO_stdin_used+0xa0>
    31ac:	ba 03 00 00 00       	mov    edx,0x3
    31b1:	48 89 c7             	mov    rdi,rax
    31b4:	e8 27 e4 ff ff       	call   15e0 <strncmp@plt>
    31b9:	85 c0                	test   eax,eax
    31bb:	0f 85 07 01 00 00    	jne    32c8 <usage+0x428>
    31c1:	48 8d 35 5c 75 00 00 	lea    rsi,[rip+0x755c]        # a724 <_IO_stdin_used+0xa4>
    31c8:	31 ff                	xor    edi,edi
    31ca:	ba 05 00 00 00       	mov    edx,0x5
    31cf:	e8 8c e4 ff ff       	call   1660 <dcgettext@plt>
    31d4:	48 8d 0d af 74 00 00 	lea    rcx,[rip+0x74af]        # a68a <_IO_stdin_used+0xa>
    31db:	48 8d 15 d6 7b 00 00 	lea    rdx,[rip+0x7bd6]        # adb8 <_IO_stdin_used+0x738>
    31e2:	48 89 c6             	mov    rsi,rax
    31e5:	bf 01 00 00 00       	mov    edi,0x1
    31ea:	31 c0                	xor    eax,eax
    31ec:	e8 1f e6 ff ff       	call   1810 <__printf_chk@plt>
    31f1:	49 39 dc             	cmp    r12,rbx
    31f4:	48 8d 0d c7 74 00 00 	lea    rcx,[rip+0x74c7]        # a6c2 <_IO_stdin_used+0x42>
    31fb:	48 8d 1d 5f 86 00 00 	lea    rbx,[rip+0x865f]        # b861 <quoting_style_vals+0x81>
    3202:	48 0f 44 d9          	cmove  rbx,rcx
    3206:	48 8d 35 1b 7c 00 00 	lea    rsi,[rip+0x7c1b]        # ae28 <_IO_stdin_used+0x7a8>
    320d:	31 ff                	xor    edi,edi
    320f:	ba 05 00 00 00       	mov    edx,0x5
    3214:	e8 47 e4 ff ff       	call   1660 <dcgettext@plt>
    3219:	48 89 d9             	mov    rcx,rbx
    321c:	48 89 c6             	mov    rsi,rax
    321f:	4c 89 e2             	mov    rdx,r12
    3222:	bf 01 00 00 00       	mov    edi,0x1
    3227:	31 c0                	xor    eax,eax
    3229:	e8 e2 e5 ff ff       	call   1810 <__printf_chk@plt>
    322e:	e9 c3 fc ff ff       	jmp    2ef6 <usage+0x56>
    3233:	e8 28 e4 ff ff       	call   1660 <dcgettext@plt>
    3238:	48 8d 0d 79 7b 00 00 	lea    rcx,[rip+0x7b79]        # adb8 <_IO_stdin_used+0x738>
    323f:	48 8d 15 cc 74 00 00 	lea    rdx,[rip+0x74cc]        # a712 <_IO_stdin_used+0x92>
    3246:	48 89 c6             	mov    rsi,rax
    3249:	bf 01 00 00 00       	mov    edi,0x1
    324e:	31 c0                	xor    eax,eax
    3250:	e8 bb e5 ff ff       	call   1810 <__printf_chk@plt>
    3255:	31 f6                	xor    esi,esi
    3257:	bf 05 00 00 00       	mov    edi,0x5
    325c:	e8 9f e5 ff ff       	call   1800 <setlocale@plt>
    3261:	48 85 c0             	test   rax,rax
    3264:	74 18                	je     327e <usage+0x3de>
    3266:	48 8d 35 b3 74 00 00 	lea    rsi,[rip+0x74b3]        # a720 <_IO_stdin_used+0xa0>
    326d:	ba 03 00 00 00       	mov    edx,0x3
    3272:	48 89 c7             	mov    rdi,rax
    3275:	e8 66 e3 ff ff       	call   15e0 <strncmp@plt>
    327a:	85 c0                	test   eax,eax
    327c:	75 43                	jne    32c1 <usage+0x421>
    327e:	48 8d 35 9f 74 00 00 	lea    rsi,[rip+0x749f]        # a724 <_IO_stdin_used+0xa4>
    3285:	ba 05 00 00 00       	mov    edx,0x5
    328a:	31 ff                	xor    edi,edi
    328c:	4c 8d 25 f7 73 00 00 	lea    r12,[rip+0x73f7]        # a68a <_IO_stdin_used+0xa>
    3293:	48 8d 1d 28 74 00 00 	lea    rbx,[rip+0x7428]        # a6c2 <_IO_stdin_used+0x42>
    329a:	e8 c1 e3 ff ff       	call   1660 <dcgettext@plt>
    329f:	48 8d 0d e4 73 00 00 	lea    rcx,[rip+0x73e4]        # a68a <_IO_stdin_used+0xa>
    32a6:	48 8d 15 0b 7b 00 00 	lea    rdx,[rip+0x7b0b]        # adb8 <_IO_stdin_used+0x738>
    32ad:	48 89 c6             	mov    rsi,rax
    32b0:	bf 01 00 00 00       	mov    edi,0x1
    32b5:	31 c0                	xor    eax,eax
    32b7:	e8 54 e5 ff ff       	call   1810 <__printf_chk@plt>
    32bc:	e9 45 ff ff ff       	jmp    3206 <usage+0x366>
    32c1:	4c 8d 25 c2 73 00 00 	lea    r12,[rip+0x73c2]        # a68a <_IO_stdin_used+0xa>
    32c8:	4c 8b 2d d9 ad 20 00 	mov    r13,QWORD PTR [rip+0x20add9]        # 20e0a8 <stdout@@GLIBC_2.2.5>
    32cf:	48 8d 35 0a 7b 00 00 	lea    rsi,[rip+0x7b0a]        # ade0 <_IO_stdin_used+0x760>
    32d6:	31 ff                	xor    edi,edi
    32d8:	ba 05 00 00 00       	mov    edx,0x5
    32dd:	e8 7e e3 ff ff       	call   1660 <dcgettext@plt>
    32e2:	4c 89 ee             	mov    rsi,r13
    32e5:	48 89 c7             	mov    rdi,rax
    32e8:	e8 53 e4 ff ff       	call   1740 <fputs_unlocked@plt>
    32ed:	e9 cf fe ff ff       	jmp    31c1 <usage+0x321>
    32f2:	66 2e 0f 1f 84 00 00 	nop    WORD PTR cs:[rax+rax*1+0x0]
    32f9:	00 00 00 
    32fc:	0f 1f 40 00          	nop    DWORD PTR [rax+0x0]

0000000000003300 <close_stdout_set_file_name>:
    3300:	48 89 3d 11 ae 20 00 	mov    QWORD PTR [rip+0x20ae11],rdi        # 20e118 <file_name>
    3307:	c3                   	ret    
    3308:	0f 1f 84 00 00 00 00 	nop    DWORD PTR [rax+rax*1+0x0]
    330f:	00 

0000000000003310 <close_stdout_set_ignore_EPIPE>:
    3310:	40 88 3d f9 ad 20 00 	mov    BYTE PTR [rip+0x20adf9],dil        # 20e110 <ignore_EPIPE>
    3317:	c3                   	ret    
    3318:	0f 1f 84 00 00 00 00 	nop    DWORD PTR [rax+rax*1+0x0]
    331f:	00 

0000000000003320 <close_stdout>:
    3320:	55                   	push   rbp
    3321:	53                   	push   rbx
    3322:	48 83 ec 08          	sub    rsp,0x8
    3326:	48 8b 3d 7b ad 20 00 	mov    rdi,QWORD PTR [rip+0x20ad7b]        # 20e0a8 <stdout@@GLIBC_2.2.5>
    332d:	e8 7e 71 00 00       	call   a4b0 <close_stream>
    3332:	85 c0                	test   eax,eax
    3334:	74 16                	je     334c <close_stdout+0x2c>
    3336:	e8 95 e2 ff ff       	call   15d0 <__errno_location@plt>
    333b:	80 3d ce ad 20 00 00 	cmp    BYTE PTR [rip+0x20adce],0x0        # 20e110 <ignore_EPIPE>
    3342:	48 89 c3             	mov    rbx,rax
    3345:	74 1c                	je     3363 <close_stdout+0x43>
    3347:	83 38 20             	cmp    DWORD PTR [rax],0x20
    334a:	75 17                	jne    3363 <close_stdout+0x43>
    334c:	48 8b 3d 8d ad 20 00 	mov    rdi,QWORD PTR [rip+0x20ad8d]        # 20e0e0 <stderr@@GLIBC_2.2.5>
    3353:	e8 58 71 00 00       	call   a4b0 <close_stream>
    3358:	85 c0                	test   eax,eax
    335a:	75 46                	jne    33a2 <close_stdout+0x82>
    335c:	48 83 c4 08          	add    rsp,0x8
    3360:	5b                   	pop    rbx
    3361:	5d                   	pop    rbp
    3362:	c3                   	ret    
    3363:	48 8d 35 db 7e 00 00 	lea    rsi,[rip+0x7edb]        # b245 <bin2hex.7156+0x15>
    336a:	31 ff                	xor    edi,edi
    336c:	ba 05 00 00 00       	mov    edx,0x5
    3371:	e8 ea e2 ff ff       	call   1660 <dcgettext@plt>
    3376:	48 8b 3d 9b ad 20 00 	mov    rdi,QWORD PTR [rip+0x20ad9b]        # 20e118 <file_name>
    337d:	48 89 c5             	mov    rbp,rax
    3380:	48 85 ff             	test   rdi,rdi
    3383:	74 28                	je     33ad <close_stdout+0x8d>
    3385:	e8 16 62 00 00       	call   95a0 <quotearg_colon>
    338a:	8b 33                	mov    esi,DWORD PTR [rbx]
    338c:	48 8d 15 be 7e 00 00 	lea    rdx,[rip+0x7ebe]        # b251 <bin2hex.7156+0x21>
    3393:	48 89 c1             	mov    rcx,rax
    3396:	49 89 e8             	mov    r8,rbp
    3399:	31 ff                	xor    edi,edi
    339b:	31 c0                	xor    eax,eax
    339d:	e8 8e e4 ff ff       	call   1830 <error@plt>
    33a2:	8b 3d 78 ac 20 00    	mov    edi,DWORD PTR [rip+0x20ac78]        # 20e020 <exit_failure>
    33a8:	e8 43 e2 ff ff       	call   15f0 <_exit@plt>
    33ad:	8b 33                	mov    esi,DWORD PTR [rbx]
    33af:	48 8d 15 9f 7e 00 00 	lea    rdx,[rip+0x7e9f]        # b255 <bin2hex.7156+0x25>
    33b6:	48 89 c1             	mov    rcx,rax
    33b9:	31 ff                	xor    edi,edi
    33bb:	31 c0                	xor    eax,eax
    33bd:	e8 6e e4 ff ff       	call   1830 <error@plt>
    33c2:	eb de                	jmp    33a2 <close_stdout+0x82>
    33c4:	66 2e 0f 1f 84 00 00 	nop    WORD PTR cs:[rax+rax*1+0x0]
    33cb:	00 00 00 
    33ce:	66 90                	xchg   ax,ax

00000000000033d0 <sha512_init_ctx>:
    33d0:	48 b8 08 c9 bc f3 67 	movabs rax,0x6a09e667f3bcc908
    33d7:	e6 09 6a 
    33da:	48 c7 47 48 00 00 00 	mov    QWORD PTR [rdi+0x48],0x0
    33e1:	00 
    33e2:	48 c7 47 40 00 00 00 	mov    QWORD PTR [rdi+0x40],0x0
    33e9:	00 
    33ea:	48 89 07             	mov    QWORD PTR [rdi],rax
    33ed:	48 b8 3b a7 ca 84 85 	movabs rax,0xbb67ae8584caa73b
    33f4:	ae 67 bb 
    33f7:	48 c7 47 50 00 00 00 	mov    QWORD PTR [rdi+0x50],0x0
    33fe:	00 
    33ff:	48 89 47 08          	mov    QWORD PTR [rdi+0x8],rax
    3403:	48 b8 2b f8 94 fe 72 	movabs rax,0x3c6ef372fe94f82b
    340a:	f3 6e 3c 
    340d:	48 89 47 10          	mov    QWORD PTR [rdi+0x10],rax
    3411:	48 b8 f1 36 1d 5f 3a 	movabs rax,0xa54ff53a5f1d36f1
    3418:	f5 4f a5 
    341b:	48 89 47 18          	mov    QWORD PTR [rdi+0x18],rax
    341f:	48 b8 d1 82 e6 ad 7f 	movabs rax,0x510e527fade682d1
    3426:	52 0e 51 
    3429:	48 89 47 20          	mov    QWORD PTR [rdi+0x20],rax
    342d:	48 b8 1f 6c 3e 2b 8c 	movabs rax,0x9b05688c2b3e6c1f
    3434:	68 05 9b 
    3437:	48 89 47 28          	mov    QWORD PTR [rdi+0x28],rax
    343b:	48 b8 6b bd 41 fb ab 	movabs rax,0x1f83d9abfb41bd6b
    3442:	d9 83 1f 
    3445:	48 89 47 30          	mov    QWORD PTR [rdi+0x30],rax
    3449:	48 b8 79 21 7e 13 19 	movabs rax,0x5be0cd19137e2179
    3450:	cd e0 5b 
    3453:	48 89 47 38          	mov    QWORD PTR [rdi+0x38],rax
    3457:	c3                   	ret    
    3458:	0f 1f 84 00 00 00 00 	nop    DWORD PTR [rax+rax*1+0x0]
    345f:	00 

0000000000003460 <sha384_init_ctx>:
    3460:	48 b8 d8 9e 05 c1 5d 	movabs rax,0xcbbb9d5dc1059ed8
    3467:	9d bb cb 
    346a:	48 c7 47 48 00 00 00 	mov    QWORD PTR [rdi+0x48],0x0
    3471:	00 
    3472:	48 c7 47 40 00 00 00 	mov    QWORD PTR [rdi+0x40],0x0
    3479:	00 
    347a:	48 89 07             	mov    QWORD PTR [rdi],rax
    347d:	48 b8 07 d5 7c 36 2a 	movabs rax,0x629a292a367cd507
    3484:	29 9a 62 
    3487:	48 c7 47 50 00 00 00 	mov    QWORD PTR [rdi+0x50],0x0
    348e:	00 
    348f:	48 89 47 08          	mov    QWORD PTR [rdi+0x8],rax
    3493:	48 b8 17 dd 70 30 5a 	movabs rax,0x9159015a3070dd17
    349a:	01 59 91 
    349d:	48 89 47 10          	mov    QWORD PTR [rdi+0x10],rax
    34a1:	48 b8 39 59 0e f7 d8 	movabs rax,0x152fecd8f70e5939
    34a8:	ec 2f 15 
    34ab:	48 89 47 18          	mov    QWORD PTR [rdi+0x18],rax
    34af:	48 b8 31 0b c0 ff 67 	movabs rax,0x67332667ffc00b31
    34b6:	26 33 67 
    34b9:	48 89 47 20          	mov    QWORD PTR [rdi+0x20],rax
    34bd:	48 b8 11 15 58 68 87 	movabs rax,0x8eb44a8768581511
    34c4:	4a b4 8e 
    34c7:	48 89 47 28          	mov    QWORD PTR [rdi+0x28],rax
    34cb:	48 b8 a7 8f f9 64 0d 	movabs rax,0xdb0c2e0d64f98fa7
    34d2:	2e 0c db 
    34d5:	48 89 47 30          	mov    QWORD PTR [rdi+0x30],rax
    34d9:	48 b8 a4 4f fa be 1d 	movabs rax,0x47b5481dbefa4fa4
    34e0:	48 b5 47 
    34e3:	48 89 47 38          	mov    QWORD PTR [rdi+0x38],rax
    34e7:	c3                   	ret    
    34e8:	0f 1f 84 00 00 00 00 	nop    DWORD PTR [rax+rax*1+0x0]
    34ef:	00 

00000000000034f0 <sha512_read_ctx>:
    34f0:	48 89 f0             	mov    rax,rsi
    34f3:	31 d2                	xor    edx,edx
    34f5:	0f 1f 00             	nop    DWORD PTR [rax]
    34f8:	48 8b 0c 17          	mov    rcx,QWORD PTR [rdi+rdx*1]
    34fc:	48 0f c9             	bswap  rcx
    34ff:	48 89 0c 10          	mov    QWORD PTR [rax+rdx*1],rcx
    3503:	48 83 c2 08          	add    rdx,0x8
    3507:	48 83 fa 40          	cmp    rdx,0x40
    350b:	75 eb                	jne    34f8 <sha512_read_ctx+0x8>
    350d:	f3 c3                	repz ret 
    350f:	90                   	nop

0000000000003510 <sha384_read_ctx>:
    3510:	48 89 f0             	mov    rax,rsi
    3513:	31 d2                	xor    edx,edx
    3515:	0f 1f 00             	nop    DWORD PTR [rax]
    3518:	48 8b 0c 17          	mov    rcx,QWORD PTR [rdi+rdx*1]
    351c:	48 0f c9             	bswap  rcx
    351f:	48 89 0c 10          	mov    QWORD PTR [rax+rdx*1],rcx
    3523:	48 83 c2 08          	add    rdx,0x8
    3527:	48 83 fa 30          	cmp    rdx,0x30
    352b:	75 eb                	jne    3518 <sha384_read_ctx+0x8>
    352d:	f3 c3                	repz ret 
    352f:	90                   	nop

0000000000003530 <sha512_process_block>:
    3530:	41 57                	push   r15
    3532:	41 56                	push   r14
    3534:	49 89 ff             	mov    r15,rdi
    3537:	41 55                	push   r13
    3539:	41 54                	push   r12
    353b:	55                   	push   rbp
    353c:	53                   	push   rbx
    353d:	48 89 d3             	mov    rbx,rdx
    3540:	48 81 ec 88 01 00 00 	sub    rsp,0x188
    3547:	48 8b 6a 08          	mov    rbp,QWORD PTR [rdx+0x8]
    354b:	4c 8b 6a 10          	mov    r13,QWORD PTR [rdx+0x10]
    354f:	64 48 8b 04 25 28 00 	mov    rax,QWORD PTR fs:0x28
    3556:	00 00 
    3558:	48 89 84 24 78 01 00 	mov    QWORD PTR [rsp+0x178],rax
    355f:	00 
    3560:	31 c0                	xor    eax,eax
    3562:	48 89 f0             	mov    rax,rsi
    3565:	4c 8b 42 18          	mov    r8,QWORD PTR [rdx+0x18]
    3569:	4c 8b 4a 20          	mov    r9,QWORD PTR [rdx+0x20]
    356d:	48 83 e0 f8          	and    rax,0xfffffffffffffff8
    3571:	4c 8b 62 28          	mov    r12,QWORD PTR [rdx+0x28]
    3575:	4c 8b 52 38          	mov    r10,QWORD PTR [rdx+0x38]
    3579:	48 01 f8             	add    rax,rdi
    357c:	48 03 72 40          	add    rsi,QWORD PTR [rdx+0x40]
    3580:	48 89 bc 24 88 00 00 	mov    QWORD PTR [rsp+0x88],rdi
    3587:	00 
    3588:	48 89 c1             	mov    rcx,rax
    358b:	48 8b 7a 30          	mov    rdi,QWORD PTR [rdx+0x30]
    358f:	48 89 94 24 e0 00 00 	mov    QWORD PTR [rsp+0xe0],rdx
    3596:	00 
    3597:	48 89 84 24 d8 00 00 	mov    QWORD PTR [rsp+0xd8],rax
    359e:	00 
    359f:	48 8b 02             	mov    rax,QWORD PTR [rdx]
    35a2:	0f 92 c2             	setb   dl
    35a5:	48 89 73 40          	mov    QWORD PTR [rbx+0x40],rsi
    35a9:	0f b6 d2             	movzx  edx,dl
    35ac:	48 01 53 48          	add    QWORD PTR [rbx+0x48],rdx
    35b0:	49 39 cf             	cmp    r15,rcx
    35b3:	0f 83 60 3c 00 00    	jae    7219 <sha512_process_block+0x3ce9>
    35b9:	48 8d 9c 24 f0 00 00 	lea    rbx,[rsp+0xf0]
    35c0:	00 
    35c1:	4c 89 94 24 c0 00 00 	mov    QWORD PTR [rsp+0xc0],r10
    35c8:	00 
    35c9:	48 89 bc 24 b8 00 00 	mov    QWORD PTR [rsp+0xb8],rdi
    35d0:	00 
    35d1:	4c 89 a4 24 b0 00 00 	mov    QWORD PTR [rsp+0xb0],r12
    35d8:	00 
    35d9:	4c 89 8c 24 a8 00 00 	mov    QWORD PTR [rsp+0xa8],r9
    35e0:	00 
    35e1:	4c 89 84 24 a0 00 00 	mov    QWORD PTR [rsp+0xa0],r8
    35e8:	00 
    35e9:	4c 89 ac 24 98 00 00 	mov    QWORD PTR [rsp+0x98],r13
    35f0:	00 
    35f1:	48 89 ac 24 90 00 00 	mov    QWORD PTR [rsp+0x90],rbp
    35f8:	00 
    35f9:	48 89 84 24 d0 00 00 	mov    QWORD PTR [rsp+0xd0],rax
    3600:	00 
    3601:	48 89 9c 24 e8 00 00 	mov    QWORD PTR [rsp+0xe8],rbx
    3608:	00 
    3609:	0f 1f 80 00 00 00 00 	nop    DWORD PTR [rax+0x0]
    3610:	48 8b b4 24 88 00 00 	mov    rsi,QWORD PTR [rsp+0x88]
    3617:	00 
    3618:	4c 8b 9c 24 e8 00 00 	mov    r11,QWORD PTR [rsp+0xe8]
    361f:	00 
    3620:	31 d2                	xor    edx,edx
    3622:	66 0f 1f 44 00 00    	nop    WORD PTR [rax+rax*1+0x0]
    3628:	48 8b 0c 16          	mov    rcx,QWORD PTR [rsi+rdx*1]
    362c:	48 0f c9             	bswap  rcx
    362f:	49 89 0c 13          	mov    QWORD PTR [r11+rdx*1],rcx
    3633:	48 83 c2 08          	add    rdx,0x8
    3637:	48 81 fa 80 00 00 00 	cmp    rdx,0x80
    363e:	75 e8                	jne    3628 <sha512_process_block+0xf8>
    3640:	4c 89 ca             	mov    rdx,r9
    3643:	4c 89 c9             	mov    rcx,r9
    3646:	48 89 c6             	mov    rsi,rax
    3649:	48 c1 c9 12          	ror    rcx,0x12
    364d:	48 c1 ca 0e          	ror    rdx,0xe
    3651:	48 c1 c6 1e          	rol    rsi,0x1e
    3655:	48 31 ca             	xor    rdx,rcx
    3658:	4c 89 c9             	mov    rcx,r9
    365b:	4c 8b bc 24 f8 00 00 	mov    r15,QWORD PTR [rsp+0xf8]
    3662:	00 
    3663:	48 c1 c1 17          	rol    rcx,0x17
    3667:	48 83 ac 24 88 00 00 	sub    QWORD PTR [rsp+0x88],0xffffffffffffff80
    366e:	00 80 
    3670:	48 31 d1             	xor    rcx,rdx
    3673:	48 ba 22 ae 28 d7 98 	movabs rdx,0x428a2f98d728ae22
    367a:	2f 8a 42 
    367d:	48 03 94 24 f0 00 00 	add    rdx,QWORD PTR [rsp+0xf0]
    3684:	00 
    3685:	49 01 d2             	add    r10,rdx
    3688:	4c 89 e2             	mov    rdx,r12
    368b:	48 31 fa             	xor    rdx,rdi
    368e:	49 01 ca             	add    r10,rcx
    3691:	4c 21 ca             	and    rdx,r9
    3694:	48 31 fa             	xor    rdx,rdi
    3697:	49 8d 0c 12          	lea    rcx,[r10+rdx*1]
    369b:	48 89 c2             	mov    rdx,rax
    369e:	49 89 c2             	mov    r10,rax
    36a1:	48 c1 ca 1c          	ror    rdx,0x1c
    36a5:	49 21 ea             	and    r10,rbp
    36a8:	48 31 d6             	xor    rsi,rdx
    36ab:	48 89 c2             	mov    rdx,rax
    36ae:	49 01 c8             	add    r8,rcx
    36b1:	48 c1 c2 19          	rol    rdx,0x19
    36b5:	4d 89 c3             	mov    r11,r8
    36b8:	48 31 d6             	xor    rsi,rdx
    36bb:	48 89 c2             	mov    rdx,rax
    36be:	49 c1 cb 12          	ror    r11,0x12
    36c2:	48 09 ea             	or     rdx,rbp
    36c5:	4c 21 ea             	and    rdx,r13
    36c8:	4c 09 d2             	or     rdx,r10
    36cb:	48 01 f2             	add    rdx,rsi
    36ce:	48 be cd 65 ef 23 91 	movabs rsi,0x7137449123ef65cd
    36d5:	44 37 71 
    36d8:	48 01 ca             	add    rdx,rcx
    36db:	4c 89 c9             	mov    rcx,r9
    36de:	4c 01 fe             	add    rsi,r15
    36e1:	4c 31 e1             	xor    rcx,r12
    36e4:	48 01 fe             	add    rsi,rdi
    36e7:	49 89 d2             	mov    r10,rdx
    36ea:	4c 21 c1             	and    rcx,r8
    36ed:	4c 31 e1             	xor    rcx,r12
    36f0:	48 01 ce             	add    rsi,rcx
    36f3:	4c 89 c1             	mov    rcx,r8
    36f6:	48 c1 c9 0e          	ror    rcx,0xe
    36fa:	49 31 cb             	xor    r11,rcx
    36fd:	4c 89 c1             	mov    rcx,r8
    3700:	49 21 c2             	and    r10,rax
    3703:	48 c1 c1 17          	rol    rcx,0x17
    3707:	4c 31 d9             	xor    rcx,r11
    370a:	49 89 d3             	mov    r11,rdx
    370d:	48 01 f1             	add    rcx,rsi
    3710:	48 89 d6             	mov    rsi,rdx
    3713:	49 c1 cb 1c          	ror    r11,0x1c
    3717:	48 c1 c6 1e          	rol    rsi,0x1e
    371b:	4a 8d 3c 29          	lea    rdi,[rcx+r13*1]
    371f:	4c 31 de             	xor    rsi,r11
    3722:	49 89 d3             	mov    r11,rdx
    3725:	49 c1 c3 19          	rol    r11,0x19
    3729:	4c 31 de             	xor    rsi,r11
    372c:	49 89 d3             	mov    r11,rdx
    372f:	49 09 c3             	or     r11,rax
    3732:	49 21 eb             	and    r11,rbp
    3735:	4d 09 d3             	or     r11,r10
    3738:	4d 89 c2             	mov    r10,r8
    373b:	49 01 f3             	add    r11,rsi
    373e:	4d 31 ca             	xor    r10,r9
    3741:	48 89 fe             	mov    rsi,rdi
    3744:	49 01 cb             	add    r11,rcx
    3747:	48 b9 2f 3b 4d ec cf 	movabs rcx,0xb5c0fbcfec4d3b2f
    374e:	fb c0 b5 
    3751:	48 03 8c 24 00 01 00 	add    rcx,QWORD PTR [rsp+0x100]
    3758:	00 
    3759:	49 21 fa             	and    r10,rdi
    375c:	48 c1 ce 12          	ror    rsi,0x12
    3760:	4d 89 de             	mov    r14,r11
    3763:	4d 31 ca             	xor    r10,r9
    3766:	48 89 f3             	mov    rbx,rsi
    3769:	49 c1 c6 19          	rol    r14,0x19
    376d:	4c 01 e1             	add    rcx,r12
    3770:	4c 01 d1             	add    rcx,r10
    3773:	49 89 fa             	mov    r10,rdi
    3776:	49 c1 ca 0e          	ror    r10,0xe
    377a:	4c 31 d3             	xor    rbx,r10
    377d:	49 89 fa             	mov    r10,rdi
    3780:	49 c1 c2 17          	rol    r10,0x17
    3784:	49 31 da             	xor    r10,rbx
    3787:	49 01 ca             	add    r10,rcx
    378a:	4c 89 d9             	mov    rcx,r11
    378d:	48 c1 c9 1c          	ror    rcx,0x1c
    3791:	49 8d 34 2a          	lea    rsi,[r10+rbp*1]
    3795:	48 89 d5             	mov    rbp,rdx
    3798:	48 89 cb             	mov    rbx,rcx
    379b:	4c 89 d9             	mov    rcx,r11
    379e:	48 c1 c1 1e          	rol    rcx,0x1e
    37a2:	48 31 d9             	xor    rcx,rbx
    37a5:	4c 31 f1             	xor    rcx,r14
    37a8:	49 89 d6             	mov    r14,rdx
    37ab:	4d 09 de             	or     r14,r11
    37ae:	4c 21 dd             	and    rbp,r11
    37b1:	4c 89 f3             	mov    rbx,r14
    37b4:	48 21 c3             	and    rbx,rax
    37b7:	48 09 eb             	or     rbx,rbp
    37ba:	4c 89 dd             	mov    rbp,r11
    37bd:	48 01 cb             	add    rbx,rcx
    37c0:	4c 89 c1             	mov    rcx,r8
    37c3:	4c 01 d3             	add    rbx,r10
    37c6:	49 ba bc db 89 81 a5 	movabs r10,0xe9b5dba58189dbbc
    37cd:	db b5 e9 
    37d0:	4c 03 94 24 08 01 00 	add    r10,QWORD PTR [rsp+0x108]
    37d7:	00 
    37d8:	48 31 f9             	xor    rcx,rdi
    37db:	48 21 dd             	and    rbp,rbx
    37de:	48 21 f1             	and    rcx,rsi
    37e1:	4c 31 c1             	xor    rcx,r8
    37e4:	4d 01 d1             	add    r9,r10
    37e7:	49 89 f2             	mov    r10,rsi
    37ea:	4c 01 c9             	add    rcx,r9
    37ed:	49 89 f1             	mov    r9,rsi
    37f0:	49 c1 ca 12          	ror    r10,0x12
    37f4:	49 c1 c9 0e          	ror    r9,0xe
    37f8:	4d 31 ca             	xor    r10,r9
    37fb:	49 89 f1             	mov    r9,rsi
    37fe:	49 c1 c1 17          	rol    r9,0x17
    3802:	4d 31 d1             	xor    r9,r10
    3805:	49 89 da             	mov    r10,rbx
    3808:	49 01 c9             	add    r9,rcx
    380b:	49 c1 ca 1c          	ror    r10,0x1c
    380f:	49 8d 0c 01          	lea    rcx,[r9+rax*1]
    3813:	48 89 d8             	mov    rax,rbx
    3816:	48 c1 c0 1e          	rol    rax,0x1e
    381a:	4c 31 d0             	xor    rax,r10
    381d:	49 89 da             	mov    r10,rbx
    3820:	49 c1 c2 19          	rol    r10,0x19
    3824:	4c 31 d0             	xor    rax,r10
    3827:	4d 89 da             	mov    r10,r11
    382a:	49 09 da             	or     r10,rbx
    382d:	49 21 d2             	and    r10,rdx
    3830:	49 09 ea             	or     r10,rbp
    3833:	48 89 dd             	mov    rbp,rbx
    3836:	49 01 c2             	add    r10,rax
    3839:	48 89 f8             	mov    rax,rdi
    383c:	48 31 f0             	xor    rax,rsi
    383f:	4d 01 ca             	add    r10,r9
    3842:	49 b9 38 b5 48 f3 5b 	movabs r9,0x3956c25bf348b538
    3849:	c2 56 39 
    384c:	48 21 c8             	and    rax,rcx
    384f:	48 31 f8             	xor    rax,rdi
    3852:	4c 03 8c 24 10 01 00 	add    r9,QWORD PTR [rsp+0x110]
    3859:	00 
    385a:	4c 21 d5             	and    rbp,r10
    385d:	4d 01 c8             	add    r8,r9
    3860:	49 89 c9             	mov    r9,rcx
    3863:	49 01 c0             	add    r8,rax
    3866:	48 89 c8             	mov    rax,rcx
    3869:	49 c1 c9 12          	ror    r9,0x12
    386d:	48 c1 c8 0e          	ror    rax,0xe
    3871:	49 31 c1             	xor    r9,rax
    3874:	48 89 c8             	mov    rax,rcx
    3877:	48 c1 c0 17          	rol    rax,0x17
    387b:	4c 31 c8             	xor    rax,r9
    387e:	4d 89 d1             	mov    r9,r10
    3881:	4c 01 c0             	add    rax,r8
    3884:	4d 89 d0             	mov    r8,r10
    3887:	49 c1 c9 1c          	ror    r9,0x1c
    388b:	49 c1 c0 1e          	rol    r8,0x1e
    388f:	48 01 c2             	add    rdx,rax
    3892:	4d 31 c8             	xor    r8,r9
    3895:	4d 89 d1             	mov    r9,r10
    3898:	49 c1 c1 19          	rol    r9,0x19
    389c:	4d 31 c8             	xor    r8,r9
    389f:	49 89 d9             	mov    r9,rbx
    38a2:	4d 09 d1             	or     r9,r10
    38a5:	4d 21 d9             	and    r9,r11
    38a8:	49 09 e9             	or     r9,rbp
    38ab:	4c 89 d5             	mov    rbp,r10
    38ae:	4d 01 c1             	add    r9,r8
    38b1:	49 89 f0             	mov    r8,rsi
    38b4:	49 01 c1             	add    r9,rax
    38b7:	48 b8 19 d0 05 b6 f1 	movabs rax,0x59f111f1b605d019
    38be:	11 f1 59 
    38c1:	48 03 84 24 18 01 00 	add    rax,QWORD PTR [rsp+0x118]
    38c8:	00 
    38c9:	49 31 c8             	xor    r8,rcx
    38cc:	49 21 d0             	and    r8,rdx
    38cf:	49 31 f0             	xor    r8,rsi
    38d2:	48 01 c7             	add    rdi,rax
    38d5:	48 89 d0             	mov    rax,rdx
    38d8:	49 01 f8             	add    r8,rdi
    38db:	48 89 d7             	mov    rdi,rdx
    38de:	48 c1 c8 12          	ror    rax,0x12
    38e2:	48 c1 cf 0e          	ror    rdi,0xe
    38e6:	48 31 f8             	xor    rax,rdi
    38e9:	48 89 d7             	mov    rdi,rdx
    38ec:	48 c1 c7 17          	rol    rdi,0x17
    38f0:	48 31 c7             	xor    rdi,rax
    38f3:	4c 89 c8             	mov    rax,r9
    38f6:	4c 01 c7             	add    rdi,r8
    38f9:	4d 89 c8             	mov    r8,r9
    38fc:	48 c1 c8 1c          	ror    rax,0x1c
    3900:	49 c1 c0 1e          	rol    r8,0x1e
    3904:	4c 21 cd             	and    rbp,r9
    3907:	49 01 fb             	add    r11,rdi
    390a:	49 31 c0             	xor    r8,rax
    390d:	4c 89 c8             	mov    rax,r9
    3910:	48 c1 c0 19          	rol    rax,0x19
    3914:	49 31 c0             	xor    r8,rax
    3917:	4c 89 d0             	mov    rax,r10
    391a:	4c 09 c8             	or     rax,r9
    391d:	48 21 d8             	and    rax,rbx
    3920:	48 09 e8             	or     rax,rbp
    3923:	4c 89 cd             	mov    rbp,r9
    3926:	4c 01 c0             	add    rax,r8
    3929:	49 b8 9b 4f 19 af a4 	movabs r8,0x923f82a4af194f9b
    3930:	82 3f 92 
    3933:	4c 03 84 24 20 01 00 	add    r8,QWORD PTR [rsp+0x120]
    393a:	00 
    393b:	48 01 f8             	add    rax,rdi
    393e:	48 89 cf             	mov    rdi,rcx
    3941:	48 31 d7             	xor    rdi,rdx
    3944:	4c 21 df             	and    rdi,r11
    3947:	4c 01 c6             	add    rsi,r8
    394a:	48 31 cf             	xor    rdi,rcx
    394d:	4d 89 d8             	mov    r8,r11
    3950:	48 01 f7             	add    rdi,rsi
    3953:	4c 89 de             	mov    rsi,r11
    3956:	49 c1 c8 12          	ror    r8,0x12
    395a:	48 c1 ce 0e          	ror    rsi,0xe
    395e:	49 31 f0             	xor    r8,rsi
    3961:	4c 89 de             	mov    rsi,r11
    3964:	48 c1 c6 17          	rol    rsi,0x17
    3968:	4c 31 c6             	xor    rsi,r8
    396b:	49 89 c0             	mov    r8,rax
    396e:	48 01 fe             	add    rsi,rdi
    3971:	48 89 c7             	mov    rdi,rax
    3974:	49 c1 c8 1c          	ror    r8,0x1c
    3978:	48 c1 c7 1e          	rol    rdi,0x1e
    397c:	48 01 f3             	add    rbx,rsi
    397f:	4c 31 c7             	xor    rdi,r8
    3982:	49 89 c0             	mov    r8,rax
    3985:	49 c1 c0 19          	rol    r8,0x19
    3989:	4c 31 c7             	xor    rdi,r8
    398c:	4d 89 c8             	mov    r8,r9
    398f:	49 09 c0             	or     r8,rax
    3992:	4d 21 d0             	and    r8,r10
    3995:	48 21 c5             	and    rbp,rax
    3998:	49 09 e8             	or     r8,rbp
    399b:	48 89 c5             	mov    rbp,rax
    399e:	49 01 f8             	add    r8,rdi
    39a1:	48 bf 18 81 6d da d5 	movabs rdi,0xab1c5ed5da6d8118
    39a8:	5e 1c ab 
    39ab:	48 03 bc 24 28 01 00 	add    rdi,QWORD PTR [rsp+0x128]
    39b2:	00 
    39b3:	49 01 f0             	add    r8,rsi
    39b6:	48 89 d6             	mov    rsi,rdx
    39b9:	4c 31 de             	xor    rsi,r11
    39bc:	4c 21 c5             	and    rbp,r8
    39bf:	48 21 de             	and    rsi,rbx
    39c2:	48 01 f9             	add    rcx,rdi
    39c5:	48 31 d6             	xor    rsi,rdx
    39c8:	48 89 df             	mov    rdi,rbx
    39cb:	48 01 ce             	add    rsi,rcx
    39ce:	48 89 d9             	mov    rcx,rbx
    39d1:	48 c1 cf 12          	ror    rdi,0x12
    39d5:	48 c1 c9 0e          	ror    rcx,0xe
    39d9:	48 31 cf             	xor    rdi,rcx
    39dc:	48 89 d9             	mov    rcx,rbx
    39df:	48 c1 c1 17          	rol    rcx,0x17
    39e3:	48 31 f9             	xor    rcx,rdi
    39e6:	4c 89 c7             	mov    rdi,r8
    39e9:	48 01 f1             	add    rcx,rsi
    39ec:	4c 89 c6             	mov    rsi,r8
    39ef:	48 c1 cf 1c          	ror    rdi,0x1c
    39f3:	48 c1 c6 1e          	rol    rsi,0x1e
    39f7:	49 01 ca             	add    r10,rcx
    39fa:	48 31 fe             	xor    rsi,rdi
    39fd:	4c 89 c7             	mov    rdi,r8
    3a00:	48 c1 c7 19          	rol    rdi,0x19
    3a04:	48 31 fe             	xor    rsi,rdi
    3a07:	48 89 c7             	mov    rdi,rax
    3a0a:	4c 09 c7             	or     rdi,r8
    3a0d:	4c 21 cf             	and    rdi,r9
    3a10:	48 09 ef             	or     rdi,rbp
    3a13:	4c 89 c5             	mov    rbp,r8
    3a16:	48 01 f7             	add    rdi,rsi
    3a19:	48 be 42 02 03 a3 98 	movabs rsi,0xd807aa98a3030242
    3a20:	aa 07 d8 
    3a23:	48 01 cf             	add    rdi,rcx
    3a26:	4c 89 d9             	mov    rcx,r11
    3a29:	48 31 d9             	xor    rcx,rbx
    3a2c:	4c 21 d1             	and    rcx,r10
    3a2f:	4c 31 d9             	xor    rcx,r11
    3a32:	48 03 b4 24 30 01 00 	add    rsi,QWORD PTR [rsp+0x130]
    3a39:	00 
    3a3a:	48 21 fd             	and    rbp,rdi
    3a3d:	48 01 f2             	add    rdx,rsi
    3a40:	4c 89 d6             	mov    rsi,r10
    3a43:	48 01 d1             	add    rcx,rdx
    3a46:	4c 89 d2             	mov    rdx,r10
    3a49:	48 c1 ce 12          	ror    rsi,0x12
    3a4d:	48 c1 ca 0e          	ror    rdx,0xe
    3a51:	48 31 d6             	xor    rsi,rdx
    3a54:	4c 89 d2             	mov    rdx,r10
    3a57:	48 c1 c2 17          	rol    rdx,0x17
    3a5b:	48 31 f2             	xor    rdx,rsi
    3a5e:	48 89 fe             	mov    rsi,rdi
    3a61:	48 01 ca             	add    rdx,rcx
    3a64:	48 89 f9             	mov    rcx,rdi
    3a67:	48 c1 ce 1c          	ror    rsi,0x1c
    3a6b:	48 c1 c1 1e          	rol    rcx,0x1e
    3a6f:	49 01 d1             	add    r9,rdx
    3a72:	48 31 f1             	xor    rcx,rsi
    3a75:	48 89 fe             	mov    rsi,rdi
    3a78:	48 c1 c6 19          	rol    rsi,0x19
    3a7c:	48 31 f1             	xor    rcx,rsi
    3a7f:	4c 89 c6             	mov    rsi,r8
    3a82:	48 09 fe             	or     rsi,rdi
    3a85:	48 21 c6             	and    rsi,rax
    3a88:	48 09 ee             	or     rsi,rbp
    3a8b:	48 89 fd             	mov    rbp,rdi
    3a8e:	48 01 ce             	add    rsi,rcx
    3a91:	48 b9 be 6f 70 45 01 	movabs rcx,0x12835b0145706fbe
    3a98:	5b 83 12 
    3a9b:	48 03 8c 24 38 01 00 	add    rcx,QWORD PTR [rsp+0x138]
    3aa2:	00 
    3aa3:	48 01 d6             	add    rsi,rdx
    3aa6:	48 89 da             	mov    rdx,rbx
    3aa9:	4c 31 d2             	xor    rdx,r10
    3aac:	4c 21 ca             	and    rdx,r9
    3aaf:	48 31 da             	xor    rdx,rbx
    3ab2:	49 01 cb             	add    r11,rcx
    3ab5:	4c 89 c9             	mov    rcx,r9
    3ab8:	49 01 d3             	add    r11,rdx
    3abb:	4c 89 ca             	mov    rdx,r9
    3abe:	48 c1 c9 12          	ror    rcx,0x12
    3ac2:	48 c1 ca 0e          	ror    rdx,0xe
    3ac6:	48 31 d1             	xor    rcx,rdx
    3ac9:	4c 89 ca             	mov    rdx,r9
    3acc:	48 c1 c2 17          	rol    rdx,0x17
    3ad0:	48 31 ca             	xor    rdx,rcx
    3ad3:	48 89 f1             	mov    rcx,rsi
    3ad6:	4c 01 da             	add    rdx,r11
    3ad9:	49 89 f3             	mov    r11,rsi
    3adc:	48 c1 c9 1c          	ror    rcx,0x1c
    3ae0:	49 c1 c3 1e          	rol    r11,0x1e
    3ae4:	48 21 f5             	and    rbp,rsi
    3ae7:	48 01 d0             	add    rax,rdx
    3aea:	49 31 cb             	xor    r11,rcx
    3aed:	48 89 f1             	mov    rcx,rsi
    3af0:	48 c1 c1 19          	rol    rcx,0x19
    3af4:	49 31 cb             	xor    r11,rcx
    3af7:	48 89 f9             	mov    rcx,rdi
    3afa:	48 09 f1             	or     rcx,rsi
    3afd:	4c 21 c1             	and    rcx,r8
    3b00:	48 09 e9             	or     rcx,rbp
    3b03:	48 89 f5             	mov    rbp,rsi
    3b06:	4c 01 d9             	add    rcx,r11
    3b09:	4d 89 d3             	mov    r11,r10
    3b0c:	48 01 d1             	add    rcx,rdx
    3b0f:	48 ba 8c b2 e4 4e be 	movabs rdx,0x243185be4ee4b28c
    3b16:	85 31 24 
    3b19:	48 03 94 24 40 01 00 	add    rdx,QWORD PTR [rsp+0x140]
    3b20:	00 
    3b21:	4d 31 cb             	xor    r11,r9
    3b24:	49 89 ce             	mov    r14,rcx
    3b27:	49 21 c3             	and    r11,rax
    3b2a:	49 c1 c6 1e          	rol    r14,0x1e
    3b2e:	4d 31 d3             	xor    r11,r10
    3b31:	48 01 d3             	add    rbx,rdx
    3b34:	48 89 c2             	mov    rdx,rax
    3b37:	4c 01 db             	add    rbx,r11
    3b3a:	49 89 c3             	mov    r11,rax
    3b3d:	48 c1 ca 12          	ror    rdx,0x12
    3b41:	49 c1 cb 0e          	ror    r11,0xe
    3b45:	4c 31 da             	xor    rdx,r11
    3b48:	49 89 c3             	mov    r11,rax
    3b4b:	49 c1 c3 17          	rol    r11,0x17
    3b4f:	49 31 d3             	xor    r11,rdx
    3b52:	48 89 ca             	mov    rdx,rcx
    3b55:	49 01 db             	add    r11,rbx
    3b58:	48 c1 ca 1c          	ror    rdx,0x1c
    3b5c:	4c 89 f3             	mov    rbx,r14
    3b5f:	48 31 d3             	xor    rbx,rdx
    3b62:	48 89 ca             	mov    rdx,rcx
    3b65:	4d 01 d8             	add    r8,r11
    3b68:	48 c1 c2 19          	rol    rdx,0x19
    3b6c:	4d 89 c5             	mov    r13,r8
    3b6f:	49 89 ce             	mov    r14,rcx
    3b72:	48 31 d3             	xor    rbx,rdx
    3b75:	48 89 f2             	mov    rdx,rsi
    3b78:	48 09 ca             	or     rdx,rcx
    3b7b:	48 21 fa             	and    rdx,rdi
    3b7e:	48 21 cd             	and    rbp,rcx
    3b81:	49 c1 cd 12          	ror    r13,0x12
    3b85:	48 09 ea             	or     rdx,rbp
    3b88:	48 01 da             	add    rdx,rbx
    3b8b:	48 bb e2 b4 ff d5 c3 	movabs rbx,0x550c7dc3d5ffb4e2
    3b92:	7d 0c 55 
    3b95:	48 03 9c 24 48 01 00 	add    rbx,QWORD PTR [rsp+0x148]
    3b9c:	00 
    3b9d:	4c 01 da             	add    rdx,r11
    3ba0:	4d 89 cb             	mov    r11,r9
    3ba3:	49 31 c3             	xor    r11,rax
    3ba6:	49 21 d6             	and    r14,rdx
    3ba9:	4d 21 c3             	and    r11,r8
    3bac:	49 01 da             	add    r10,rbx
    3baf:	4d 31 cb             	xor    r11,r9
    3bb2:	4f 8d 1c 13          	lea    r11,[r11+r10*1]
    3bb6:	4d 89 c2             	mov    r10,r8
    3bb9:	49 c1 ca 0e          	ror    r10,0xe
    3bbd:	4d 31 d5             	xor    r13,r10
    3bc0:	4d 89 c2             	mov    r10,r8
    3bc3:	49 c1 c2 17          	rol    r10,0x17
    3bc7:	4d 31 ea             	xor    r10,r13
    3bca:	49 89 d5             	mov    r13,rdx
    3bcd:	4d 01 da             	add    r10,r11
    3bd0:	49 89 d3             	mov    r11,rdx
    3bd3:	49 c1 cd 1c          	ror    r13,0x1c
    3bd7:	49 c1 c3 1e          	rol    r11,0x1e
    3bdb:	4c 01 d7             	add    rdi,r10
    3bde:	4d 31 eb             	xor    r11,r13
    3be1:	49 89 d5             	mov    r13,rdx
    3be4:	49 c1 c5 19          	rol    r13,0x19
    3be8:	4d 31 eb             	xor    r11,r13
    3beb:	49 89 cd             	mov    r13,rcx
    3bee:	49 09 d5             	or     r13,rdx
    3bf1:	49 21 f5             	and    r13,rsi
    3bf4:	4d 09 f5             	or     r13,r14
    3bf7:	49 89 fe             	mov    r14,rdi
    3bfa:	4d 01 dd             	add    r13,r11
    3bfd:	49 bb 6f 89 7b f2 74 	movabs r11,0x72be5d74f27b896f
    3c04:	5d be 72 
    3c07:	4c 03 9c 24 50 01 00 	add    r11,QWORD PTR [rsp+0x150]
    3c0e:	00 
    3c0f:	4d 01 d5             	add    r13,r10
    3c12:	49 89 c2             	mov    r10,rax
    3c15:	4d 31 c2             	xor    r10,r8
    3c18:	49 21 fa             	and    r10,rdi
    3c1b:	49 31 c2             	xor    r10,rax
    3c1e:	4d 01 d9             	add    r9,r11
    3c21:	49 c1 ce 12          	ror    r14,0x12
    3c25:	4f 8d 14 0a          	lea    r10,[r10+r9*1]
    3c29:	49 89 f9             	mov    r9,rdi
    3c2c:	49 89 d3             	mov    r11,rdx
    3c2f:	49 c1 c9 0e          	ror    r9,0xe
    3c33:	4d 21 eb             	and    r11,r13
    3c36:	4d 31 ce             	xor    r14,r9
    3c39:	49 89 f9             	mov    r9,rdi
    3c3c:	49 c1 c1 17          	rol    r9,0x17
    3c40:	4d 31 f1             	xor    r9,r14
    3c43:	4d 89 ee             	mov    r14,r13
    3c46:	4d 01 d1             	add    r9,r10
    3c49:	4d 89 ea             	mov    r10,r13
    3c4c:	49 c1 ce 1c          	ror    r14,0x1c
    3c50:	49 c1 c2 1e          	rol    r10,0x1e
    3c54:	4c 01 ce             	add    rsi,r9
    3c57:	4d 31 f2             	xor    r10,r14
    3c5a:	4d 89 ee             	mov    r14,r13
    3c5d:	49 89 f4             	mov    r12,rsi
    3c60:	49 c1 c6 19          	rol    r14,0x19
    3c64:	49 c1 cc 12          	ror    r12,0x12
    3c68:	4d 31 f2             	xor    r10,r14
    3c6b:	49 89 d6             	mov    r14,rdx
    3c6e:	4d 09 ee             	or     r14,r13
    3c71:	49 21 ce             	and    r14,rcx
    3c74:	4d 09 de             	or     r14,r11
    3c77:	4c 8b 9c 24 68 01 00 	mov    r11,QWORD PTR [rsp+0x168]
    3c7e:	00 
    3c7f:	4d 01 d6             	add    r14,r10
    3c82:	49 ba b1 96 16 3b fe 	movabs r10,0x80deb1fe3b1696b1
    3c89:	b1 de 80 
    3c8c:	4c 03 94 24 58 01 00 	add    r10,QWORD PTR [rsp+0x158]
    3c93:	00 
    3c94:	4d 01 ce             	add    r14,r9
    3c97:	4d 89 c1             	mov    r9,r8
    3c9a:	49 31 f9             	xor    r9,rdi
    3c9d:	49 21 f1             	and    r9,rsi
    3ca0:	4c 01 d0             	add    rax,r10
    3ca3:	4d 31 c1             	xor    r9,r8
    3ca6:	4d 89 ea             	mov    r10,r13
    3ca9:	4d 8d 0c 01          	lea    r9,[r9+rax*1]
    3cad:	48 89 f0             	mov    rax,rsi
    3cb0:	48 c1 c8 0e          	ror    rax,0xe
    3cb4:	49 31 c4             	xor    r12,rax
    3cb7:	48 89 f0             	mov    rax,rsi
    3cba:	48 c1 c0 17          	rol    rax,0x17
    3cbe:	4c 31 e0             	xor    rax,r12
    3cc1:	4d 89 f4             	mov    r12,r14
    3cc4:	4c 01 c8             	add    rax,r9
    3cc7:	4d 89 f1             	mov    r9,r14
    3cca:	49 c1 cc 1c          	ror    r12,0x1c
    3cce:	48 01 c1             	add    rcx,rax
    3cd1:	49 c1 c1 1e          	rol    r9,0x1e
    3cd5:	4d 21 f2             	and    r10,r14
    3cd8:	4d 31 e1             	xor    r9,r12
    3cdb:	4d 89 f4             	mov    r12,r14
    3cde:	48 89 cd             	mov    rbp,rcx
    3ce1:	49 c1 c4 19          	rol    r12,0x19
    3ce5:	48 c1 cd 12          	ror    rbp,0x12
    3ce9:	4d 31 e1             	xor    r9,r12
    3cec:	4d 89 ec             	mov    r12,r13
    3cef:	4d 09 f4             	or     r12,r14
    3cf2:	49 21 d4             	and    r12,rdx
    3cf5:	4d 09 d4             	or     r12,r10
    3cf8:	4d 89 fa             	mov    r10,r15
    3cfb:	4d 01 cc             	add    r12,r9
    3cfe:	49 b9 35 12 c7 25 a7 	movabs r9,0x9bdc06a725c71235
    3d05:	06 dc 9b 
    3d08:	4c 03 8c 24 60 01 00 	add    r9,QWORD PTR [rsp+0x160]
    3d0f:	00 
    3d10:	49 01 c4             	add    r12,rax
    3d13:	48 89 f8             	mov    rax,rdi
    3d16:	48 31 f0             	xor    rax,rsi
    3d19:	48 21 c8             	and    rax,rcx
    3d1c:	48 31 f8             	xor    rax,rdi
    3d1f:	4d 01 c8             	add    r8,r9
    3d22:	4d 89 f1             	mov    r9,r14
    3d25:	49 01 c0             	add    r8,rax
    3d28:	48 89 c8             	mov    rax,rcx
    3d2b:	4d 21 e1             	and    r9,r12
    3d2e:	48 c1 c8 0e          	ror    rax,0xe
    3d32:	48 31 c5             	xor    rbp,rax
    3d35:	48 89 c8             	mov    rax,rcx
    3d38:	48 c1 c0 17          	rol    rax,0x17
    3d3c:	48 31 e8             	xor    rax,rbp
    3d3f:	4c 89 e5             	mov    rbp,r12
    3d42:	4c 01 c0             	add    rax,r8
    3d45:	4d 89 e0             	mov    r8,r12
    3d48:	48 c1 cd 1c          	ror    rbp,0x1c
    3d4c:	49 c1 c0 1e          	rol    r8,0x1e
    3d50:	48 01 c2             	add    rdx,rax
    3d53:	49 31 e8             	xor    r8,rbp
    3d56:	4c 89 e5             	mov    rbp,r12
    3d59:	48 c1 c5 19          	rol    rbp,0x19
    3d5d:	49 31 e8             	xor    r8,rbp
    3d60:	4c 89 f5             	mov    rbp,r14
    3d63:	4c 09 e5             	or     rbp,r12
    3d66:	4c 21 ed             	and    rbp,r13
    3d69:	4c 09 cd             	or     rbp,r9
    3d6c:	4d 89 e1             	mov    r9,r12
    3d6f:	4c 01 c5             	add    rbp,r8
    3d72:	49 b8 94 26 69 cf 74 	movabs r8,0xc19bf174cf692694
    3d79:	f1 9b c1 
    3d7c:	4c 03 84 24 68 01 00 	add    r8,QWORD PTR [rsp+0x168]
    3d83:	00 
    3d84:	48 01 c5             	add    rbp,rax
    3d87:	48 89 f0             	mov    rax,rsi
    3d8a:	48 31 c8             	xor    rax,rcx
    3d8d:	49 21 e9             	and    r9,rbp
    3d90:	48 21 d0             	and    rax,rdx
    3d93:	48 31 f0             	xor    rax,rsi
    3d96:	4c 01 c7             	add    rdi,r8
    3d99:	49 89 d0             	mov    r8,rdx
    3d9c:	48 01 c7             	add    rdi,rax
    3d9f:	48 89 d0             	mov    rax,rdx
    3da2:	49 c1 c8 12          	ror    r8,0x12
    3da6:	48 c1 c8 0e          	ror    rax,0xe
    3daa:	49 31 c0             	xor    r8,rax
    3dad:	48 89 d0             	mov    rax,rdx
    3db0:	48 c1 c0 17          	rol    rax,0x17
    3db4:	4c 31 c0             	xor    rax,r8
    3db7:	49 89 e8             	mov    r8,rbp
    3dba:	48 01 f8             	add    rax,rdi
    3dbd:	48 89 ef             	mov    rdi,rbp
    3dc0:	49 c1 c8 1c          	ror    r8,0x1c
    3dc4:	48 c1 c7 1e          	rol    rdi,0x1e
    3dc8:	49 01 c5             	add    r13,rax
    3dcb:	4c 31 c7             	xor    rdi,r8
    3dce:	49 89 e8             	mov    r8,rbp
    3dd1:	49 c1 c0 19          	rol    r8,0x19
    3dd5:	4c 31 c7             	xor    rdi,r8
    3dd8:	4d 89 e0             	mov    r8,r12
    3ddb:	49 09 e8             	or     r8,rbp
    3dde:	4d 21 f0             	and    r8,r14
    3de1:	4d 09 c8             	or     r8,r9
    3de4:	49 89 e9             	mov    r9,rbp
    3de7:	49 01 f8             	add    r8,rdi
    3dea:	48 8b bc 24 60 01 00 	mov    rdi,QWORD PTR [rsp+0x160]
    3df1:	00 
    3df2:	49 01 c0             	add    r8,rax
    3df5:	48 8b 84 24 60 01 00 	mov    rax,QWORD PTR [rsp+0x160]
    3dfc:	00 
    3dfd:	48 c1 ef 06          	shr    rdi,0x6
    3e01:	48 c1 c8 13          	ror    rax,0x13
    3e05:	48 89 c3             	mov    rbx,rax
    3e08:	48 8b 84 24 60 01 00 	mov    rax,QWORD PTR [rsp+0x160]
    3e0f:	00 
    3e10:	48 c1 c0 03          	rol    rax,0x3
    3e14:	48 31 d8             	xor    rax,rbx
    3e17:	48 89 fb             	mov    rbx,rdi
    3e1a:	48 8b bc 24 f0 00 00 	mov    rdi,QWORD PTR [rsp+0xf0]
    3e21:	00 
    3e22:	48 03 bc 24 38 01 00 	add    rdi,QWORD PTR [rsp+0x138]
    3e29:	00 
    3e2a:	48 31 c3             	xor    rbx,rax
    3e2d:	48 8d 04 3b          	lea    rax,[rbx+rdi*1]
    3e31:	4c 89 ff             	mov    rdi,r15
    3e34:	48 d1 cf             	ror    rdi,1
    3e37:	49 c1 ca 08          	ror    r10,0x8
    3e3b:	4d 21 c1             	and    r9,r8
    3e3e:	4c 89 d3             	mov    rbx,r10
    3e41:	49 c1 cb 13          	ror    r11,0x13
    3e45:	4c 8b 94 24 08 01 00 	mov    r10,QWORD PTR [rsp+0x108]
    3e4c:	00 
    3e4d:	48 31 fb             	xor    rbx,rdi
    3e50:	4c 89 ff             	mov    rdi,r15
    3e53:	48 c1 ef 07          	shr    rdi,0x7
    3e57:	48 31 fb             	xor    rbx,rdi
    3e5a:	48 bf d2 4a f1 9e c1 	movabs rdi,0xe49b69c19ef14ad2
    3e61:	69 9b e4 
    3e64:	48 01 c3             	add    rbx,rax
    3e67:	48 89 c8             	mov    rax,rcx
    3e6a:	48 31 d0             	xor    rax,rdx
    3e6d:	48 01 df             	add    rdi,rbx
    3e70:	4c 21 e8             	and    rax,r13
    3e73:	48 01 fe             	add    rsi,rdi
    3e76:	4c 89 ef             	mov    rdi,r13
    3e79:	48 31 c8             	xor    rax,rcx
    3e7c:	48 c1 cf 12          	ror    rdi,0x12
    3e80:	48 01 c6             	add    rsi,rax
    3e83:	4c 89 e8             	mov    rax,r13
    3e86:	48 c1 c8 0e          	ror    rax,0xe
    3e8a:	48 31 c7             	xor    rdi,rax
    3e8d:	4c 89 e8             	mov    rax,r13
    3e90:	48 c1 c0 17          	rol    rax,0x17
    3e94:	48 31 f8             	xor    rax,rdi
    3e97:	4c 89 c7             	mov    rdi,r8
    3e9a:	48 01 f0             	add    rax,rsi
    3e9d:	4c 89 c6             	mov    rsi,r8
    3ea0:	48 c1 cf 1c          	ror    rdi,0x1c
    3ea4:	48 c1 c6 1e          	rol    rsi,0x1e
    3ea8:	49 01 c6             	add    r14,rax
    3eab:	48 31 fe             	xor    rsi,rdi
    3eae:	4c 89 c7             	mov    rdi,r8
    3eb1:	48 c1 c7 19          	rol    rdi,0x19
    3eb5:	48 31 fe             	xor    rsi,rdi
    3eb8:	48 89 ef             	mov    rdi,rbp
    3ebb:	4c 09 c7             	or     rdi,r8
    3ebe:	4c 21 e7             	and    rdi,r12
    3ec1:	4c 09 cf             	or     rdi,r9
    3ec4:	4d 89 c1             	mov    r9,r8
    3ec7:	48 01 f7             	add    rdi,rsi
    3eca:	48 8b b4 24 40 01 00 	mov    rsi,QWORD PTR [rsp+0x140]
    3ed1:	00 
    3ed2:	48 01 c7             	add    rdi,rax
    3ed5:	48 8b 84 24 68 01 00 	mov    rax,QWORD PTR [rsp+0x168]
    3edc:	00 
    3edd:	48 c1 c0 03          	rol    rax,0x3
    3ee1:	4c 31 d8             	xor    rax,r11
    3ee4:	4c 8b 9c 24 68 01 00 	mov    r11,QWORD PTR [rsp+0x168]
    3eeb:	00 
    3eec:	4c 01 fe             	add    rsi,r15
    3eef:	49 21 f9             	and    r9,rdi
    3ef2:	49 c1 eb 06          	shr    r11,0x6
    3ef6:	49 31 c3             	xor    r11,rax
    3ef9:	49 8d 04 33          	lea    rax,[r11+rsi*1]
    3efd:	48 8b b4 24 00 01 00 	mov    rsi,QWORD PTR [rsp+0x100]
    3f04:	00 
    3f05:	4c 8b 9c 24 00 01 00 	mov    r11,QWORD PTR [rsp+0x100]
    3f0c:	00 
    3f0d:	48 d1 ce             	ror    rsi,1
    3f10:	49 c1 cb 08          	ror    r11,0x8
    3f14:	49 31 f3             	xor    r11,rsi
    3f17:	48 8b b4 24 00 01 00 	mov    rsi,QWORD PTR [rsp+0x100]
    3f1e:	00 
    3f1f:	48 c1 ee 07          	shr    rsi,0x7
    3f23:	49 31 f3             	xor    r11,rsi
    3f26:	48 be e3 25 4f 38 86 	movabs rsi,0xefbe4786384f25e3
    3f2d:	47 be ef 
    3f30:	49 01 c3             	add    r11,rax
    3f33:	48 89 d0             	mov    rax,rdx
    3f36:	4c 31 e8             	xor    rax,r13
    3f39:	4c 01 de             	add    rsi,r11
    3f3c:	4c 21 f0             	and    rax,r14
    3f3f:	48 01 f1             	add    rcx,rsi
    3f42:	4c 89 f6             	mov    rsi,r14
    3f45:	48 31 d0             	xor    rax,rdx
    3f48:	48 c1 ce 12          	ror    rsi,0x12
    3f4c:	48 01 c1             	add    rcx,rax
    3f4f:	4c 89 f0             	mov    rax,r14
    3f52:	48 c1 c8 0e          	ror    rax,0xe
    3f56:	48 31 c6             	xor    rsi,rax
    3f59:	4c 89 f0             	mov    rax,r14
    3f5c:	48 c1 c0 17          	rol    rax,0x17
    3f60:	48 31 f0             	xor    rax,rsi
    3f63:	48 89 fe             	mov    rsi,rdi
    3f66:	48 01 c8             	add    rax,rcx
    3f69:	48 89 f9             	mov    rcx,rdi
    3f6c:	48 c1 ce 1c          	ror    rsi,0x1c
    3f70:	48 c1 c1 1e          	rol    rcx,0x1e
    3f74:	49 01 c4             	add    r12,rax
    3f77:	48 31 f1             	xor    rcx,rsi
    3f7a:	48 89 fe             	mov    rsi,rdi
    3f7d:	48 c1 c6 19          	rol    rsi,0x19
    3f81:	48 31 f1             	xor    rcx,rsi
    3f84:	4c 89 c6             	mov    rsi,r8
    3f87:	48 09 fe             	or     rsi,rdi
    3f8a:	48 21 ee             	and    rsi,rbp
    3f8d:	4c 09 ce             	or     rsi,r9
    3f90:	49 89 f9             	mov    r9,rdi
    3f93:	48 01 ce             	add    rsi,rcx
    3f96:	49 d1 ca             	ror    r10,1
    3f99:	48 01 c6             	add    rsi,rax
    3f9c:	48 8b 84 24 08 01 00 	mov    rax,QWORD PTR [rsp+0x108]
    3fa3:	00 
    3fa4:	49 89 f7             	mov    r15,rsi
    3fa7:	48 c1 c8 08          	ror    rax,0x8
    3fab:	4c 31 d0             	xor    rax,r10
    3fae:	4c 8b 94 24 08 01 00 	mov    r10,QWORD PTR [rsp+0x108]
    3fb5:	00 
    3fb6:	48 8b 8c 24 00 01 00 	mov    rcx,QWORD PTR [rsp+0x100]
    3fbd:	00 
    3fbe:	48 03 8c 24 48 01 00 	add    rcx,QWORD PTR [rsp+0x148]
    3fc5:	00 
    3fc6:	49 c1 ea 07          	shr    r10,0x7
    3fca:	49 31 c2             	xor    r10,rax
    3fcd:	49 8d 04 0a          	lea    rax,[r10+rcx*1]
    3fd1:	48 89 d9             	mov    rcx,rbx
    3fd4:	49 89 da             	mov    r10,rbx
    3fd7:	48 c1 c9 13          	ror    rcx,0x13
    3fdb:	49 c1 c2 03          	rol    r10,0x3
    3fdf:	49 31 ca             	xor    r10,rcx
    3fe2:	48 89 d9             	mov    rcx,rbx
    3fe5:	48 c1 e9 06          	shr    rcx,0x6
    3fe9:	49 31 ca             	xor    r10,rcx
    3fec:	48 b9 b5 d5 8c 8b c6 	movabs rcx,0xfc19dc68b8cd5b5
    3ff3:	9d c1 0f 
    3ff6:	49 01 c2             	add    r10,rax
    3ff9:	4c 89 e8             	mov    rax,r13
    3ffc:	4c 31 f0             	xor    rax,r14
    3fff:	4c 01 d1             	add    rcx,r10
    4002:	4c 21 e0             	and    rax,r12
    4005:	48 01 ca             	add    rdx,rcx
    4008:	4c 89 e1             	mov    rcx,r12
    400b:	4c 31 e8             	xor    rax,r13
    400e:	48 c1 c9 12          	ror    rcx,0x12
    4012:	48 01 c2             	add    rdx,rax
    4015:	4c 89 e0             	mov    rax,r12
    4018:	48 c1 c8 0e          	ror    rax,0xe
    401c:	48 31 c1             	xor    rcx,rax
    401f:	4c 89 e0             	mov    rax,r12
    4022:	48 c1 c0 17          	rol    rax,0x17
    4026:	48 31 c8             	xor    rax,rcx
    4029:	48 89 f1             	mov    rcx,rsi
    402c:	48 01 d0             	add    rax,rdx
    402f:	48 89 f2             	mov    rdx,rsi
    4032:	48 c1 c9 1c          	ror    rcx,0x1c
    4036:	48 c1 c2 1e          	rol    rdx,0x1e
    403a:	48 01 c5             	add    rbp,rax
    403d:	48 31 ca             	xor    rdx,rcx
    4040:	48 89 f1             	mov    rcx,rsi
    4043:	48 c1 c1 19          	rol    rcx,0x19
    4047:	48 31 ca             	xor    rdx,rcx
    404a:	48 89 f9             	mov    rcx,rdi
    404d:	48 09 f1             	or     rcx,rsi
    4050:	49 21 f1             	and    r9,rsi
    4053:	4c 21 c1             	and    rcx,r8
    4056:	4c 09 c9             	or     rcx,r9
    4059:	4c 8b 8c 24 10 01 00 	mov    r9,QWORD PTR [rsp+0x110]
    4060:	00 
    4061:	48 01 d1             	add    rcx,rdx
    4064:	48 8b 94 24 08 01 00 	mov    rdx,QWORD PTR [rsp+0x108]
    406b:	00 
    406c:	48 03 94 24 50 01 00 	add    rdx,QWORD PTR [rsp+0x150]
    4073:	00 
    4074:	48 01 c1             	add    rcx,rax
    4077:	48 8b 84 24 10 01 00 	mov    rax,QWORD PTR [rsp+0x110]
    407e:	00 
    407f:	49 d1 c9             	ror    r9,1
    4082:	48 c1 c8 08          	ror    rax,0x8
    4086:	4c 31 c8             	xor    rax,r9
    4089:	4c 8b 8c 24 10 01 00 	mov    r9,QWORD PTR [rsp+0x110]
    4090:	00 
    4091:	49 c1 e9 07          	shr    r9,0x7
    4095:	49 31 c1             	xor    r9,rax
    4098:	49 8d 04 11          	lea    rax,[r9+rdx*1]
    409c:	4c 89 da             	mov    rdx,r11
    409f:	4d 89 d9             	mov    r9,r11
    40a2:	48 c1 ca 13          	ror    rdx,0x13
    40a6:	49 c1 c1 03          	rol    r9,0x3
    40aa:	49 31 d1             	xor    r9,rdx
    40ad:	4c 89 da             	mov    rdx,r11
    40b0:	48 c1 ea 06          	shr    rdx,0x6
    40b4:	49 31 d1             	xor    r9,rdx
    40b7:	4c 89 f2             	mov    rdx,r14
    40ba:	49 01 c1             	add    r9,rax
    40bd:	4c 31 e2             	xor    rdx,r12
    40c0:	48 b8 65 9c ac 77 cc 	movabs rax,0x240ca1cc77ac9c65
    40c7:	a1 0c 24 
    40ca:	4c 01 c8             	add    rax,r9
    40cd:	48 21 ea             	and    rdx,rbp
    40d0:	4c 31 f2             	xor    rdx,r14
    40d3:	49 01 c5             	add    r13,rax
    40d6:	48 89 e8             	mov    rax,rbp
    40d9:	49 01 d5             	add    r13,rdx
    40dc:	48 89 ea             	mov    rdx,rbp
    40df:	48 c1 c8 12          	ror    rax,0x12
    40e3:	48 c1 ca 0e          	ror    rdx,0xe
    40e7:	48 31 d0             	xor    rax,rdx
    40ea:	48 89 ea             	mov    rdx,rbp
    40ed:	48 c1 c2 17          	rol    rdx,0x17
    40f1:	48 31 c2             	xor    rdx,rax
    40f4:	48 89 c8             	mov    rax,rcx
    40f7:	4c 01 ea             	add    rdx,r13
    40fa:	49 89 cd             	mov    r13,rcx
    40fd:	48 c1 c8 1c          	ror    rax,0x1c
    4101:	49 01 d0             	add    r8,rdx
    4104:	49 c1 c5 1e          	rol    r13,0x1e
    4108:	49 21 cf             	and    r15,rcx
    410b:	49 31 c5             	xor    r13,rax
    410e:	48 89 c8             	mov    rax,rcx
    4111:	48 c1 c0 19          	rol    rax,0x19
    4115:	49 31 c5             	xor    r13,rax
    4118:	48 89 f0             	mov    rax,rsi
    411b:	48 09 c8             	or     rax,rcx
    411e:	48 21 f8             	and    rax,rdi
    4121:	4c 09 f8             	or     rax,r15
    4124:	4d 89 d7             	mov    r15,r10
    4127:	4c 01 e8             	add    rax,r13
    412a:	4c 8b ac 24 18 01 00 	mov    r13,QWORD PTR [rsp+0x118]
    4131:	00 
    4132:	49 c1 cf 13          	ror    r15,0x13
    4136:	48 01 d0             	add    rax,rdx
    4139:	48 8b 94 24 18 01 00 	mov    rdx,QWORD PTR [rsp+0x118]
    4140:	00 
    4141:	49 c1 cd 08          	ror    r13,0x8
    4145:	48 d1 ca             	ror    rdx,1
    4148:	4c 31 ea             	xor    rdx,r13
    414b:	4c 8b ac 24 18 01 00 	mov    r13,QWORD PTR [rsp+0x118]
    4152:	00 
    4153:	49 c1 ed 07          	shr    r13,0x7
    4157:	49 31 d5             	xor    r13,rdx
    415a:	48 8b 94 24 10 01 00 	mov    rdx,QWORD PTR [rsp+0x110]
    4161:	00 
    4162:	48 03 94 24 58 01 00 	add    rdx,QWORD PTR [rsp+0x158]
    4169:	00 
    416a:	49 01 d5             	add    r13,rdx
    416d:	4c 89 d2             	mov    rdx,r10
    4170:	48 c1 c2 03          	rol    rdx,0x3
    4174:	4c 31 fa             	xor    rdx,r15
    4177:	4d 89 d7             	mov    r15,r10
    417a:	49 c1 ef 06          	shr    r15,0x6
    417e:	4c 31 fa             	xor    rdx,r15
    4181:	4d 8d 7c 15 00       	lea    r15,[r13+rdx*1+0x0]
    4186:	4d 89 e5             	mov    r13,r12
    4189:	48 ba 75 02 2b 59 6f 	movabs rdx,0x2de92c6f592b0275
    4190:	2c e9 2d 
    4193:	49 31 ed             	xor    r13,rbp
    4196:	4c 01 fa             	add    rdx,r15
    4199:	4d 21 c5             	and    r13,r8
    419c:	4c 89 7c 24 40       	mov    QWORD PTR [rsp+0x40],r15
    41a1:	4d 31 e5             	xor    r13,r12
    41a4:	49 01 d6             	add    r14,rdx
    41a7:	4c 89 c2             	mov    rdx,r8
    41aa:	4d 01 ee             	add    r14,r13
    41ad:	4d 89 c5             	mov    r13,r8
    41b0:	48 c1 ca 12          	ror    rdx,0x12
    41b4:	49 c1 cd 0e          	ror    r13,0xe
    41b8:	49 89 cf             	mov    r15,rcx
    41bb:	4c 31 ea             	xor    rdx,r13
    41be:	4d 89 c5             	mov    r13,r8
    41c1:	49 c1 c5 17          	rol    r13,0x17
    41c5:	49 31 d5             	xor    r13,rdx
    41c8:	48 89 c2             	mov    rdx,rax
    41cb:	49 21 c7             	and    r15,rax
    41ce:	4d 01 f5             	add    r13,r14
    41d1:	49 89 c6             	mov    r14,rax
    41d4:	48 c1 ca 1c          	ror    rdx,0x1c
    41d8:	49 c1 c6 1e          	rol    r14,0x1e
    41dc:	4c 01 ef             	add    rdi,r13
    41df:	49 31 d6             	xor    r14,rdx
    41e2:	48 89 c2             	mov    rdx,rax
    41e5:	48 c1 c2 19          	rol    rdx,0x19
    41e9:	49 31 d6             	xor    r14,rdx
    41ec:	48 89 ca             	mov    rdx,rcx
    41ef:	48 09 c2             	or     rdx,rax
    41f2:	48 21 f2             	and    rdx,rsi
    41f5:	4c 09 fa             	or     rdx,r15
    41f8:	4c 01 f2             	add    rdx,r14
    41fb:	4c 8b b4 24 20 01 00 	mov    r14,QWORD PTR [rsp+0x120]
    4202:	00 
    4203:	4c 01 ea             	add    rdx,r13
    4206:	4c 8b ac 24 20 01 00 	mov    r13,QWORD PTR [rsp+0x120]
    420d:	00 
    420e:	49 c1 ce 08          	ror    r14,0x8
    4212:	49 d1 cd             	ror    r13,1
    4215:	4d 31 f5             	xor    r13,r14
    4218:	4c 8b b4 24 20 01 00 	mov    r14,QWORD PTR [rsp+0x120]
    421f:	00 
    4220:	49 c1 ee 07          	shr    r14,0x7
    4224:	4d 31 ee             	xor    r14,r13
    4227:	4c 8b ac 24 18 01 00 	mov    r13,QWORD PTR [rsp+0x118]
    422e:	00 
    422f:	4c 03 ac 24 60 01 00 	add    r13,QWORD PTR [rsp+0x160]
    4236:	00 
    4237:	4d 01 ee             	add    r14,r13
    423a:	4d 89 cd             	mov    r13,r9
    423d:	49 c1 cd 13          	ror    r13,0x13
    4241:	4d 89 ef             	mov    r15,r13
    4244:	4d 89 cd             	mov    r13,r9
    4247:	49 c1 c5 03          	rol    r13,0x3
    424b:	4d 31 fd             	xor    r13,r15
    424e:	4d 89 cf             	mov    r15,r9
    4251:	49 c1 ef 06          	shr    r15,0x6
    4255:	4d 31 fd             	xor    r13,r15
    4258:	49 89 c7             	mov    r15,rax
    425b:	4d 01 ee             	add    r14,r13
    425e:	49 89 ed             	mov    r13,rbp
    4261:	4c 89 74 24 28       	mov    QWORD PTR [rsp+0x28],r14
    4266:	49 be 83 e4 a6 6e aa 	movabs r14,0x4a7484aa6ea6e483
    426d:	84 74 4a 
    4270:	4c 03 74 24 28       	add    r14,QWORD PTR [rsp+0x28]
    4275:	4d 31 c5             	xor    r13,r8
    4278:	49 21 fd             	and    r13,rdi
    427b:	49 31 ed             	xor    r13,rbp
    427e:	4d 01 f4             	add    r12,r14
    4281:	49 89 fe             	mov    r14,rdi
    4284:	49 c1 ce 0e          	ror    r14,0xe
    4288:	4f 8d 6c 25 00       	lea    r13,[r13+r12*1+0x0]
    428d:	49 21 d7             	and    r15,rdx
    4290:	4d 89 f4             	mov    r12,r14
    4293:	49 89 fe             	mov    r14,rdi
    4296:	49 c1 ce 12          	ror    r14,0x12
    429a:	4d 31 e6             	xor    r14,r12
    429d:	49 89 fc             	mov    r12,rdi
    42a0:	49 c1 c4 17          	rol    r12,0x17
    42a4:	4d 31 f4             	xor    r12,r14
    42a7:	49 89 d6             	mov    r14,rdx
    42aa:	4d 01 ec             	add    r12,r13
    42ad:	49 89 d5             	mov    r13,rdx
    42b0:	49 c1 ce 1c          	ror    r14,0x1c
    42b4:	49 c1 c5 1e          	rol    r13,0x1e
    42b8:	4c 01 e6             	add    rsi,r12
    42bb:	4d 31 f5             	xor    r13,r14
    42be:	49 89 d6             	mov    r14,rdx
    42c1:	49 c1 c6 19          	rol    r14,0x19
    42c5:	4d 31 f5             	xor    r13,r14
    42c8:	49 89 c6             	mov    r14,rax
    42cb:	49 09 d6             	or     r14,rdx
    42ce:	49 21 ce             	and    r14,rcx
    42d1:	4d 09 fe             	or     r14,r15
    42d4:	4d 01 ee             	add    r14,r13
    42d7:	4c 8b ac 24 28 01 00 	mov    r13,QWORD PTR [rsp+0x128]
    42de:	00 
    42df:	4d 01 e6             	add    r14,r12
    42e2:	49 d1 cd             	ror    r13,1
    42e5:	4d 89 ec             	mov    r12,r13
    42e8:	4c 8b ac 24 28 01 00 	mov    r13,QWORD PTR [rsp+0x128]
    42ef:	00 
    42f0:	49 c1 cd 08          	ror    r13,0x8
    42f4:	4d 31 ec             	xor    r12,r13
    42f7:	4c 8b ac 24 28 01 00 	mov    r13,QWORD PTR [rsp+0x128]
    42fe:	00 
    42ff:	49 c1 ed 07          	shr    r13,0x7
    4303:	4d 31 e5             	xor    r13,r12
    4306:	4c 8b a4 24 20 01 00 	mov    r12,QWORD PTR [rsp+0x120]
    430d:	00 
    430e:	4c 03 a4 24 68 01 00 	add    r12,QWORD PTR [rsp+0x168]
    4315:	00 
    4316:	4d 01 e5             	add    r13,r12
    4319:	4c 8b 64 24 40       	mov    r12,QWORD PTR [rsp+0x40]
    431e:	4d 89 e7             	mov    r15,r12
    4321:	49 c1 c4 03          	rol    r12,0x3
    4325:	49 c1 cf 13          	ror    r15,0x13
    4329:	4d 31 fc             	xor    r12,r15
    432c:	4c 8b 7c 24 40       	mov    r15,QWORD PTR [rsp+0x40]
    4331:	49 c1 ef 06          	shr    r15,0x6
    4335:	4d 31 fc             	xor    r12,r15
    4338:	4f 8d 7c 25 00       	lea    r15,[r13+r12*1+0x0]
    433d:	4d 89 c5             	mov    r13,r8
    4340:	49 31 fd             	xor    r13,rdi
    4343:	4d 89 ec             	mov    r12,r13
    4346:	4c 89 7c 24 30       	mov    QWORD PTR [rsp+0x30],r15
    434b:	49 bd d4 fb 41 bd dc 	movabs r13,0x5cb0a9dcbd41fbd4
    4352:	a9 b0 5c 
    4355:	49 21 f4             	and    r12,rsi
    4358:	4d 89 e7             	mov    r15,r12
    435b:	4d 31 c7             	xor    r15,r8
    435e:	4c 03 6c 24 30       	add    r13,QWORD PTR [rsp+0x30]
    4363:	4c 01 ed             	add    rbp,r13
    4366:	49 89 f5             	mov    r13,rsi
    4369:	4d 8d 24 2f          	lea    r12,[r15+rbp*1]
    436d:	48 89 f5             	mov    rbp,rsi
    4370:	49 c1 cd 12          	ror    r13,0x12
    4374:	48 c1 cd 0e          	ror    rbp,0xe
    4378:	4d 89 f7             	mov    r15,r14
    437b:	49 31 ed             	xor    r13,rbp
    437e:	48 89 f5             	mov    rbp,rsi
    4381:	49 c1 c7 1e          	rol    r15,0x1e
    4385:	48 c1 c5 17          	rol    rbp,0x17
    4389:	4c 31 ed             	xor    rbp,r13
    438c:	4d 89 f5             	mov    r13,r14
    438f:	4c 01 e5             	add    rbp,r12
    4392:	49 c1 cd 1c          	ror    r13,0x1c
    4396:	4d 89 fc             	mov    r12,r15
    4399:	4d 31 ec             	xor    r12,r13
    439c:	4d 89 f5             	mov    r13,r14
    439f:	49 89 d7             	mov    r15,rdx
    43a2:	49 c1 c5 19          	rol    r13,0x19
    43a6:	4d 21 f7             	and    r15,r14
    43a9:	48 01 e9             	add    rcx,rbp
    43ac:	4d 31 ec             	xor    r12,r13
    43af:	49 89 d5             	mov    r13,rdx
    43b2:	4d 09 f5             	or     r13,r14
    43b5:	49 21 c5             	and    r13,rax
    43b8:	4d 09 fd             	or     r13,r15
    43bb:	4c 8b bc 24 30 01 00 	mov    r15,QWORD PTR [rsp+0x130]
    43c2:	00 
    43c3:	4d 01 e5             	add    r13,r12
    43c6:	49 01 ed             	add    r13,rbp
    43c9:	48 8b ac 24 30 01 00 	mov    rbp,QWORD PTR [rsp+0x130]
    43d0:	00 
    43d1:	49 d1 cf             	ror    r15,1
    43d4:	48 c1 cd 08          	ror    rbp,0x8
    43d8:	4c 31 fd             	xor    rbp,r15
    43db:	4c 8b bc 24 30 01 00 	mov    r15,QWORD PTR [rsp+0x130]
    43e2:	00 
    43e3:	4c 8b 64 24 28       	mov    r12,QWORD PTR [rsp+0x28]
    43e8:	49 c1 ef 07          	shr    r15,0x7
    43ec:	4c 31 fd             	xor    rbp,r15
    43ef:	4d 89 e7             	mov    r15,r12
    43f2:	49 c1 c4 03          	rol    r12,0x3
    43f6:	49 c1 cf 13          	ror    r15,0x13
    43fa:	48 03 ac 24 28 01 00 	add    rbp,QWORD PTR [rsp+0x128]
    4401:	00 
    4402:	4d 31 fc             	xor    r12,r15
    4405:	4c 8b 7c 24 28       	mov    r15,QWORD PTR [rsp+0x28]
    440a:	49 c1 ef 06          	shr    r15,0x6
    440e:	48 01 dd             	add    rbp,rbx
    4411:	4d 31 fc             	xor    r12,r15
    4414:	4c 01 e5             	add    rbp,r12
    4417:	49 bc b5 53 11 83 da 	movabs r12,0x76f988da831153b5
    441e:	88 f9 76 
    4421:	48 89 2c 24          	mov    QWORD PTR [rsp],rbp
    4425:	48 89 fd             	mov    rbp,rdi
    4428:	4c 03 24 24          	add    r12,QWORD PTR [rsp]
    442c:	48 31 f5             	xor    rbp,rsi
    442f:	48 21 cd             	and    rbp,rcx
    4432:	49 89 ef             	mov    r15,rbp
    4435:	49 31 ff             	xor    r15,rdi
    4438:	4d 01 e0             	add    r8,r12
    443b:	4b 8d 2c 07          	lea    rbp,[r15+r8*1]
    443f:	49 89 cf             	mov    r15,rcx
    4442:	49 89 c8             	mov    r8,rcx
    4445:	49 c1 cf 12          	ror    r15,0x12
    4449:	49 c1 c8 0e          	ror    r8,0xe
    444d:	4d 89 fc             	mov    r12,r15
    4450:	4d 89 ef             	mov    r15,r13
    4453:	4d 31 c4             	xor    r12,r8
    4456:	49 89 c8             	mov    r8,rcx
    4459:	49 c1 cf 1c          	ror    r15,0x1c
    445d:	49 c1 c0 17          	rol    r8,0x17
    4461:	4d 31 e0             	xor    r8,r12
    4464:	49 01 e8             	add    r8,rbp
    4467:	4c 89 ed             	mov    rbp,r13
    446a:	48 c1 c5 1e          	rol    rbp,0x1e
    446e:	4c 01 c0             	add    rax,r8
    4471:	4c 31 fd             	xor    rbp,r15
    4474:	4d 89 ef             	mov    r15,r13
    4477:	49 c1 c7 19          	rol    r15,0x19
    447b:	4c 31 fd             	xor    rbp,r15
    447e:	4d 89 f7             	mov    r15,r14
    4481:	4d 09 ef             	or     r15,r13
    4484:	4d 89 fc             	mov    r12,r15
    4487:	4d 89 f7             	mov    r15,r14
    448a:	4d 21 ef             	and    r15,r13
    448d:	49 21 d4             	and    r12,rdx
    4490:	4d 09 fc             	or     r12,r15
    4493:	49 01 ec             	add    r12,rbp
    4496:	4d 01 c4             	add    r12,r8
    4499:	4c 8b 84 24 38 01 00 	mov    r8,QWORD PTR [rsp+0x138]
    44a0:	00 
    44a1:	49 d1 c8             	ror    r8,1
    44a4:	4c 89 c5             	mov    rbp,r8
    44a7:	4c 8b 84 24 38 01 00 	mov    r8,QWORD PTR [rsp+0x138]
    44ae:	00 
    44af:	49 c1 c8 08          	ror    r8,0x8
    44b3:	49 31 e8             	xor    r8,rbp
    44b6:	48 8b ac 24 38 01 00 	mov    rbp,QWORD PTR [rsp+0x138]
    44bd:	00 
    44be:	48 c1 ed 07          	shr    rbp,0x7
    44c2:	49 31 e8             	xor    r8,rbp
    44c5:	48 8b 6c 24 30       	mov    rbp,QWORD PTR [rsp+0x30]
    44ca:	4c 03 84 24 30 01 00 	add    r8,QWORD PTR [rsp+0x130]
    44d1:	00 
    44d2:	49 89 ef             	mov    r15,rbp
    44d5:	4d 01 d8             	add    r8,r11
    44d8:	49 c1 cf 13          	ror    r15,0x13
    44dc:	48 c1 c5 03          	rol    rbp,0x3
    44e0:	4c 31 fd             	xor    rbp,r15
    44e3:	4c 8b 7c 24 30       	mov    r15,QWORD PTR [rsp+0x30]
    44e8:	49 c1 ef 06          	shr    r15,0x6
    44ec:	4c 31 fd             	xor    rbp,r15
    44ef:	4d 89 ef             	mov    r15,r13
    44f2:	49 01 e8             	add    r8,rbp
    44f5:	48 bd ab df 66 ee 52 	movabs rbp,0x983e5152ee66dfab
    44fc:	51 3e 98 
    44ff:	4d 21 e7             	and    r15,r12
    4502:	4c 89 44 24 38       	mov    QWORD PTR [rsp+0x38],r8
    4507:	48 03 6c 24 38       	add    rbp,QWORD PTR [rsp+0x38]
    450c:	49 89 f0             	mov    r8,rsi
    450f:	49 31 c8             	xor    r8,rcx
    4512:	49 21 c0             	and    r8,rax
    4515:	49 31 f0             	xor    r8,rsi
    4518:	48 01 ef             	add    rdi,rbp
    451b:	48 89 c5             	mov    rbp,rax
    451e:	4d 8d 04 38          	lea    r8,[r8+rdi*1]
    4522:	48 89 c7             	mov    rdi,rax
    4525:	48 c1 cd 12          	ror    rbp,0x12
    4529:	48 c1 cf 0e          	ror    rdi,0xe
    452d:	48 31 fd             	xor    rbp,rdi
    4530:	48 89 c7             	mov    rdi,rax
    4533:	48 c1 c7 17          	rol    rdi,0x17
    4537:	48 31 ef             	xor    rdi,rbp
    453a:	4c 89 e5             	mov    rbp,r12
    453d:	4c 01 c7             	add    rdi,r8
    4540:	4d 89 e0             	mov    r8,r12
    4543:	48 c1 cd 1c          	ror    rbp,0x1c
    4547:	49 c1 c0 1e          	rol    r8,0x1e
    454b:	48 01 fa             	add    rdx,rdi
    454e:	49 31 e8             	xor    r8,rbp
    4551:	4c 89 e5             	mov    rbp,r12
    4554:	48 c1 c5 19          	rol    rbp,0x19
    4558:	49 31 e8             	xor    r8,rbp
    455b:	4c 89 ed             	mov    rbp,r13
    455e:	4c 09 e5             	or     rbp,r12
    4561:	4c 21 f5             	and    rbp,r14
    4564:	4c 09 fd             	or     rbp,r15
    4567:	4c 01 c5             	add    rbp,r8
    456a:	48 01 fd             	add    rbp,rdi
    456d:	48 8b bc 24 40 01 00 	mov    rdi,QWORD PTR [rsp+0x140]
    4574:	00 
    4575:	48 d1 cf             	ror    rdi,1
    4578:	49 89 f8             	mov    r8,rdi
    457b:	48 8b bc 24 40 01 00 	mov    rdi,QWORD PTR [rsp+0x140]
    4582:	00 
    4583:	48 c1 cf 08          	ror    rdi,0x8
    4587:	4c 31 c7             	xor    rdi,r8
    458a:	4c 8b 84 24 40 01 00 	mov    r8,QWORD PTR [rsp+0x140]
    4591:	00 
    4592:	49 c1 e8 07          	shr    r8,0x7
    4596:	4c 31 c7             	xor    rdi,r8
    4599:	4c 8b 04 24          	mov    r8,QWORD PTR [rsp]
    459d:	48 03 bc 24 38 01 00 	add    rdi,QWORD PTR [rsp+0x138]
    45a4:	00 
    45a5:	4d 89 c7             	mov    r15,r8
    45a8:	49 c1 c0 03          	rol    r8,0x3
    45ac:	49 c1 cf 13          	ror    r15,0x13
    45b0:	4c 01 d7             	add    rdi,r10
    45b3:	4d 31 f8             	xor    r8,r15
    45b6:	4c 8b 3c 24          	mov    r15,QWORD PTR [rsp]
    45ba:	49 c1 ef 06          	shr    r15,0x6
    45be:	4d 31 f8             	xor    r8,r15
    45c1:	4d 89 e7             	mov    r15,r12
    45c4:	4c 01 c7             	add    rdi,r8
    45c7:	49 b8 10 32 b4 2d 6d 	movabs r8,0xa831c66d2db43210
    45ce:	c6 31 a8 
    45d1:	49 21 ef             	and    r15,rbp
    45d4:	48 89 7c 24 08       	mov    QWORD PTR [rsp+0x8],rdi
    45d9:	4c 03 44 24 08       	add    r8,QWORD PTR [rsp+0x8]
    45de:	48 89 cf             	mov    rdi,rcx
    45e1:	48 31 c7             	xor    rdi,rax
    45e4:	48 21 d7             	and    rdi,rdx
    45e7:	48 31 cf             	xor    rdi,rcx
    45ea:	4c 01 c6             	add    rsi,r8
    45ed:	49 89 d0             	mov    r8,rdx
    45f0:	48 8d 3c 37          	lea    rdi,[rdi+rsi*1]
    45f4:	48 89 d6             	mov    rsi,rdx
    45f7:	49 c1 c8 12          	ror    r8,0x12
    45fb:	48 c1 ce 0e          	ror    rsi,0xe
    45ff:	49 31 f0             	xor    r8,rsi
    4602:	48 89 d6             	mov    rsi,rdx
    4605:	48 c1 c6 17          	rol    rsi,0x17
    4609:	4c 31 c6             	xor    rsi,r8
    460c:	49 89 e8             	mov    r8,rbp
    460f:	48 01 fe             	add    rsi,rdi
    4612:	48 89 ef             	mov    rdi,rbp
    4615:	49 c1 c8 1c          	ror    r8,0x1c
    4619:	48 c1 c7 1e          	rol    rdi,0x1e
    461d:	49 01 f6             	add    r14,rsi
    4620:	4c 31 c7             	xor    rdi,r8
    4623:	49 89 e8             	mov    r8,rbp
    4626:	49 c1 c0 19          	rol    r8,0x19
    462a:	4c 31 c7             	xor    rdi,r8
    462d:	4d 89 e0             	mov    r8,r12
    4630:	49 09 e8             	or     r8,rbp
    4633:	4d 21 e8             	and    r8,r13
    4636:	4d 09 f8             	or     r8,r15
    4639:	49 01 f8             	add    r8,rdi
    463c:	49 01 f0             	add    r8,rsi
    463f:	48 8b b4 24 48 01 00 	mov    rsi,QWORD PTR [rsp+0x148]
    4646:	00 
    4647:	48 d1 ce             	ror    rsi,1
    464a:	48 89 f7             	mov    rdi,rsi
    464d:	48 8b b4 24 48 01 00 	mov    rsi,QWORD PTR [rsp+0x148]
    4654:	00 
    4655:	48 c1 ce 08          	ror    rsi,0x8
    4659:	48 31 fe             	xor    rsi,rdi
    465c:	48 8b bc 24 48 01 00 	mov    rdi,QWORD PTR [rsp+0x148]
    4663:	00 
    4664:	48 c1 ef 07          	shr    rdi,0x7
    4668:	48 31 fe             	xor    rsi,rdi
    466b:	48 8b 7c 24 38       	mov    rdi,QWORD PTR [rsp+0x38]
    4670:	48 03 b4 24 40 01 00 	add    rsi,QWORD PTR [rsp+0x140]
    4677:	00 
    4678:	49 89 ff             	mov    r15,rdi
    467b:	48 c1 c7 03          	rol    rdi,0x3
    467f:	49 c1 cf 13          	ror    r15,0x13
    4683:	4c 01 ce             	add    rsi,r9
    4686:	4c 31 ff             	xor    rdi,r15
    4689:	4c 8b 7c 24 38       	mov    r15,QWORD PTR [rsp+0x38]
    468e:	49 c1 ef 06          	shr    r15,0x6
    4692:	4c 31 ff             	xor    rdi,r15
    4695:	49 89 ef             	mov    r15,rbp
    4698:	48 01 fe             	add    rsi,rdi
    469b:	48 bf 3f 21 fb 98 c8 	movabs rdi,0xb00327c898fb213f
    46a2:	27 03 b0 
    46a5:	48 89 74 24 10       	mov    QWORD PTR [rsp+0x10],rsi
    46aa:	48 03 7c 24 10       	add    rdi,QWORD PTR [rsp+0x10]
    46af:	48 89 c6             	mov    rsi,rax
    46b2:	48 31 d6             	xor    rsi,rdx
    46b5:	4c 21 f6             	and    rsi,r14
    46b8:	48 31 c6             	xor    rsi,rax
    46bb:	48 01 f9             	add    rcx,rdi
    46be:	4c 89 f7             	mov    rdi,r14
    46c1:	48 8d 34 0e          	lea    rsi,[rsi+rcx*1]
    46c5:	4c 89 f1             	mov    rcx,r14
    46c8:	48 c1 cf 12          	ror    rdi,0x12
    46cc:	48 c1 c9 0e          	ror    rcx,0xe
    46d0:	48 31 cf             	xor    rdi,rcx
    46d3:	4c 89 f1             	mov    rcx,r14
    46d6:	48 c1 c1 17          	rol    rcx,0x17
    46da:	48 31 f9             	xor    rcx,rdi
    46dd:	4c 89 c7             	mov    rdi,r8
    46e0:	48 01 f1             	add    rcx,rsi
    46e3:	4c 89 c6             	mov    rsi,r8
    46e6:	48 c1 cf 1c          	ror    rdi,0x1c
    46ea:	48 c1 c6 1e          	rol    rsi,0x1e
    46ee:	49 01 cd             	add    r13,rcx
    46f1:	48 31 fe             	xor    rsi,rdi
    46f4:	4c 89 c7             	mov    rdi,r8
    46f7:	48 c1 c7 19          	rol    rdi,0x19
    46fb:	48 31 fe             	xor    rsi,rdi
    46fe:	48 89 ef             	mov    rdi,rbp
    4701:	4c 09 c7             	or     rdi,r8
    4704:	4c 21 e7             	and    rdi,r12
    4707:	4d 21 c7             	and    r15,r8
    470a:	4c 09 ff             	or     rdi,r15
    470d:	48 01 f7             	add    rdi,rsi
    4710:	48 01 cf             	add    rdi,rcx
    4713:	48 8b 8c 24 50 01 00 	mov    rcx,QWORD PTR [rsp+0x150]
    471a:	00 
    471b:	48 d1 c9             	ror    rcx,1
    471e:	48 89 ce             	mov    rsi,rcx
    4721:	48 8b 8c 24 50 01 00 	mov    rcx,QWORD PTR [rsp+0x150]
    4728:	00 
    4729:	48 c1 c9 08          	ror    rcx,0x8
    472d:	48 31 f1             	xor    rcx,rsi
    4730:	48 8b b4 24 50 01 00 	mov    rsi,QWORD PTR [rsp+0x150]
    4737:	00 
    4738:	48 c1 ee 07          	shr    rsi,0x7
    473c:	48 31 f1             	xor    rcx,rsi
    473f:	48 8b 74 24 08       	mov    rsi,QWORD PTR [rsp+0x8]
    4744:	48 03 8c 24 48 01 00 	add    rcx,QWORD PTR [rsp+0x148]
    474b:	00 
    474c:	48 03 4c 24 40       	add    rcx,QWORD PTR [rsp+0x40]
    4751:	49 89 f7             	mov    r15,rsi
    4754:	48 c1 c6 03          	rol    rsi,0x3
    4758:	49 c1 cf 13          	ror    r15,0x13
    475c:	4c 31 fe             	xor    rsi,r15
    475f:	4c 8b 7c 24 08       	mov    r15,QWORD PTR [rsp+0x8]
    4764:	49 c1 ef 06          	shr    r15,0x6
    4768:	4c 31 fe             	xor    rsi,r15
    476b:	49 bf e4 0e ef be c7 	movabs r15,0xbf597fc7beef0ee4
    4772:	7f 59 bf 
    4775:	48 01 f1             	add    rcx,rsi
    4778:	48 89 ce             	mov    rsi,rcx
    477b:	48 89 d1             	mov    rcx,rdx
    477e:	4c 31 f1             	xor    rcx,r14
    4781:	49 01 f7             	add    r15,rsi
    4784:	48 89 74 24 48       	mov    QWORD PTR [rsp+0x48],rsi
    4789:	4c 21 e9             	and    rcx,r13
    478c:	4c 01 f8             	add    rax,r15
    478f:	49 89 ff             	mov    r15,rdi
    4792:	48 31 d1             	xor    rcx,rdx
    4795:	49 c1 c7 1e          	rol    r15,0x1e
    4799:	48 8d 34 01          	lea    rsi,[rcx+rax*1]
    479d:	4c 89 e8             	mov    rax,r13
    47a0:	48 c1 c8 0e          	ror    rax,0xe
    47a4:	48 89 c1             	mov    rcx,rax
    47a7:	4c 89 e8             	mov    rax,r13
    47aa:	48 c1 c8 12          	ror    rax,0x12
    47ae:	48 31 c8             	xor    rax,rcx
    47b1:	4c 89 e9             	mov    rcx,r13
    47b4:	48 c1 c1 17          	rol    rcx,0x17
    47b8:	48 31 c1             	xor    rcx,rax
    47bb:	48 89 f8             	mov    rax,rdi
    47be:	48 01 f1             	add    rcx,rsi
    47c1:	48 c1 c8 1c          	ror    rax,0x1c
    47c5:	4c 89 fe             	mov    rsi,r15
    47c8:	49 01 cc             	add    r12,rcx
    47cb:	48 31 c6             	xor    rsi,rax
    47ce:	48 89 f8             	mov    rax,rdi
    47d1:	48 c1 c0 19          	rol    rax,0x19
    47d5:	4d 89 c7             	mov    r15,r8
    47d8:	48 31 c6             	xor    rsi,rax
    47db:	4c 89 c0             	mov    rax,r8
    47de:	49 21 ff             	and    r15,rdi
    47e1:	48 09 f8             	or     rax,rdi
    47e4:	48 21 e8             	and    rax,rbp
    47e7:	4c 09 f8             	or     rax,r15
    47ea:	4c 8b bc 24 58 01 00 	mov    r15,QWORD PTR [rsp+0x158]
    47f1:	00 
    47f2:	48 01 f0             	add    rax,rsi
    47f5:	48 01 c8             	add    rax,rcx
    47f8:	48 8b 8c 24 58 01 00 	mov    rcx,QWORD PTR [rsp+0x158]
    47ff:	00 
    4800:	49 c1 ef 07          	shr    r15,0x7
    4804:	48 d1 c9             	ror    rcx,1
    4807:	48 89 ce             	mov    rsi,rcx
    480a:	48 8b 8c 24 58 01 00 	mov    rcx,QWORD PTR [rsp+0x158]
    4811:	00 
    4812:	48 c1 c9 08          	ror    rcx,0x8
    4816:	48 31 f1             	xor    rcx,rsi
    4819:	48 8b 74 24 10       	mov    rsi,QWORD PTR [rsp+0x10]
    481e:	4c 31 f9             	xor    rcx,r15
    4821:	48 03 8c 24 50 01 00 	add    rcx,QWORD PTR [rsp+0x150]
    4828:	00 
    4829:	48 03 4c 24 28       	add    rcx,QWORD PTR [rsp+0x28]
    482e:	49 89 f7             	mov    r15,rsi
    4831:	48 c1 c6 03          	rol    rsi,0x3
    4835:	49 c1 cf 13          	ror    r15,0x13
    4839:	4c 31 fe             	xor    rsi,r15
    483c:	4c 8b 7c 24 10       	mov    r15,QWORD PTR [rsp+0x10]
    4841:	49 c1 ef 06          	shr    r15,0x6
    4845:	4c 31 fe             	xor    rsi,r15
    4848:	49 89 ff             	mov    r15,rdi
    484b:	48 01 f1             	add    rcx,rsi
    484e:	48 be c2 8f a8 3d f3 	movabs rsi,0xc6e00bf33da88fc2
    4855:	0b e0 c6 
    4858:	48 89 4c 24 18       	mov    QWORD PTR [rsp+0x18],rcx
    485d:	48 03 74 24 18       	add    rsi,QWORD PTR [rsp+0x18]
    4862:	4c 89 f1             	mov    rcx,r14
    4865:	4c 31 e9             	xor    rcx,r13
    4868:	4c 21 e1             	and    rcx,r12
    486b:	4c 31 f1             	xor    rcx,r14
    486e:	48 01 f2             	add    rdx,rsi
    4871:	4c 89 e6             	mov    rsi,r12
    4874:	48 8d 0c 11          	lea    rcx,[rcx+rdx*1]
    4878:	4c 89 e2             	mov    rdx,r12
    487b:	48 c1 ce 12          	ror    rsi,0x12
    487f:	48 c1 ca 0e          	ror    rdx,0xe
    4883:	48 31 d6             	xor    rsi,rdx
    4886:	4c 89 e2             	mov    rdx,r12
    4889:	48 c1 c2 17          	rol    rdx,0x17
    488d:	48 31 f2             	xor    rdx,rsi
    4890:	48 01 ca             	add    rdx,rcx
    4893:	48 89 c1             	mov    rcx,rax
    4896:	49 21 c7             	and    r15,rax
    4899:	48 c1 c9 1c          	ror    rcx,0x1c
    489d:	48 01 d5             	add    rbp,rdx
    48a0:	48 89 ce             	mov    rsi,rcx
    48a3:	48 89 c1             	mov    rcx,rax
    48a6:	48 c1 c1 1e          	rol    rcx,0x1e
    48aa:	48 31 f1             	xor    rcx,rsi
    48ad:	48 89 c6             	mov    rsi,rax
    48b0:	48 c1 c6 19          	rol    rsi,0x19
    48b4:	48 31 f1             	xor    rcx,rsi
    48b7:	48 89 fe             	mov    rsi,rdi
    48ba:	48 09 c6             	or     rsi,rax
    48bd:	4c 21 c6             	and    rsi,r8
    48c0:	4c 09 fe             	or     rsi,r15
    48c3:	48 01 ce             	add    rsi,rcx
    48c6:	48 01 d6             	add    rsi,rdx
    48c9:	48 8b 94 24 60 01 00 	mov    rdx,QWORD PTR [rsp+0x160]
    48d0:	00 
    48d1:	48 d1 ca             	ror    rdx,1
    48d4:	48 89 d1             	mov    rcx,rdx
    48d7:	48 8b 94 24 60 01 00 	mov    rdx,QWORD PTR [rsp+0x160]
    48de:	00 
    48df:	48 c1 ca 08          	ror    rdx,0x8
    48e3:	48 31 ca             	xor    rdx,rcx
    48e6:	48 8b 8c 24 60 01 00 	mov    rcx,QWORD PTR [rsp+0x160]
    48ed:	00 
    48ee:	48 c1 e9 07          	shr    rcx,0x7
    48f2:	48 31 ca             	xor    rdx,rcx
    48f5:	48 8b 4c 24 48       	mov    rcx,QWORD PTR [rsp+0x48]
    48fa:	48 03 94 24 58 01 00 	add    rdx,QWORD PTR [rsp+0x158]
    4901:	00 
    4902:	48 03 54 24 30       	add    rdx,QWORD PTR [rsp+0x30]
    4907:	49 89 cf             	mov    r15,rcx
    490a:	48 c1 c1 03          	rol    rcx,0x3
    490e:	49 c1 cf 13          	ror    r15,0x13
    4912:	4c 31 f9             	xor    rcx,r15
    4915:	4c 8b 7c 24 48       	mov    r15,QWORD PTR [rsp+0x48]
    491a:	49 c1 ef 06          	shr    r15,0x6
    491e:	4c 31 f9             	xor    rcx,r15
    4921:	48 01 ca             	add    rdx,rcx
    4924:	48 b9 25 a7 0a 93 47 	movabs rcx,0xd5a79147930aa725
    492b:	91 a7 d5 
    492e:	49 89 d7             	mov    r15,rdx
    4931:	4c 89 ea             	mov    rdx,r13
    4934:	4c 31 e2             	xor    rdx,r12
    4937:	4c 01 f9             	add    rcx,r15
    493a:	4c 89 7c 24 20       	mov    QWORD PTR [rsp+0x20],r15
    493f:	48 21 ea             	and    rdx,rbp
    4942:	49 01 ce             	add    r14,rcx
    4945:	48 89 e9             	mov    rcx,rbp
    4948:	4c 31 ea             	xor    rdx,r13
    494b:	49 89 c7             	mov    r15,rax
    494e:	49 01 d6             	add    r14,rdx
    4951:	48 89 ea             	mov    rdx,rbp
    4954:	48 c1 ca 0e          	ror    rdx,0xe
    4958:	48 c1 c9 12          	ror    rcx,0x12
    495c:	49 21 f7             	and    r15,rsi
    495f:	48 31 d1             	xor    rcx,rdx
    4962:	48 89 ea             	mov    rdx,rbp
    4965:	48 c1 c2 17          	rol    rdx,0x17
    4969:	48 31 ca             	xor    rdx,rcx
    496c:	4c 01 f2             	add    rdx,r14
    496f:	49 89 f6             	mov    r14,rsi
    4972:	49 c1 ce 1c          	ror    r14,0x1c
    4976:	49 01 d0             	add    r8,rdx
    4979:	4c 89 f1             	mov    rcx,r14
    497c:	49 89 f6             	mov    r14,rsi
    497f:	49 c1 c6 1e          	rol    r14,0x1e
    4983:	49 31 ce             	xor    r14,rcx
    4986:	48 89 f1             	mov    rcx,rsi
    4989:	48 c1 c1 19          	rol    rcx,0x19
    498d:	49 31 ce             	xor    r14,rcx
    4990:	48 89 c1             	mov    rcx,rax
    4993:	48 09 f1             	or     rcx,rsi
    4996:	48 21 f9             	and    rcx,rdi
    4999:	4c 09 f9             	or     rcx,r15
    499c:	4c 01 f1             	add    rcx,r14
    499f:	48 01 d1             	add    rcx,rdx
    49a2:	48 8b 94 24 68 01 00 	mov    rdx,QWORD PTR [rsp+0x168]
    49a9:	00 
    49aa:	48 d1 ca             	ror    rdx,1
    49ad:	49 89 d6             	mov    r14,rdx
    49b0:	48 8b 94 24 68 01 00 	mov    rdx,QWORD PTR [rsp+0x168]
    49b7:	00 
    49b8:	48 c1 ca 08          	ror    rdx,0x8
    49bc:	4c 31 f2             	xor    rdx,r14
    49bf:	4c 8b b4 24 68 01 00 	mov    r14,QWORD PTR [rsp+0x168]
    49c6:	00 
    49c7:	49 c1 ee 07          	shr    r14,0x7
    49cb:	4c 31 f2             	xor    rdx,r14
    49ce:	4c 8b 74 24 18       	mov    r14,QWORD PTR [rsp+0x18]
    49d3:	48 03 94 24 60 01 00 	add    rdx,QWORD PTR [rsp+0x160]
    49da:	00 
    49db:	48 03 14 24          	add    rdx,QWORD PTR [rsp]
    49df:	4d 89 f7             	mov    r15,r14
    49e2:	49 c1 c6 03          	rol    r14,0x3
    49e6:	49 c1 cf 13          	ror    r15,0x13
    49ea:	4d 31 fe             	xor    r14,r15
    49ed:	4c 8b 7c 24 18       	mov    r15,QWORD PTR [rsp+0x18]
    49f2:	49 c1 ef 06          	shr    r15,0x6
    49f6:	4d 31 fe             	xor    r14,r15
    49f9:	4c 01 f2             	add    rdx,r14
    49fc:	49 89 d7             	mov    r15,rdx
    49ff:	4c 89 e2             	mov    rdx,r12
    4a02:	48 31 ea             	xor    rdx,rbp
    4a05:	4c 89 7c 24 58       	mov    QWORD PTR [rsp+0x58],r15
    4a0a:	49 89 d6             	mov    r14,rdx
    4a0d:	48 ba 6f 82 03 e0 51 	movabs rdx,0x6ca6351e003826f
    4a14:	63 ca 06 
    4a17:	4d 21 c6             	and    r14,r8
    4a1a:	4c 01 fa             	add    rdx,r15
    4a1d:	49 89 f7             	mov    r15,rsi
    4a20:	49 01 d5             	add    r13,rdx
    4a23:	4c 89 c2             	mov    rdx,r8
    4a26:	4d 31 e6             	xor    r14,r12
    4a29:	48 c1 ca 0e          	ror    rdx,0xe
    4a2d:	4d 01 f5             	add    r13,r14
    4a30:	49 21 cf             	and    r15,rcx
    4a33:	49 89 d6             	mov    r14,rdx
    4a36:	4c 89 c2             	mov    rdx,r8
    4a39:	48 c1 ca 12          	ror    rdx,0x12
    4a3d:	4c 31 f2             	xor    rdx,r14
    4a40:	4d 89 c6             	mov    r14,r8
    4a43:	49 c1 c6 17          	rol    r14,0x17
    4a47:	49 31 d6             	xor    r14,rdx
    4a4a:	48 89 ca             	mov    rdx,rcx
    4a4d:	4d 01 ee             	add    r14,r13
    4a50:	48 c1 ca 1c          	ror    rdx,0x1c
    4a54:	4e 8d 2c 37          	lea    r13,[rdi+r14*1]
    4a58:	48 89 cf             	mov    rdi,rcx
    4a5b:	48 c1 c7 1e          	rol    rdi,0x1e
    4a5f:	48 31 d7             	xor    rdi,rdx
    4a62:	48 89 ca             	mov    rdx,rcx
    4a65:	48 c1 c2 19          	rol    rdx,0x19
    4a69:	48 31 d7             	xor    rdi,rdx
    4a6c:	48 89 f2             	mov    rdx,rsi
    4a6f:	48 09 ca             	or     rdx,rcx
    4a72:	48 21 c2             	and    rdx,rax
    4a75:	4c 09 fa             	or     rdx,r15
    4a78:	48 01 fa             	add    rdx,rdi
    4a7b:	48 89 df             	mov    rdi,rbx
    4a7e:	48 d1 cf             	ror    rdi,1
    4a81:	4c 01 f2             	add    rdx,r14
    4a84:	49 89 fe             	mov    r14,rdi
    4a87:	48 89 df             	mov    rdi,rbx
    4a8a:	48 c1 cf 08          	ror    rdi,0x8
    4a8e:	4c 31 f7             	xor    rdi,r14
    4a91:	49 89 de             	mov    r14,rbx
    4a94:	49 c1 ee 07          	shr    r14,0x7
    4a98:	4c 31 f7             	xor    rdi,r14
    4a9b:	48 03 bc 24 68 01 00 	add    rdi,QWORD PTR [rsp+0x168]
    4aa2:	00 
    4aa3:	48 03 7c 24 38       	add    rdi,QWORD PTR [rsp+0x38]
    4aa8:	4c 8b 74 24 20       	mov    r14,QWORD PTR [rsp+0x20]
    4aad:	4d 89 f7             	mov    r15,r14
    4ab0:	49 c1 c6 03          	rol    r14,0x3
    4ab4:	49 c1 cf 13          	ror    r15,0x13
    4ab8:	4d 31 fe             	xor    r14,r15
    4abb:	4c 8b 7c 24 20       	mov    r15,QWORD PTR [rsp+0x20]
    4ac0:	49 c1 ef 06          	shr    r15,0x6
    4ac4:	4d 31 fe             	xor    r14,r15
    4ac7:	49 89 cf             	mov    r15,rcx
    4aca:	4c 01 f7             	add    rdi,r14
    4acd:	49 be 70 6e 0e 0a 67 	movabs r14,0x142929670a0e6e70
    4ad4:	29 29 14 
    4ad7:	49 21 d7             	and    r15,rdx
    4ada:	48 89 7c 24 50       	mov    QWORD PTR [rsp+0x50],rdi
    4adf:	4c 03 74 24 50       	add    r14,QWORD PTR [rsp+0x50]
    4ae4:	48 89 ef             	mov    rdi,rbp
    4ae7:	4c 31 c7             	xor    rdi,r8
    4aea:	4c 21 ef             	and    rdi,r13
    4aed:	48 31 ef             	xor    rdi,rbp
    4af0:	4d 01 f4             	add    r12,r14
    4af3:	4a 8d 3c 27          	lea    rdi,[rdi+r12*1]
    4af7:	4d 89 ec             	mov    r12,r13
    4afa:	49 c1 cc 0e          	ror    r12,0xe
    4afe:	4d 89 e6             	mov    r14,r12
    4b01:	4d 89 ec             	mov    r12,r13
    4b04:	49 c1 cc 12          	ror    r12,0x12
    4b08:	4d 31 f4             	xor    r12,r14
    4b0b:	4d 89 ee             	mov    r14,r13
    4b0e:	49 c1 c6 17          	rol    r14,0x17
    4b12:	4d 31 f4             	xor    r12,r14
    4b15:	49 01 fc             	add    r12,rdi
    4b18:	4a 8d 3c 20          	lea    rdi,[rax+r12*1]
    4b1c:	48 89 d0             	mov    rax,rdx
    4b1f:	48 c1 c8 1c          	ror    rax,0x1c
    4b23:	49 89 c6             	mov    r14,rax
    4b26:	48 89 d0             	mov    rax,rdx
    4b29:	48 c1 c0 1e          	rol    rax,0x1e
    4b2d:	4c 31 f0             	xor    rax,r14
    4b30:	49 89 d6             	mov    r14,rdx
    4b33:	49 c1 c6 19          	rol    r14,0x19
    4b37:	4c 31 f0             	xor    rax,r14
    4b3a:	49 89 ce             	mov    r14,rcx
    4b3d:	49 09 d6             	or     r14,rdx
    4b40:	49 21 f6             	and    r14,rsi
    4b43:	4d 09 fe             	or     r14,r15
    4b46:	4c 8b 7c 24 58       	mov    r15,QWORD PTR [rsp+0x58]
    4b4b:	49 01 c6             	add    r14,rax
    4b4e:	4c 89 d8             	mov    rax,r11
    4b51:	48 d1 c8             	ror    rax,1
    4b54:	4d 01 f4             	add    r12,r14
    4b57:	49 89 c6             	mov    r14,rax
    4b5a:	4c 89 d8             	mov    rax,r11
    4b5d:	48 c1 c8 08          	ror    rax,0x8
    4b61:	4c 31 f0             	xor    rax,r14
    4b64:	4d 89 de             	mov    r14,r11
    4b67:	49 c1 ee 07          	shr    r14,0x7
    4b6b:	4c 31 f0             	xor    rax,r14
    4b6e:	4d 89 fe             	mov    r14,r15
    4b71:	48 01 c3             	add    rbx,rax
    4b74:	4c 89 f8             	mov    rax,r15
    4b77:	48 03 5c 24 08       	add    rbx,QWORD PTR [rsp+0x8]
    4b7c:	49 c1 ce 13          	ror    r14,0x13
    4b80:	48 c1 c0 03          	rol    rax,0x3
    4b84:	4c 31 f0             	xor    rax,r14
    4b87:	4d 89 fe             	mov    r14,r15
    4b8a:	49 c1 ee 06          	shr    r14,0x6
    4b8e:	4c 31 f0             	xor    rax,r14
    4b91:	49 89 d6             	mov    r14,rdx
    4b94:	4c 8d 3c 03          	lea    r15,[rbx+rax*1]
    4b98:	4c 89 c0             	mov    rax,r8
    4b9b:	48 bb fc 2f d2 46 85 	movabs rbx,0x27b70a8546d22ffc
    4ba2:	0a b7 27 
    4ba5:	4c 31 e8             	xor    rax,r13
    4ba8:	4d 21 e6             	and    r14,r12
    4bab:	4c 01 fb             	add    rbx,r15
    4bae:	48 21 f8             	and    rax,rdi
    4bb1:	4c 31 c0             	xor    rax,r8
    4bb4:	48 01 dd             	add    rbp,rbx
    4bb7:	48 89 fb             	mov    rbx,rdi
    4bba:	48 01 c5             	add    rbp,rax
    4bbd:	48 89 f8             	mov    rax,rdi
    4bc0:	48 c1 cb 0e          	ror    rbx,0xe
    4bc4:	48 c1 c8 12          	ror    rax,0x12
    4bc8:	48 31 d8             	xor    rax,rbx
    4bcb:	48 89 fb             	mov    rbx,rdi
    4bce:	48 c1 c3 17          	rol    rbx,0x17
    4bd2:	48 31 d8             	xor    rax,rbx
    4bd5:	4c 89 e3             	mov    rbx,r12
    4bd8:	48 01 e8             	add    rax,rbp
    4bdb:	4c 89 e5             	mov    rbp,r12
    4bde:	48 c1 c3 1e          	rol    rbx,0x1e
    4be2:	48 c1 cd 1c          	ror    rbp,0x1c
    4be6:	48 01 c6             	add    rsi,rax
    4be9:	48 31 eb             	xor    rbx,rbp
    4bec:	4c 89 e5             	mov    rbp,r12
    4bef:	48 c1 c5 19          	rol    rbp,0x19
    4bf3:	48 31 eb             	xor    rbx,rbp
    4bf6:	48 89 d5             	mov    rbp,rdx
    4bf9:	4c 09 e5             	or     rbp,r12
    4bfc:	48 21 cd             	and    rbp,rcx
    4bff:	4c 09 f5             	or     rbp,r14
    4c02:	4c 8b 74 24 50       	mov    r14,QWORD PTR [rsp+0x50]
    4c07:	48 01 eb             	add    rbx,rbp
    4c0a:	4c 89 d5             	mov    rbp,r10
    4c0d:	48 01 c3             	add    rbx,rax
    4c10:	4c 89 d0             	mov    rax,r10
    4c13:	48 d1 cd             	ror    rbp,1
    4c16:	48 c1 c8 08          	ror    rax,0x8
    4c1a:	48 31 e8             	xor    rax,rbp
    4c1d:	4c 89 d5             	mov    rbp,r10
    4c20:	48 c1 ed 07          	shr    rbp,0x7
    4c24:	48 31 e8             	xor    rax,rbp
    4c27:	4c 89 f5             	mov    rbp,r14
    4c2a:	49 01 c3             	add    r11,rax
    4c2d:	4c 89 f0             	mov    rax,r14
    4c30:	4c 03 5c 24 10       	add    r11,QWORD PTR [rsp+0x10]
    4c35:	48 c1 cd 13          	ror    rbp,0x13
    4c39:	48 c1 c0 03          	rol    rax,0x3
    4c3d:	48 31 e8             	xor    rax,rbp
    4c40:	4c 89 f5             	mov    rbp,r14
    4c43:	48 c1 ed 06          	shr    rbp,0x6
    4c47:	48 31 e8             	xor    rax,rbp
    4c4a:	4c 89 e5             	mov    rbp,r12
    4c4d:	4d 8d 34 03          	lea    r14,[r11+rax*1]
    4c51:	4c 89 e8             	mov    rax,r13
    4c54:	49 bb 26 c9 26 5c 38 	movabs r11,0x2e1b21385c26c926
    4c5b:	21 1b 2e 
    4c5e:	48 31 f8             	xor    rax,rdi
    4c61:	48 21 dd             	and    rbp,rbx
    4c64:	4d 01 f3             	add    r11,r14
    4c67:	48 21 f0             	and    rax,rsi
    4c6a:	4c 31 e8             	xor    rax,r13
    4c6d:	4d 01 d8             	add    r8,r11
    4c70:	49 89 f3             	mov    r11,rsi
    4c73:	49 01 c0             	add    r8,rax
    4c76:	48 89 f0             	mov    rax,rsi
    4c79:	49 c1 cb 0e          	ror    r11,0xe
    4c7d:	48 c1 c8 12          	ror    rax,0x12
    4c81:	4c 31 d8             	xor    rax,r11
    4c84:	49 89 f3             	mov    r11,rsi
    4c87:	49 c1 c3 17          	rol    r11,0x17
    4c8b:	4c 31 d8             	xor    rax,r11
    4c8e:	49 89 db             	mov    r11,rbx
    4c91:	4c 01 c0             	add    rax,r8
    4c94:	49 89 d8             	mov    r8,rbx
    4c97:	49 c1 cb 1c          	ror    r11,0x1c
    4c9b:	49 c1 c0 1e          	rol    r8,0x1e
    4c9f:	48 01 c1             	add    rcx,rax
    4ca2:	4d 31 d8             	xor    r8,r11
    4ca5:	49 89 db             	mov    r11,rbx
    4ca8:	49 c1 c3 19          	rol    r11,0x19
    4cac:	4d 31 d8             	xor    r8,r11
    4caf:	4d 89 e3             	mov    r11,r12
    4cb2:	49 09 db             	or     r11,rbx
    4cb5:	49 21 d3             	and    r11,rdx
    4cb8:	49 09 eb             	or     r11,rbp
    4cbb:	4d 01 d8             	add    r8,r11
    4cbe:	4d 89 cb             	mov    r11,r9
    4cc1:	49 01 c0             	add    r8,rax
    4cc4:	4c 89 c8             	mov    rax,r9
    4cc7:	49 d1 cb             	ror    r11,1
    4cca:	48 c1 c8 08          	ror    rax,0x8
    4cce:	4c 89 c5             	mov    rbp,r8
    4cd1:	4c 31 d8             	xor    rax,r11
    4cd4:	4d 89 cb             	mov    r11,r9
    4cd7:	48 c1 c5 19          	rol    rbp,0x19
    4cdb:	49 c1 eb 07          	shr    r11,0x7
    4cdf:	4c 31 d8             	xor    rax,r11
    4ce2:	4d 89 fb             	mov    r11,r15
    4ce5:	49 01 c2             	add    r10,rax
    4ce8:	4c 89 f8             	mov    rax,r15
    4ceb:	4c 03 54 24 48       	add    r10,QWORD PTR [rsp+0x48]
    4cf0:	49 c1 cb 13          	ror    r11,0x13
    4cf4:	48 c1 c0 03          	rol    rax,0x3
    4cf8:	4c 31 d8             	xor    rax,r11
    4cfb:	4d 89 fb             	mov    r11,r15
    4cfe:	49 c1 eb 06          	shr    r11,0x6
    4d02:	4c 31 d8             	xor    rax,r11
    4d05:	49 01 c2             	add    r10,rax
    4d08:	48 89 f8             	mov    rax,rdi
    4d0b:	4d 89 d3             	mov    r11,r10
    4d0e:	48 31 f0             	xor    rax,rsi
    4d11:	49 ba ed 2a c4 5a fc 	movabs r10,0x4d2c6dfc5ac42aed
    4d18:	6d 2c 4d 
    4d1b:	4d 01 da             	add    r10,r11
    4d1e:	48 21 c8             	and    rax,rcx
    4d21:	4c 89 5c 24 60       	mov    QWORD PTR [rsp+0x60],r11
    4d26:	48 31 f8             	xor    rax,rdi
    4d29:	4d 01 d5             	add    r13,r10
    4d2c:	49 89 ca             	mov    r10,rcx
    4d2f:	49 01 c5             	add    r13,rax
    4d32:	48 89 c8             	mov    rax,rcx
    4d35:	49 c1 ca 0e          	ror    r10,0xe
    4d39:	48 c1 c8 12          	ror    rax,0x12
    4d3d:	4c 31 d0             	xor    rax,r10
    4d40:	49 89 ca             	mov    r10,rcx
    4d43:	49 c1 c2 17          	rol    r10,0x17
    4d47:	4c 31 d0             	xor    rax,r10
    4d4a:	4d 89 c2             	mov    r10,r8
    4d4d:	49 c1 ca 1c          	ror    r10,0x1c
    4d51:	4c 01 e8             	add    rax,r13
    4d54:	4c 8b 6c 24 40       	mov    r13,QWORD PTR [rsp+0x40]
    4d59:	4d 89 d3             	mov    r11,r10
    4d5c:	4d 89 c2             	mov    r10,r8
    4d5f:	48 01 c2             	add    rdx,rax
    4d62:	49 c1 c2 1e          	rol    r10,0x1e
    4d66:	4d 31 da             	xor    r10,r11
    4d69:	49 31 ea             	xor    r10,rbp
    4d6c:	48 89 dd             	mov    rbp,rbx
    4d6f:	4c 09 c5             	or     rbp,r8
    4d72:	49 89 eb             	mov    r11,rbp
    4d75:	48 89 dd             	mov    rbp,rbx
    4d78:	4c 21 c5             	and    rbp,r8
    4d7b:	4d 21 e3             	and    r11,r12
    4d7e:	49 09 eb             	or     r11,rbp
    4d81:	4c 89 f5             	mov    rbp,r14
    4d84:	4d 01 da             	add    r10,r11
    4d87:	4d 89 eb             	mov    r11,r13
    4d8a:	48 c1 ed 06          	shr    rbp,0x6
    4d8e:	49 01 c2             	add    r10,rax
    4d91:	4c 89 e8             	mov    rax,r13
    4d94:	49 d1 cb             	ror    r11,1
    4d97:	48 c1 c8 08          	ror    rax,0x8
    4d9b:	4c 31 d8             	xor    rax,r11
    4d9e:	4d 89 eb             	mov    r11,r13
    4da1:	49 c1 eb 07          	shr    r11,0x7
    4da5:	4c 31 d8             	xor    rax,r11
    4da8:	49 01 c1             	add    r9,rax
    4dab:	4c 89 f0             	mov    rax,r14
    4dae:	4c 03 4c 24 18       	add    r9,QWORD PTR [rsp+0x18]
    4db3:	48 c1 c8 13          	ror    rax,0x13
    4db7:	49 89 c3             	mov    r11,rax
    4dba:	4c 89 f0             	mov    rax,r14
    4dbd:	48 c1 c0 03          	rol    rax,0x3
    4dc1:	4c 31 d8             	xor    rax,r11
    4dc4:	48 31 e8             	xor    rax,rbp
    4dc7:	49 01 c1             	add    r9,rax
    4dca:	4c 89 cd             	mov    rbp,r9
    4dcd:	49 89 f1             	mov    r9,rsi
    4dd0:	49 31 c9             	xor    r9,rcx
    4dd3:	48 89 6c 24 40       	mov    QWORD PTR [rsp+0x40],rbp
    4dd8:	4c 89 c8             	mov    rax,r9
    4ddb:	49 b9 df b3 95 9d 13 	movabs r9,0x53380d139d95b3df
    4de2:	0d 38 53 
    4de5:	49 01 e9             	add    r9,rbp
    4de8:	48 21 d0             	and    rax,rdx
    4deb:	4c 89 c5             	mov    rbp,r8
    4dee:	48 31 f0             	xor    rax,rsi
    4df1:	4c 01 cf             	add    rdi,r9
    4df4:	49 89 d1             	mov    r9,rdx
    4df7:	48 01 c7             	add    rdi,rax
    4dfa:	48 89 d0             	mov    rax,rdx
    4dfd:	49 c1 c9 0e          	ror    r9,0xe
    4e01:	48 c1 c8 12          	ror    rax,0x12
    4e05:	4c 31 c8             	xor    rax,r9
    4e08:	49 89 d1             	mov    r9,rdx
    4e0b:	49 c1 c1 17          	rol    r9,0x17
    4e0f:	4c 31 c8             	xor    rax,r9
    4e12:	48 01 f8             	add    rax,rdi
    4e15:	4c 89 d7             	mov    rdi,r10
    4e18:	48 c1 cf 1c          	ror    rdi,0x1c
    4e1c:	4d 8d 0c 04          	lea    r9,[r12+rax*1]
    4e20:	4c 8b 64 24 28       	mov    r12,QWORD PTR [rsp+0x28]
    4e25:	49 89 fb             	mov    r11,rdi
    4e28:	4c 89 d7             	mov    rdi,r10
    4e2b:	48 c1 c7 1e          	rol    rdi,0x1e
    4e2f:	4c 21 d5             	and    rbp,r10
    4e32:	4c 31 df             	xor    rdi,r11
    4e35:	4d 89 d3             	mov    r11,r10
    4e38:	49 c1 c3 19          	rol    r11,0x19
    4e3c:	4c 31 df             	xor    rdi,r11
    4e3f:	4d 89 c3             	mov    r11,r8
    4e42:	4d 09 d3             	or     r11,r10
    4e45:	49 21 db             	and    r11,rbx
    4e48:	49 09 eb             	or     r11,rbp
    4e4b:	4c 01 df             	add    rdi,r11
    4e4e:	4d 89 e3             	mov    r11,r12
    4e51:	48 01 c7             	add    rdi,rax
    4e54:	4c 89 e0             	mov    rax,r12
    4e57:	49 d1 cb             	ror    r11,1
    4e5a:	48 c1 c8 08          	ror    rax,0x8
    4e5e:	4c 31 d8             	xor    rax,r11
    4e61:	4d 89 e3             	mov    r11,r12
    4e64:	49 c1 eb 07          	shr    r11,0x7
    4e68:	4c 31 d8             	xor    rax,r11
    4e6b:	4c 01 e8             	add    rax,r13
    4e6e:	4c 8b 6c 24 60       	mov    r13,QWORD PTR [rsp+0x60]
    4e73:	48 03 44 24 20       	add    rax,QWORD PTR [rsp+0x20]
    4e78:	4c 89 ed             	mov    rbp,r13
    4e7b:	4d 89 eb             	mov    r11,r13
    4e7e:	48 c1 cd 13          	ror    rbp,0x13
    4e82:	49 c1 c3 03          	rol    r11,0x3
    4e86:	49 31 eb             	xor    r11,rbp
    4e89:	4c 89 ed             	mov    rbp,r13
    4e8c:	48 c1 ed 06          	shr    rbp,0x6
    4e90:	49 31 eb             	xor    r11,rbp
    4e93:	4c 89 d5             	mov    rbp,r10
    4e96:	4c 01 d8             	add    rax,r11
    4e99:	49 bb de 63 af 8b 54 	movabs r11,0x650a73548baf63de
    4ea0:	73 0a 65 
    4ea3:	49 89 c5             	mov    r13,rax
    4ea6:	48 89 c8             	mov    rax,rcx
    4ea9:	48 31 d0             	xor    rax,rdx
    4eac:	4d 01 eb             	add    r11,r13
    4eaf:	4c 89 6c 24 28       	mov    QWORD PTR [rsp+0x28],r13
    4eb4:	4c 21 c8             	and    rax,r9
    4eb7:	4c 01 de             	add    rsi,r11
    4eba:	4d 89 cb             	mov    r11,r9
    4ebd:	48 31 c8             	xor    rax,rcx
    4ec0:	49 c1 cb 0e          	ror    r11,0xe
    4ec4:	4c 8b 6c 24 30       	mov    r13,QWORD PTR [rsp+0x30]
    4ec9:	48 01 c6             	add    rsi,rax
    4ecc:	4c 89 c8             	mov    rax,r9
    4ecf:	48 c1 c8 12          	ror    rax,0x12
    4ed3:	4c 31 d8             	xor    rax,r11
    4ed6:	4d 89 cb             	mov    r11,r9
    4ed9:	49 c1 c3 17          	rol    r11,0x17
    4edd:	48 21 fd             	and    rbp,rdi
    4ee0:	4c 31 d8             	xor    rax,r11
    4ee3:	49 89 fb             	mov    r11,rdi
    4ee6:	48 01 f0             	add    rax,rsi
    4ee9:	48 89 fe             	mov    rsi,rdi
    4eec:	49 c1 cb 1c          	ror    r11,0x1c
    4ef0:	48 c1 c6 1e          	rol    rsi,0x1e
    4ef4:	48 01 c3             	add    rbx,rax
    4ef7:	4c 31 de             	xor    rsi,r11
    4efa:	49 89 fb             	mov    r11,rdi
    4efd:	49 c1 c3 19          	rol    r11,0x19
    4f01:	4c 31 de             	xor    rsi,r11
    4f04:	4d 89 d3             	mov    r11,r10
    4f07:	49 09 fb             	or     r11,rdi
    4f0a:	4d 21 c3             	and    r11,r8
    4f0d:	49 09 eb             	or     r11,rbp
    4f10:	4c 01 de             	add    rsi,r11
    4f13:	4d 89 eb             	mov    r11,r13
    4f16:	48 01 c6             	add    rsi,rax
    4f19:	4c 89 e8             	mov    rax,r13
    4f1c:	49 d1 cb             	ror    r11,1
    4f1f:	48 c1 c8 08          	ror    rax,0x8
    4f23:	4c 31 d8             	xor    rax,r11
    4f26:	4d 89 eb             	mov    r11,r13
    4f29:	49 c1 eb 07          	shr    r11,0x7
    4f2d:	4c 31 d8             	xor    rax,r11
    4f30:	4c 01 e0             	add    rax,r12
    4f33:	4c 8b 64 24 40       	mov    r12,QWORD PTR [rsp+0x40]
    4f38:	48 03 44 24 58       	add    rax,QWORD PTR [rsp+0x58]
    4f3d:	4d 89 e3             	mov    r11,r12
    4f40:	49 c1 cb 13          	ror    r11,0x13
    4f44:	4c 89 dd             	mov    rbp,r11
    4f47:	4d 89 e3             	mov    r11,r12
    4f4a:	49 c1 ec 06          	shr    r12,0x6
    4f4e:	49 c1 c3 03          	rol    r11,0x3
    4f52:	49 31 eb             	xor    r11,rbp
    4f55:	48 89 fd             	mov    rbp,rdi
    4f58:	4d 31 e3             	xor    r11,r12
    4f5b:	4c 01 d8             	add    rax,r11
    4f5e:	49 bb a8 b2 77 3c bb 	movabs r11,0x766a0abb3c77b2a8
    4f65:	0a 6a 76 
    4f68:	49 89 c4             	mov    r12,rax
    4f6b:	48 89 d0             	mov    rax,rdx
    4f6e:	4c 31 c8             	xor    rax,r9
    4f71:	4d 01 e3             	add    r11,r12
    4f74:	4c 89 64 24 30       	mov    QWORD PTR [rsp+0x30],r12
    4f79:	48 21 d8             	and    rax,rbx
    4f7c:	48 31 d0             	xor    rax,rdx
    4f7f:	4c 01 d9             	add    rcx,r11
    4f82:	49 89 db             	mov    r11,rbx
    4f85:	48 01 c1             	add    rcx,rax
    4f88:	48 89 d8             	mov    rax,rbx
    4f8b:	49 c1 cb 0e          	ror    r11,0xe
    4f8f:	48 c1 c8 12          	ror    rax,0x12
    4f93:	48 21 f5             	and    rbp,rsi
    4f96:	4c 31 d8             	xor    rax,r11
    4f99:	49 89 db             	mov    r11,rbx
    4f9c:	49 c1 c3 17          	rol    r11,0x17
    4fa0:	4c 31 d8             	xor    rax,r11
    4fa3:	48 01 c8             	add    rax,rcx
    4fa6:	48 89 f1             	mov    rcx,rsi
    4fa9:	48 c1 c9 1c          	ror    rcx,0x1c
    4fad:	4d 8d 1c 00          	lea    r11,[r8+rax*1]
    4fb1:	49 89 c8             	mov    r8,rcx
    4fb4:	48 89 f1             	mov    rcx,rsi
    4fb7:	48 c1 c1 1e          	rol    rcx,0x1e
    4fbb:	4c 31 c1             	xor    rcx,r8
    4fbe:	49 89 f0             	mov    r8,rsi
    4fc1:	49 c1 c0 19          	rol    r8,0x19
    4fc5:	4c 31 c1             	xor    rcx,r8
    4fc8:	49 89 f8             	mov    r8,rdi
    4fcb:	49 09 f0             	or     r8,rsi
    4fce:	4d 21 d0             	and    r8,r10
    4fd1:	49 09 e8             	or     r8,rbp
    4fd4:	48 8b 6c 24 28       	mov    rbp,QWORD PTR [rsp+0x28]
    4fd9:	4c 01 c1             	add    rcx,r8
    4fdc:	4c 8b 04 24          	mov    r8,QWORD PTR [rsp]
    4fe0:	48 01 c1             	add    rcx,rax
    4fe3:	4d 89 c4             	mov    r12,r8
    4fe6:	4c 89 c0             	mov    rax,r8
    4fe9:	48 d1 c8             	ror    rax,1
    4fec:	49 c1 cc 08          	ror    r12,0x8
    4ff0:	49 31 c4             	xor    r12,rax
    4ff3:	4c 89 c0             	mov    rax,r8
    4ff6:	49 89 e8             	mov    r8,rbp
    4ff9:	48 c1 e8 07          	shr    rax,0x7
    4ffd:	49 c1 c8 13          	ror    r8,0x13
    5001:	49 31 c4             	xor    r12,rax
    5004:	48 89 e8             	mov    rax,rbp
    5007:	4d 01 ec             	add    r12,r13
    500a:	48 c1 c0 03          	rol    rax,0x3
    500e:	4c 03 64 24 50       	add    r12,QWORD PTR [rsp+0x50]
    5013:	4c 31 c0             	xor    rax,r8
    5016:	49 89 e8             	mov    r8,rbp
    5019:	48 89 f5             	mov    rbp,rsi
    501c:	49 c1 e8 06          	shr    r8,0x6
    5020:	4c 31 c0             	xor    rax,r8
    5023:	49 b8 e6 ae ed 47 2e 	movabs r8,0x81c2c92e47edaee6
    502a:	c9 c2 81 
    502d:	4d 8d 2c 04          	lea    r13,[r12+rax*1]
    5031:	4c 89 c8             	mov    rax,r9
    5034:	48 31 d8             	xor    rax,rbx
    5037:	4c 21 d8             	and    rax,r11
    503a:	4d 01 e8             	add    r8,r13
    503d:	4c 89 6c 24 68       	mov    QWORD PTR [rsp+0x68],r13
    5042:	4c 31 c8             	xor    rax,r9
    5045:	4c 01 c2             	add    rdx,r8
    5048:	4d 89 d8             	mov    r8,r11
    504b:	48 01 c2             	add    rdx,rax
    504e:	4c 89 d8             	mov    rax,r11
    5051:	49 c1 c8 0e          	ror    r8,0xe
    5055:	48 c1 c8 12          	ror    rax,0x12
    5059:	4c 8b 6c 24 38       	mov    r13,QWORD PTR [rsp+0x38]
    505e:	48 21 cd             	and    rbp,rcx
    5061:	4c 31 c0             	xor    rax,r8
    5064:	4d 89 d8             	mov    r8,r11
    5067:	49 c1 c0 17          	rol    r8,0x17
    506b:	4c 31 c0             	xor    rax,r8
    506e:	4d 89 ec             	mov    r12,r13
    5071:	48 01 d0             	add    rax,rdx
    5074:	48 89 ca             	mov    rdx,rcx
    5077:	49 c1 cc 08          	ror    r12,0x8
    507b:	48 c1 ca 1c          	ror    rdx,0x1c
    507f:	49 01 c2             	add    r10,rax
    5082:	49 89 d0             	mov    r8,rdx
    5085:	48 89 ca             	mov    rdx,rcx
    5088:	48 c1 c2 1e          	rol    rdx,0x1e
    508c:	4c 31 c2             	xor    rdx,r8
    508f:	49 89 c8             	mov    r8,rcx
    5092:	49 c1 c0 19          	rol    r8,0x19
    5096:	4c 31 c2             	xor    rdx,r8
    5099:	49 89 f0             	mov    r8,rsi
    509c:	49 09 c8             	or     r8,rcx
    509f:	49 21 f8             	and    r8,rdi
    50a2:	49 09 e8             	or     r8,rbp
    50a5:	4c 89 ed             	mov    rbp,r13
    50a8:	48 d1 cd             	ror    rbp,1
    50ab:	4c 01 c2             	add    rdx,r8
    50ae:	49 31 ec             	xor    r12,rbp
    50b1:	4c 89 ed             	mov    rbp,r13
    50b4:	48 01 c2             	add    rdx,rax
    50b7:	48 c1 ed 07          	shr    rbp,0x7
    50bb:	49 31 ec             	xor    r12,rbp
    50be:	48 8b 6c 24 30       	mov    rbp,QWORD PTR [rsp+0x30]
    50c3:	4c 03 24 24          	add    r12,QWORD PTR [rsp]
    50c7:	49 89 e8             	mov    r8,rbp
    50ca:	48 89 e8             	mov    rax,rbp
    50cd:	49 c1 c8 13          	ror    r8,0x13
    50d1:	48 c1 c0 03          	rol    rax,0x3
    50d5:	4d 01 fc             	add    r12,r15
    50d8:	4c 31 c0             	xor    rax,r8
    50db:	49 89 e8             	mov    r8,rbp
    50de:	49 c1 e8 06          	shr    r8,0x6
    50e2:	4c 31 c0             	xor    rax,r8
    50e5:	4c 01 e0             	add    rax,r12
    50e8:	49 bc 3b 35 82 14 85 	movabs r12,0x92722c851482353b
    50ef:	2c 72 92 
    50f2:	49 89 c0             	mov    r8,rax
    50f5:	48 89 d8             	mov    rax,rbx
    50f8:	4c 31 d8             	xor    rax,r11
    50fb:	4d 01 c4             	add    r12,r8
    50fe:	4c 89 44 24 38       	mov    QWORD PTR [rsp+0x38],r8
    5103:	4c 21 d0             	and    rax,r10
    5106:	4d 01 e1             	add    r9,r12
    5109:	4d 89 d4             	mov    r12,r10
    510c:	48 31 d8             	xor    rax,rbx
    510f:	49 c1 c4 17          	rol    r12,0x17
    5113:	49 01 c1             	add    r9,rax
    5116:	4c 89 d0             	mov    rax,r10
    5119:	48 c1 c8 0e          	ror    rax,0xe
    511d:	49 89 c0             	mov    r8,rax
    5120:	4c 89 d0             	mov    rax,r10
    5123:	48 c1 c8 12          	ror    rax,0x12
    5127:	4c 31 c0             	xor    rax,r8
    512a:	4c 31 e0             	xor    rax,r12
    512d:	49 89 d4             	mov    r12,rdx
    5130:	4c 01 c8             	add    rax,r9
    5133:	49 c1 c4 1e          	rol    r12,0x1e
    5137:	4c 8d 0c 07          	lea    r9,[rdi+rax*1]
    513b:	48 89 d7             	mov    rdi,rdx
    513e:	4d 89 e0             	mov    r8,r12
    5141:	48 c1 cf 1c          	ror    rdi,0x1c
    5145:	49 89 cc             	mov    r12,rcx
    5148:	49 31 f8             	xor    r8,rdi
    514b:	48 89 d7             	mov    rdi,rdx
    514e:	49 21 d4             	and    r12,rdx
    5151:	48 c1 c7 19          	rol    rdi,0x19
    5155:	49 31 f8             	xor    r8,rdi
    5158:	48 89 cf             	mov    rdi,rcx
    515b:	48 09 d7             	or     rdi,rdx
    515e:	48 21 f7             	and    rdi,rsi
    5161:	4c 09 e7             	or     rdi,r12
    5164:	4c 01 c7             	add    rdi,r8
    5167:	4c 8d 24 07          	lea    r12,[rdi+rax*1]
    516b:	48 8b 7c 24 08       	mov    rdi,QWORD PTR [rsp+0x8]
    5170:	48 89 f8             	mov    rax,rdi
    5173:	48 89 fd             	mov    rbp,rdi
    5176:	48 d1 c8             	ror    rax,1
    5179:	48 c1 cd 08          	ror    rbp,0x8
    517d:	48 31 c5             	xor    rbp,rax
    5180:	48 89 f8             	mov    rax,rdi
    5183:	48 c1 e8 07          	shr    rax,0x7
    5187:	48 31 c5             	xor    rbp,rax
    518a:	4c 01 ed             	add    rbp,r13
    518d:	4c 8b 6c 24 68       	mov    r13,QWORD PTR [rsp+0x68]
    5192:	4c 01 f5             	add    rbp,r14
    5195:	4c 89 ef             	mov    rdi,r13
    5198:	4c 89 e8             	mov    rax,r13
    519b:	48 c1 cf 13          	ror    rdi,0x13
    519f:	48 c1 c0 03          	rol    rax,0x3
    51a3:	48 31 f8             	xor    rax,rdi
    51a6:	4c 89 ef             	mov    rdi,r13
    51a9:	48 c1 ef 06          	shr    rdi,0x6
    51ad:	48 31 f8             	xor    rax,rdi
    51b0:	48 bf 64 03 f1 4c a1 	movabs rdi,0xa2bfe8a14cf10364
    51b7:	e8 bf a2 
    51ba:	4c 8d 6c 05 00       	lea    r13,[rbp+rax*1+0x0]
    51bf:	4c 89 d8             	mov    rax,r11
    51c2:	4c 31 d0             	xor    rax,r10
    51c5:	4c 01 ef             	add    rdi,r13
    51c8:	4c 21 c8             	and    rax,r9
    51cb:	4c 89 2c 24          	mov    QWORD PTR [rsp],r13
    51cf:	4c 31 d8             	xor    rax,r11
    51d2:	48 01 fb             	add    rbx,rdi
    51d5:	4c 89 cf             	mov    rdi,r9
    51d8:	48 01 c3             	add    rbx,rax
    51db:	4c 89 c8             	mov    rax,r9
    51de:	48 c1 cf 0e          	ror    rdi,0xe
    51e2:	48 c1 c8 12          	ror    rax,0x12
    51e6:	49 89 d5             	mov    r13,rdx
    51e9:	48 31 f8             	xor    rax,rdi
    51ec:	4c 89 cf             	mov    rdi,r9
    51ef:	4d 21 e5             	and    r13,r12
    51f2:	48 c1 c7 17          	rol    rdi,0x17
    51f6:	48 31 f8             	xor    rax,rdi
    51f9:	4c 89 e7             	mov    rdi,r12
    51fc:	48 01 d8             	add    rax,rbx
    51ff:	48 c1 c7 1e          	rol    rdi,0x1e
    5203:	48 8d 1c 06          	lea    rbx,[rsi+rax*1]
    5207:	4c 89 e6             	mov    rsi,r12
    520a:	48 c1 ce 1c          	ror    rsi,0x1c
    520e:	48 31 f7             	xor    rdi,rsi
    5211:	4c 89 e6             	mov    rsi,r12
    5214:	48 c1 c6 19          	rol    rsi,0x19
    5218:	48 31 f7             	xor    rdi,rsi
    521b:	48 89 d6             	mov    rsi,rdx
    521e:	4c 09 e6             	or     rsi,r12
    5221:	48 21 ce             	and    rsi,rcx
    5224:	4c 09 ee             	or     rsi,r13
    5227:	48 01 fe             	add    rsi,rdi
    522a:	48 8b 7c 24 38       	mov    rdi,QWORD PTR [rsp+0x38]
    522f:	48 8d 2c 06          	lea    rbp,[rsi+rax*1]
    5233:	48 8b 74 24 10       	mov    rsi,QWORD PTR [rsp+0x10]
    5238:	49 89 f0             	mov    r8,rsi
    523b:	49 89 f5             	mov    r13,rsi
    523e:	49 d1 c8             	ror    r8,1
    5241:	49 c1 ed 07          	shr    r13,0x7
    5245:	4c 89 c0             	mov    rax,r8
    5248:	49 89 f0             	mov    r8,rsi
    524b:	48 89 fe             	mov    rsi,rdi
    524e:	49 c1 c8 08          	ror    r8,0x8
    5252:	49 31 c0             	xor    r8,rax
    5255:	48 89 f8             	mov    rax,rdi
    5258:	4d 31 e8             	xor    r8,r13
    525b:	4c 03 44 24 08       	add    r8,QWORD PTR [rsp+0x8]
    5260:	48 c1 ce 13          	ror    rsi,0x13
    5264:	4c 03 44 24 60       	add    r8,QWORD PTR [rsp+0x60]
    5269:	48 c1 c0 03          	rol    rax,0x3
    526d:	48 31 f0             	xor    rax,rsi
    5270:	48 89 fe             	mov    rsi,rdi
    5273:	48 c1 ee 06          	shr    rsi,0x6
    5277:	48 31 f0             	xor    rax,rsi
    527a:	48 be 01 30 42 bc 4b 	movabs rsi,0xa81a664bbc423001
    5281:	66 1a a8 
    5284:	4c 01 c0             	add    rax,r8
    5287:	48 89 c7             	mov    rdi,rax
    528a:	4c 89 d0             	mov    rax,r10
    528d:	48 01 fe             	add    rsi,rdi
    5290:	4c 31 c8             	xor    rax,r9
    5293:	48 89 7c 24 70       	mov    QWORD PTR [rsp+0x70],rdi
    5298:	48 21 d8             	and    rax,rbx
    529b:	4e 8d 04 1e          	lea    r8,[rsi+r11*1]
    529f:	4c 89 e7             	mov    rdi,r12
    52a2:	4c 31 d0             	xor    rax,r10
    52a5:	48 21 ef             	and    rdi,rbp
    52a8:	49 01 c0             	add    r8,rax
    52ab:	48 89 d8             	mov    rax,rbx
    52ae:	48 c1 c8 0e          	ror    rax,0xe
    52b2:	48 89 c6             	mov    rsi,rax
    52b5:	48 89 d8             	mov    rax,rbx
    52b8:	48 c1 c8 12          	ror    rax,0x12
    52bc:	48 31 f0             	xor    rax,rsi
    52bf:	48 89 de             	mov    rsi,rbx
    52c2:	48 c1 c6 17          	rol    rsi,0x17
    52c6:	48 31 f0             	xor    rax,rsi
    52c9:	48 89 ee             	mov    rsi,rbp
    52cc:	4c 01 c0             	add    rax,r8
    52cf:	48 c1 c6 1e          	rol    rsi,0x1e
    52d3:	4c 8b 44 24 48       	mov    r8,QWORD PTR [rsp+0x48]
    52d8:	4c 8d 1c 01          	lea    r11,[rcx+rax*1]
    52dc:	48 89 e9             	mov    rcx,rbp
    52df:	48 c1 c9 1c          	ror    rcx,0x1c
    52e3:	48 31 ce             	xor    rsi,rcx
    52e6:	48 89 e9             	mov    rcx,rbp
    52e9:	48 c1 c1 19          	rol    rcx,0x19
    52ed:	48 31 ce             	xor    rsi,rcx
    52f0:	4c 89 e1             	mov    rcx,r12
    52f3:	48 09 e9             	or     rcx,rbp
    52f6:	48 21 d1             	and    rcx,rdx
    52f9:	48 09 f9             	or     rcx,rdi
    52fc:	4c 89 c7             	mov    rdi,r8
    52ff:	48 01 f1             	add    rcx,rsi
    5302:	48 c1 cf 08          	ror    rdi,0x8
    5306:	48 8b 34 24          	mov    rsi,QWORD PTR [rsp]
    530a:	4c 8d 2c 01          	lea    r13,[rcx+rax*1]
    530e:	4c 89 c0             	mov    rax,r8
    5311:	48 d1 c8             	ror    rax,1
    5314:	48 31 c7             	xor    rdi,rax
    5317:	4c 89 c0             	mov    rax,r8
    531a:	48 89 f1             	mov    rcx,rsi
    531d:	48 c1 e8 07          	shr    rax,0x7
    5321:	48 c1 c9 13          	ror    rcx,0x13
    5325:	48 31 c7             	xor    rdi,rax
    5328:	48 89 f0             	mov    rax,rsi
    532b:	48 03 7c 24 10       	add    rdi,QWORD PTR [rsp+0x10]
    5330:	48 03 7c 24 40       	add    rdi,QWORD PTR [rsp+0x40]
    5335:	48 c1 c0 03          	rol    rax,0x3
    5339:	48 31 c8             	xor    rax,rcx
    533c:	48 89 f1             	mov    rcx,rsi
    533f:	48 c1 e9 06          	shr    rcx,0x6
    5343:	48 31 c8             	xor    rax,rcx
    5346:	48 b9 91 97 f8 d0 70 	movabs rcx,0xc24b8b70d0f89791
    534d:	8b 4b c2 
    5350:	48 01 f8             	add    rax,rdi
    5353:	48 8b 7c 24 18       	mov    rdi,QWORD PTR [rsp+0x18]
    5358:	48 89 c6             	mov    rsi,rax
    535b:	4c 89 c8             	mov    rax,r9
    535e:	48 31 d8             	xor    rax,rbx
    5361:	48 01 f1             	add    rcx,rsi
    5364:	48 89 74 24 10       	mov    QWORD PTR [rsp+0x10],rsi
    5369:	4c 21 d8             	and    rax,r11
    536c:	49 01 ca             	add    r10,rcx
    536f:	4c 31 c8             	xor    rax,r9
    5372:	49 01 c2             	add    r10,rax
    5375:	4c 89 d8             	mov    rax,r11
    5378:	48 c1 c8 0e          	ror    rax,0xe
    537c:	48 89 c1             	mov    rcx,rax
    537f:	4c 89 d8             	mov    rax,r11
    5382:	48 c1 c8 12          	ror    rax,0x12
    5386:	48 31 c8             	xor    rax,rcx
    5389:	4c 89 d9             	mov    rcx,r11
    538c:	48 c1 c1 17          	rol    rcx,0x17
    5390:	48 31 c8             	xor    rax,rcx
    5393:	4c 01 d0             	add    rax,r10
    5396:	4d 89 ea             	mov    r10,r13
    5399:	49 c1 ca 1c          	ror    r10,0x1c
    539d:	48 01 c2             	add    rdx,rax
    53a0:	4c 89 d6             	mov    rsi,r10
    53a3:	4d 89 ea             	mov    r10,r13
    53a6:	49 c1 c2 1e          	rol    r10,0x1e
    53aa:	4c 89 d1             	mov    rcx,r10
    53ad:	4d 89 ea             	mov    r10,r13
    53b0:	48 31 f1             	xor    rcx,rsi
    53b3:	49 c1 c2 19          	rol    r10,0x19
    53b7:	4c 31 d1             	xor    rcx,r10
    53ba:	49 89 ea             	mov    r10,rbp
    53bd:	4d 09 ea             	or     r10,r13
    53c0:	4c 89 d6             	mov    rsi,r10
    53c3:	49 89 ea             	mov    r10,rbp
    53c6:	4d 21 ea             	and    r10,r13
    53c9:	4c 21 e6             	and    rsi,r12
    53cc:	4c 09 d6             	or     rsi,r10
    53cf:	48 01 ce             	add    rsi,rcx
    53d2:	4c 8d 14 06          	lea    r10,[rsi+rax*1]
    53d6:	48 89 f8             	mov    rax,rdi
    53d9:	48 89 fe             	mov    rsi,rdi
    53dc:	48 d1 c8             	ror    rax,1
    53df:	48 c1 ce 08          	ror    rsi,0x8
    53e3:	48 31 c6             	xor    rsi,rax
    53e6:	48 89 f8             	mov    rax,rdi
    53e9:	48 c1 e8 07          	shr    rax,0x7
    53ed:	48 31 c6             	xor    rsi,rax
    53f0:	4c 01 c6             	add    rsi,r8
    53f3:	4c 8b 44 24 70       	mov    r8,QWORD PTR [rsp+0x70]
    53f8:	48 03 74 24 28       	add    rsi,QWORD PTR [rsp+0x28]
    53fd:	4c 89 c1             	mov    rcx,r8
    5400:	4c 89 c0             	mov    rax,r8
    5403:	48 c1 c9 13          	ror    rcx,0x13
    5407:	48 c1 c0 03          	rol    rax,0x3
    540b:	48 31 c8             	xor    rax,rcx
    540e:	4c 89 c1             	mov    rcx,r8
    5411:	48 c1 e9 06          	shr    rcx,0x6
    5415:	48 31 c8             	xor    rax,rcx
    5418:	48 b9 30 be 54 06 a3 	movabs rcx,0xc76c51a30654be30
    541f:	51 6c c7 
    5422:	48 01 f0             	add    rax,rsi
    5425:	49 89 c0             	mov    r8,rax
    5428:	48 89 d8             	mov    rax,rbx
    542b:	4c 01 c1             	add    rcx,r8
    542e:	4c 31 d8             	xor    rax,r11
    5431:	4c 89 44 24 48       	mov    QWORD PTR [rsp+0x48],r8
    5436:	4a 8d 3c 09          	lea    rdi,[rcx+r9*1]
    543a:	49 89 d1             	mov    r9,rdx
    543d:	48 21 d0             	and    rax,rdx
    5440:	49 c1 c9 0e          	ror    r9,0xe
    5444:	48 31 d8             	xor    rax,rbx
    5447:	4c 89 c9             	mov    rcx,r9
    544a:	49 89 d1             	mov    r9,rdx
    544d:	48 01 c7             	add    rdi,rax
    5450:	49 c1 c9 12          	ror    r9,0x12
    5454:	4c 89 c8             	mov    rax,r9
    5457:	49 89 d1             	mov    r9,rdx
    545a:	48 31 c8             	xor    rax,rcx
    545d:	49 c1 c1 17          	rol    r9,0x17
    5461:	4c 31 c8             	xor    rax,r9
    5464:	4d 89 d1             	mov    r9,r10
    5467:	49 c1 c9 1c          	ror    r9,0x1c
    546b:	48 01 f8             	add    rax,rdi
    546e:	4c 89 c9             	mov    rcx,r9
    5471:	4d 89 d1             	mov    r9,r10
    5474:	49 01 c4             	add    r12,rax
    5477:	49 c1 c1 1e          	rol    r9,0x1e
    547b:	4c 89 ce             	mov    rsi,r9
    547e:	4d 89 d1             	mov    r9,r10
    5481:	48 31 ce             	xor    rsi,rcx
    5484:	49 c1 c1 19          	rol    r9,0x19
    5488:	4c 31 ce             	xor    rsi,r9
    548b:	4d 89 e9             	mov    r9,r13
    548e:	4d 09 d1             	or     r9,r10
    5491:	4c 89 c9             	mov    rcx,r9
    5494:	4d 89 e9             	mov    r9,r13
    5497:	4d 21 d1             	and    r9,r10
    549a:	48 21 e9             	and    rcx,rbp
    549d:	4c 09 c9             	or     rcx,r9
    54a0:	48 01 f1             	add    rcx,rsi
    54a3:	4c 8d 04 01          	lea    r8,[rcx+rax*1]
    54a7:	48 8b 4c 24 20       	mov    rcx,QWORD PTR [rsp+0x20]
    54ac:	48 89 ce             	mov    rsi,rcx
    54af:	49 89 c9             	mov    r9,rcx
    54b2:	48 d1 ce             	ror    rsi,1
    54b5:	49 c1 e9 07          	shr    r9,0x7
    54b9:	48 89 f0             	mov    rax,rsi
    54bc:	48 89 ce             	mov    rsi,rcx
    54bf:	48 c1 ce 08          	ror    rsi,0x8
    54c3:	48 31 c6             	xor    rsi,rax
    54c6:	4c 31 ce             	xor    rsi,r9
    54c9:	4c 8b 4c 24 10       	mov    r9,QWORD PTR [rsp+0x10]
    54ce:	48 03 74 24 18       	add    rsi,QWORD PTR [rsp+0x18]
    54d3:	48 03 74 24 30       	add    rsi,QWORD PTR [rsp+0x30]
    54d8:	4c 89 c8             	mov    rax,r9
    54db:	48 c1 c8 13          	ror    rax,0x13
    54df:	48 89 c1             	mov    rcx,rax
    54e2:	4c 89 c8             	mov    rax,r9
    54e5:	49 c1 e9 06          	shr    r9,0x6
    54e9:	48 c1 c0 03          	rol    rax,0x3
    54ed:	48 31 c8             	xor    rax,rcx
    54f0:	48 b9 18 52 ef d6 19 	movabs rcx,0xd192e819d6ef5218
    54f7:	e8 92 d1 
    54fa:	4c 31 c8             	xor    rax,r9
    54fd:	4d 89 d1             	mov    r9,r10
    5500:	48 8d 3c 06          	lea    rdi,[rsi+rax*1]
    5504:	4c 89 d8             	mov    rax,r11
    5507:	48 31 d0             	xor    rax,rdx
    550a:	48 01 f9             	add    rcx,rdi
    550d:	4c 21 e0             	and    rax,r12
    5510:	48 89 7c 24 78       	mov    QWORD PTR [rsp+0x78],rdi
    5515:	48 8d 34 19          	lea    rsi,[rcx+rbx*1]
    5519:	4c 31 d8             	xor    rax,r11
    551c:	48 8b 5c 24 58       	mov    rbx,QWORD PTR [rsp+0x58]
    5521:	48 01 c6             	add    rsi,rax
    5524:	4c 89 e0             	mov    rax,r12
    5527:	48 c1 c8 0e          	ror    rax,0xe
    552b:	48 89 df             	mov    rdi,rbx
    552e:	48 89 c1             	mov    rcx,rax
    5531:	4c 89 e0             	mov    rax,r12
    5534:	48 c1 c8 12          	ror    rax,0x12
    5538:	48 31 c8             	xor    rax,rcx
    553b:	4c 89 e1             	mov    rcx,r12
    553e:	48 c1 c1 17          	rol    rcx,0x17
    5542:	48 31 c8             	xor    rax,rcx
    5545:	4c 89 c1             	mov    rcx,r8
    5548:	48 01 f0             	add    rax,rsi
    554b:	4c 89 c6             	mov    rsi,r8
    554e:	48 c1 c1 1e          	rol    rcx,0x1e
    5552:	48 c1 ce 1c          	ror    rsi,0x1c
    5556:	48 01 c5             	add    rbp,rax
    5559:	48 31 f1             	xor    rcx,rsi
    555c:	4c 89 c6             	mov    rsi,r8
    555f:	48 c1 c6 19          	rol    rsi,0x19
    5563:	4d 21 c1             	and    r9,r8
    5566:	48 c1 cf 08          	ror    rdi,0x8
    556a:	48 31 f1             	xor    rcx,rsi
    556d:	4c 89 d6             	mov    rsi,r10
    5570:	4c 09 c6             	or     rsi,r8
    5573:	4c 21 ee             	and    rsi,r13
    5576:	4c 09 ce             	or     rsi,r9
    5579:	48 01 ce             	add    rsi,rcx
    557c:	48 89 f9             	mov    rcx,rdi
    557f:	48 8b 7c 24 48       	mov    rdi,QWORD PTR [rsp+0x48]
    5584:	4c 8d 0c 06          	lea    r9,[rsi+rax*1]
    5588:	48 89 d8             	mov    rax,rbx
    558b:	48 d1 c8             	ror    rax,1
    558e:	48 31 c1             	xor    rcx,rax
    5591:	48 89 d8             	mov    rax,rbx
    5594:	48 89 fe             	mov    rsi,rdi
    5597:	48 c1 e8 07          	shr    rax,0x7
    559b:	48 c1 ce 13          	ror    rsi,0x13
    559f:	48 31 c1             	xor    rcx,rax
    55a2:	48 89 f8             	mov    rax,rdi
    55a5:	48 03 4c 24 20       	add    rcx,QWORD PTR [rsp+0x20]
    55aa:	48 03 4c 24 68       	add    rcx,QWORD PTR [rsp+0x68]
    55af:	48 c1 c0 03          	rol    rax,0x3
    55b3:	48 31 f0             	xor    rax,rsi
    55b6:	48 89 fe             	mov    rsi,rdi
    55b9:	48 c1 ee 06          	shr    rsi,0x6
    55bd:	48 31 f0             	xor    rax,rsi
    55c0:	48 01 c8             	add    rax,rcx
    55c3:	48 b9 10 a9 65 55 24 	movabs rcx,0xd69906245565a910
    55ca:	06 99 d6 
    55cd:	48 89 c6             	mov    rsi,rax
    55d0:	48 89 d0             	mov    rax,rdx
    55d3:	4c 31 e0             	xor    rax,r12
    55d6:	48 01 f1             	add    rcx,rsi
    55d9:	48 89 74 24 58       	mov    QWORD PTR [rsp+0x58],rsi
    55de:	48 21 e8             	and    rax,rbp
    55e1:	4c 01 d9             	add    rcx,r11
    55e4:	49 89 eb             	mov    r11,rbp
    55e7:	48 31 d0             	xor    rax,rdx
    55ea:	49 c1 c3 17          	rol    r11,0x17
    55ee:	48 01 c1             	add    rcx,rax
    55f1:	48 89 e8             	mov    rax,rbp
    55f4:	48 c1 c8 0e          	ror    rax,0xe
    55f8:	48 89 c6             	mov    rsi,rax
    55fb:	48 89 e8             	mov    rax,rbp
    55fe:	48 c1 c8 12          	ror    rax,0x12
    5602:	48 31 f0             	xor    rax,rsi
    5605:	4c 31 d8             	xor    rax,r11
    5608:	4d 89 cb             	mov    r11,r9
    560b:	48 01 c8             	add    rax,rcx
    560e:	4c 89 c9             	mov    rcx,r9
    5611:	49 01 c5             	add    r13,rax
    5614:	49 c1 c3 1e          	rol    r11,0x1e
    5618:	48 c1 c9 1c          	ror    rcx,0x1c
    561c:	4c 89 df             	mov    rdi,r11
    561f:	4d 89 c3             	mov    r11,r8
    5622:	48 31 cf             	xor    rdi,rcx
    5625:	4c 89 c9             	mov    rcx,r9
    5628:	4d 21 cb             	and    r11,r9
    562b:	48 c1 c1 19          	rol    rcx,0x19
    562f:	48 31 cf             	xor    rdi,rcx
    5632:	4c 89 c1             	mov    rcx,r8
    5635:	4c 09 c9             	or     rcx,r9
    5638:	4c 21 d1             	and    rcx,r10
    563b:	4c 09 d9             	or     rcx,r11
    563e:	4c 8b 5c 24 50       	mov    r11,QWORD PTR [rsp+0x50]
    5643:	48 01 cf             	add    rdi,rcx
    5646:	48 01 c7             	add    rdi,rax
    5649:	4c 89 d9             	mov    rcx,r11
    564c:	4c 89 d8             	mov    rax,r11
    564f:	48 d1 c9             	ror    rcx,1
    5652:	48 c1 c8 08          	ror    rax,0x8
    5656:	48 31 c8             	xor    rax,rcx
    5659:	4c 89 d9             	mov    rcx,r11
    565c:	48 c1 e9 07          	shr    rcx,0x7
    5660:	48 31 c8             	xor    rax,rcx
    5663:	48 01 d8             	add    rax,rbx
    5666:	48 8b 5c 24 78       	mov    rbx,QWORD PTR [rsp+0x78]
    566b:	48 03 44 24 38       	add    rax,QWORD PTR [rsp+0x38]
    5670:	48 89 de             	mov    rsi,rbx
    5673:	48 89 d9             	mov    rcx,rbx
    5676:	48 c1 eb 06          	shr    rbx,0x6
    567a:	48 c1 ce 13          	ror    rsi,0x13
    567e:	48 c1 c1 03          	rol    rcx,0x3
    5682:	48 31 f1             	xor    rcx,rsi
    5685:	4c 89 ce             	mov    rsi,r9
    5688:	48 31 d9             	xor    rcx,rbx
    568b:	48 01 c8             	add    rax,rcx
    568e:	48 b9 2a 20 71 57 85 	movabs rcx,0xf40e35855771202a
    5695:	35 0e f4 
    5698:	48 89 c3             	mov    rbx,rax
    569b:	4c 89 e0             	mov    rax,r12
    569e:	48 31 e8             	xor    rax,rbp
    56a1:	48 01 d9             	add    rcx,rbx
    56a4:	48 89 9c 24 c8 00 00 	mov    QWORD PTR [rsp+0xc8],rbx
    56ab:	00 
    56ac:	4c 21 e8             	and    rax,r13
    56af:	48 01 ca             	add    rdx,rcx
    56b2:	4c 31 e0             	xor    rax,r12
    56b5:	48 01 c2             	add    rdx,rax
    56b8:	4c 89 e8             	mov    rax,r13
    56bb:	48 c1 c8 0e          	ror    rax,0xe
    56bf:	48 89 c1             	mov    rcx,rax
    56c2:	4c 89 e8             	mov    rax,r13
    56c5:	48 c1 c8 12          	ror    rax,0x12
    56c9:	48 21 fe             	and    rsi,rdi
    56cc:	48 31 c8             	xor    rax,rcx
    56cf:	4c 89 e9             	mov    rcx,r13
    56d2:	48 c1 c1 17          	rol    rcx,0x17
    56d6:	48 31 c8             	xor    rax,rcx
    56d9:	48 01 d0             	add    rax,rdx
    56dc:	48 89 fa             	mov    rdx,rdi
    56df:	48 c1 ca 1c          	ror    rdx,0x1c
    56e3:	49 01 c2             	add    r10,rax
    56e6:	48 89 d1             	mov    rcx,rdx
    56e9:	48 89 fa             	mov    rdx,rdi
    56ec:	48 c1 c2 1e          	rol    rdx,0x1e
    56f0:	48 31 ca             	xor    rdx,rcx
    56f3:	48 89 f9             	mov    rcx,rdi
    56f6:	48 c1 c1 19          	rol    rcx,0x19
    56fa:	48 31 ca             	xor    rdx,rcx
    56fd:	4c 89 c9             	mov    rcx,r9
    5700:	48 09 f9             	or     rcx,rdi
    5703:	4c 21 c1             	and    rcx,r8
    5706:	48 09 f1             	or     rcx,rsi
    5709:	48 01 ca             	add    rdx,rcx
    570c:	48 01 c2             	add    rdx,rax
    570f:	4c 89 f8             	mov    rax,r15
    5712:	48 d1 c8             	ror    rax,1
    5715:	48 89 c1             	mov    rcx,rax
    5718:	4c 89 f8             	mov    rax,r15
    571b:	48 c1 c8 08          	ror    rax,0x8
    571f:	48 31 c8             	xor    rax,rcx
    5722:	4c 89 f9             	mov    rcx,r15
    5725:	48 c1 e9 07          	shr    rcx,0x7
    5729:	48 31 c8             	xor    rax,rcx
    572c:	4c 01 d8             	add    rax,r11
    572f:	4c 8b 5c 24 58       	mov    r11,QWORD PTR [rsp+0x58]
    5734:	48 03 04 24          	add    rax,QWORD PTR [rsp]
    5738:	4c 89 d9             	mov    rcx,r11
    573b:	48 c1 c9 13          	ror    rcx,0x13
    573f:	48 89 ce             	mov    rsi,rcx
    5742:	4c 89 d9             	mov    rcx,r11
    5745:	49 c1 eb 06          	shr    r11,0x6
    5749:	48 c1 c1 03          	rol    rcx,0x3
    574d:	48 31 f1             	xor    rcx,rsi
    5750:	4c 31 d9             	xor    rcx,r11
    5753:	48 01 c8             	add    rax,rcx
    5756:	48 b9 b8 d1 bb 32 70 	movabs rcx,0x106aa07032bbd1b8
    575d:	a0 6a 10 
    5760:	49 89 c3             	mov    r11,rax
    5763:	48 89 e8             	mov    rax,rbp
    5766:	4c 31 e8             	xor    rax,r13
    5769:	4c 89 5c 24 50       	mov    QWORD PTR [rsp+0x50],r11
    576e:	4c 21 d0             	and    rax,r10
    5771:	48 31 e8             	xor    rax,rbp
    5774:	4c 01 d9             	add    rcx,r11
    5777:	49 89 fb             	mov    r11,rdi
    577a:	49 01 cc             	add    r12,rcx
    577d:	4c 89 d1             	mov    rcx,r10
    5780:	49 21 d3             	and    r11,rdx
    5783:	49 01 c4             	add    r12,rax
    5786:	4c 89 d0             	mov    rax,r10
    5789:	48 c1 c9 0e          	ror    rcx,0xe
    578d:	48 c1 c8 12          	ror    rax,0x12
    5791:	48 31 c8             	xor    rax,rcx
    5794:	4c 89 d1             	mov    rcx,r10
    5797:	48 c1 c1 17          	rol    rcx,0x17
    579b:	48 31 c8             	xor    rax,rcx
    579e:	48 89 d1             	mov    rcx,rdx
    57a1:	48 c1 c9 1c          	ror    rcx,0x1c
    57a5:	4c 01 e0             	add    rax,r12
    57a8:	48 89 ce             	mov    rsi,rcx
    57ab:	48 89 d1             	mov    rcx,rdx
    57ae:	49 01 c0             	add    r8,rax
    57b1:	48 c1 c1 1e          	rol    rcx,0x1e
    57b5:	48 31 f1             	xor    rcx,rsi
    57b8:	48 89 d6             	mov    rsi,rdx
    57bb:	48 c1 c6 19          	rol    rsi,0x19
    57bf:	48 31 f1             	xor    rcx,rsi
    57c2:	48 89 fe             	mov    rsi,rdi
    57c5:	48 09 d6             	or     rsi,rdx
    57c8:	4c 21 ce             	and    rsi,r9
    57cb:	4c 09 de             	or     rsi,r11
    57ce:	49 89 db             	mov    r11,rbx
    57d1:	48 01 f1             	add    rcx,rsi
    57d4:	49 c1 cb 13          	ror    r11,0x13
    57d8:	48 01 c1             	add    rcx,rax
    57db:	4c 89 f0             	mov    rax,r14
    57de:	48 d1 c8             	ror    rax,1
    57e1:	48 89 c6             	mov    rsi,rax
    57e4:	4c 89 f0             	mov    rax,r14
    57e7:	48 c1 c8 08          	ror    rax,0x8
    57eb:	48 31 f0             	xor    rax,rsi
    57ee:	4c 89 f6             	mov    rsi,r14
    57f1:	48 c1 ee 07          	shr    rsi,0x7
    57f5:	48 31 f0             	xor    rax,rsi
    57f8:	48 89 de             	mov    rsi,rbx
    57fb:	4c 01 f8             	add    rax,r15
    57fe:	48 c1 c6 03          	rol    rsi,0x3
    5802:	48 03 44 24 70       	add    rax,QWORD PTR [rsp+0x70]
    5807:	4c 31 de             	xor    rsi,r11
    580a:	49 89 db             	mov    r11,rbx
    580d:	4c 8b 64 24 60       	mov    r12,QWORD PTR [rsp+0x60]
    5812:	49 c1 eb 06          	shr    r11,0x6
    5816:	4c 31 de             	xor    rsi,r11
    5819:	4c 8d 3c 30          	lea    r15,[rax+rsi*1]
    581d:	4c 89 e8             	mov    rax,r13
    5820:	48 be c8 d0 d2 b8 16 	movabs rsi,0x19a4c116b8d2d0c8
    5827:	c1 a4 19 
    582a:	4c 31 d0             	xor    rax,r10
    582d:	4c 01 fe             	add    rsi,r15
    5830:	4c 21 c0             	and    rax,r8
    5833:	4c 31 e8             	xor    rax,r13
    5836:	48 01 f5             	add    rbp,rsi
    5839:	48 01 c5             	add    rbp,rax
    583c:	4c 89 c0             	mov    rax,r8
    583f:	48 c1 c8 0e          	ror    rax,0xe
    5843:	48 89 c6             	mov    rsi,rax
    5846:	4c 89 c0             	mov    rax,r8
    5849:	48 c1 c8 12          	ror    rax,0x12
    584d:	48 31 f0             	xor    rax,rsi
    5850:	4c 89 c6             	mov    rsi,r8
    5853:	48 c1 c6 17          	rol    rsi,0x17
    5857:	48 31 f0             	xor    rax,rsi
    585a:	48 89 ce             	mov    rsi,rcx
    585d:	48 c1 ce 1c          	ror    rsi,0x1c
    5861:	48 01 e8             	add    rax,rbp
    5864:	48 89 cd             	mov    rbp,rcx
    5867:	49 89 f3             	mov    r11,rsi
    586a:	48 89 ce             	mov    rsi,rcx
    586d:	48 c1 c5 19          	rol    rbp,0x19
    5871:	48 c1 c6 1e          	rol    rsi,0x1e
    5875:	49 01 c1             	add    r9,rax
    5878:	4c 31 de             	xor    rsi,r11
    587b:	48 31 ee             	xor    rsi,rbp
    587e:	48 89 d5             	mov    rbp,rdx
    5881:	48 09 cd             	or     rbp,rcx
    5884:	49 89 eb             	mov    r11,rbp
    5887:	48 89 d5             	mov    rbp,rdx
    588a:	48 21 cd             	and    rbp,rcx
    588d:	49 21 fb             	and    r11,rdi
    5890:	49 09 eb             	or     r11,rbp
    5893:	48 8b 6c 24 50       	mov    rbp,QWORD PTR [rsp+0x50]
    5898:	4c 01 de             	add    rsi,r11
    589b:	4d 89 e3             	mov    r11,r12
    589e:	48 01 c6             	add    rsi,rax
    58a1:	4c 89 e0             	mov    rax,r12
    58a4:	49 d1 cb             	ror    r11,1
    58a7:	48 c1 c8 08          	ror    rax,0x8
    58ab:	48 89 eb             	mov    rbx,rbp
    58ae:	4c 31 d8             	xor    rax,r11
    58b1:	4d 89 e3             	mov    r11,r12
    58b4:	49 c1 eb 07          	shr    r11,0x7
    58b8:	4c 31 d8             	xor    rax,r11
    58bb:	49 89 eb             	mov    r11,rbp
    58be:	4c 01 f0             	add    rax,r14
    58c1:	48 03 44 24 10       	add    rax,QWORD PTR [rsp+0x10]
    58c6:	48 c1 cb 13          	ror    rbx,0x13
    58ca:	49 c1 c3 03          	rol    r11,0x3
    58ce:	4c 8b 74 24 40       	mov    r14,QWORD PTR [rsp+0x40]
    58d3:	49 31 db             	xor    r11,rbx
    58d6:	48 89 eb             	mov    rbx,rbp
    58d9:	48 c1 eb 06          	shr    rbx,0x6
    58dd:	49 31 db             	xor    r11,rbx
    58e0:	4c 01 d8             	add    rax,r11
    58e3:	49 bb 53 ab 41 51 08 	movabs r11,0x1e376c085141ab53
    58ea:	6c 37 1e 
    58ed:	48 89 c3             	mov    rbx,rax
    58f0:	4c 89 d0             	mov    rax,r10
    58f3:	4c 31 c0             	xor    rax,r8
    58f6:	49 01 db             	add    r11,rbx
    58f9:	48 89 5c 24 60       	mov    QWORD PTR [rsp+0x60],rbx
    58fe:	4c 21 c8             	and    rax,r9
    5901:	4d 01 dd             	add    r13,r11
    5904:	4c 31 d0             	xor    rax,r10
    5907:	49 01 c5             	add    r13,rax
    590a:	4c 89 c8             	mov    rax,r9
    590d:	48 c1 c8 0e          	ror    rax,0xe
    5911:	49 89 c3             	mov    r11,rax
    5914:	4c 89 c8             	mov    rax,r9
    5917:	48 c1 c8 12          	ror    rax,0x12
    591b:	4c 31 d8             	xor    rax,r11
    591e:	4d 89 cb             	mov    r11,r9
    5921:	49 c1 c3 17          	rol    r11,0x17
    5925:	4c 31 d8             	xor    rax,r11
    5928:	49 89 f3             	mov    r11,rsi
    592b:	4c 01 e8             	add    rax,r13
    592e:	49 89 f5             	mov    r13,rsi
    5931:	49 c1 c3 1e          	rol    r11,0x1e
    5935:	49 c1 cd 1c          	ror    r13,0x1c
    5939:	48 01 c7             	add    rdi,rax
    593c:	4d 31 eb             	xor    r11,r13
    593f:	49 89 f5             	mov    r13,rsi
    5942:	49 c1 c5 19          	rol    r13,0x19
    5946:	4d 31 eb             	xor    r11,r13
    5949:	49 89 cd             	mov    r13,rcx
    594c:	49 09 f5             	or     r13,rsi
    594f:	4c 89 eb             	mov    rbx,r13
    5952:	49 89 cd             	mov    r13,rcx
    5955:	49 21 f5             	and    r13,rsi
    5958:	48 21 d3             	and    rbx,rdx
    595b:	4c 09 eb             	or     rbx,r13
    595e:	4d 89 fd             	mov    r13,r15
    5961:	4c 01 db             	add    rbx,r11
    5964:	4d 89 f3             	mov    r11,r14
    5967:	48 01 c3             	add    rbx,rax
    596a:	4c 89 f0             	mov    rax,r14
    596d:	49 d1 cb             	ror    r11,1
    5970:	48 c1 c8 08          	ror    rax,0x8
    5974:	49 c1 cd 13          	ror    r13,0x13
    5978:	4c 31 d8             	xor    rax,r11
    597b:	4d 89 f3             	mov    r11,r14
    597e:	4c 89 ed             	mov    rbp,r13
    5981:	49 c1 eb 07          	shr    r11,0x7
    5985:	4d 89 fd             	mov    r13,r15
    5988:	4c 31 d8             	xor    rax,r11
    598b:	49 c1 c5 03          	rol    r13,0x3
    598f:	4c 01 e0             	add    rax,r12
    5992:	48 03 44 24 48       	add    rax,QWORD PTR [rsp+0x48]
    5997:	4d 89 eb             	mov    r11,r13
    599a:	4d 89 fd             	mov    r13,r15
    599d:	49 31 eb             	xor    r11,rbp
    59a0:	48 89 f5             	mov    rbp,rsi
    59a3:	49 c1 ed 06          	shr    r13,0x6
    59a7:	4c 8b 64 24 28       	mov    r12,QWORD PTR [rsp+0x28]
    59ac:	4d 31 eb             	xor    r11,r13
    59af:	4c 01 d8             	add    rax,r11
    59b2:	49 bb 99 eb 8e df 4c 	movabs r11,0x2748774cdf8eeb99
    59b9:	77 48 27 
    59bc:	49 89 c5             	mov    r13,rax
    59bf:	4c 89 c0             	mov    rax,r8
    59c2:	4c 31 c8             	xor    rax,r9
    59c5:	4d 01 eb             	add    r11,r13
    59c8:	4c 89 6c 24 40       	mov    QWORD PTR [rsp+0x40],r13
    59cd:	48 21 f8             	and    rax,rdi
    59d0:	4d 01 da             	add    r10,r11
    59d3:	4c 8b 6c 24 60       	mov    r13,QWORD PTR [rsp+0x60]
    59d8:	4c 31 c0             	xor    rax,r8
    59db:	49 01 c2             	add    r10,rax
    59de:	48 89 f8             	mov    rax,rdi
    59e1:	48 c1 c8 0e          	ror    rax,0xe
    59e5:	49 89 c3             	mov    r11,rax
    59e8:	48 89 f8             	mov    rax,rdi
    59eb:	48 c1 c8 12          	ror    rax,0x12
    59ef:	4c 31 d8             	xor    rax,r11
    59f2:	49 89 fb             	mov    r11,rdi
    59f5:	49 c1 c3 17          	rol    r11,0x17
    59f9:	4c 31 d8             	xor    rax,r11
    59fc:	4c 01 d0             	add    rax,r10
    59ff:	49 89 da             	mov    r10,rbx
    5a02:	49 c1 ca 1c          	ror    r10,0x1c
    5a06:	48 01 c2             	add    rdx,rax
    5a09:	4d 89 d3             	mov    r11,r10
    5a0c:	49 89 da             	mov    r10,rbx
    5a0f:	49 c1 c2 1e          	rol    r10,0x1e
    5a13:	4d 31 da             	xor    r10,r11
    5a16:	49 89 db             	mov    r11,rbx
    5a19:	49 c1 c3 19          	rol    r11,0x19
    5a1d:	4d 31 da             	xor    r10,r11
    5a20:	49 89 f3             	mov    r11,rsi
    5a23:	49 09 db             	or     r11,rbx
    5a26:	49 21 cb             	and    r11,rcx
    5a29:	48 21 dd             	and    rbp,rbx
    5a2c:	49 09 eb             	or     r11,rbp
    5a2f:	4c 89 ed             	mov    rbp,r13
    5a32:	4d 01 da             	add    r10,r11
    5a35:	4d 89 e3             	mov    r11,r12
    5a38:	48 c1 cd 13          	ror    rbp,0x13
    5a3c:	49 01 c2             	add    r10,rax
    5a3f:	4c 89 e0             	mov    rax,r12
    5a42:	49 d1 cb             	ror    r11,1
    5a45:	48 c1 c8 08          	ror    rax,0x8
    5a49:	4c 31 d8             	xor    rax,r11
    5a4c:	4d 89 e3             	mov    r11,r12
    5a4f:	49 c1 eb 07          	shr    r11,0x7
    5a53:	4c 31 d8             	xor    rax,r11
    5a56:	4d 89 eb             	mov    r11,r13
    5a59:	4c 01 f0             	add    rax,r14
    5a5c:	49 c1 c3 03          	rol    r11,0x3
    5a60:	48 03 44 24 78       	add    rax,QWORD PTR [rsp+0x78]
    5a65:	49 31 eb             	xor    r11,rbp
    5a68:	4c 89 ed             	mov    rbp,r13
    5a6b:	4c 8b 74 24 30       	mov    r14,QWORD PTR [rsp+0x30]
    5a70:	48 c1 ed 06          	shr    rbp,0x6
    5a74:	49 31 eb             	xor    r11,rbp
    5a77:	48 89 dd             	mov    rbp,rbx
    5a7a:	4c 01 d8             	add    rax,r11
    5a7d:	49 bb a8 48 9b e1 b5 	movabs r11,0x34b0bcb5e19b48a8
    5a84:	bc b0 34 
    5a87:	49 89 c5             	mov    r13,rax
    5a8a:	4c 89 c8             	mov    rax,r9
    5a8d:	48 31 f8             	xor    rax,rdi
    5a90:	4d 01 eb             	add    r11,r13
    5a93:	48 21 d0             	and    rax,rdx
    5a96:	4d 01 d8             	add    r8,r11
    5a99:	4c 31 c8             	xor    rax,r9
    5a9c:	49 01 c0             	add    r8,rax
    5a9f:	48 89 d0             	mov    rax,rdx
    5aa2:	48 c1 c8 0e          	ror    rax,0xe
    5aa6:	49 89 c3             	mov    r11,rax
    5aa9:	48 89 d0             	mov    rax,rdx
    5aac:	48 c1 c8 12          	ror    rax,0x12
    5ab0:	4c 31 d8             	xor    rax,r11
    5ab3:	49 89 d3             	mov    r11,rdx
    5ab6:	49 c1 c3 17          	rol    r11,0x17
    5aba:	4c 31 d8             	xor    rax,r11
    5abd:	4c 01 c0             	add    rax,r8
    5ac0:	4d 89 d0             	mov    r8,r10
    5ac3:	49 c1 c8 1c          	ror    r8,0x1c
    5ac7:	48 01 c1             	add    rcx,rax
    5aca:	4d 89 c3             	mov    r11,r8
    5acd:	4d 89 d0             	mov    r8,r10
    5ad0:	49 c1 c0 1e          	rol    r8,0x1e
    5ad4:	4d 31 d8             	xor    r8,r11
    5ad7:	4d 89 d3             	mov    r11,r10
    5ada:	4c 21 d5             	and    rbp,r10
    5add:	49 c1 c3 19          	rol    r11,0x19
    5ae1:	4d 31 d8             	xor    r8,r11
    5ae4:	49 89 db             	mov    r11,rbx
    5ae7:	4d 09 d3             	or     r11,r10
    5aea:	49 21 f3             	and    r11,rsi
    5aed:	49 09 eb             	or     r11,rbp
    5af0:	4d 01 d8             	add    r8,r11
    5af3:	4d 89 f3             	mov    r11,r14
    5af6:	49 01 c0             	add    r8,rax
    5af9:	4c 89 f0             	mov    rax,r14
    5afc:	49 c1 cb 08          	ror    r11,0x8
    5b00:	48 d1 c8             	ror    rax,1
    5b03:	49 31 c3             	xor    r11,rax
    5b06:	4c 89 f0             	mov    rax,r14
    5b09:	48 c1 e8 07          	shr    rax,0x7
    5b0d:	49 31 c3             	xor    r11,rax
    5b10:	48 8b 44 24 40       	mov    rax,QWORD PTR [rsp+0x40]
    5b15:	4d 01 e3             	add    r11,r12
    5b18:	4c 03 5c 24 58       	add    r11,QWORD PTR [rsp+0x58]
    5b1d:	49 89 c4             	mov    r12,rax
    5b20:	49 c1 cc 13          	ror    r12,0x13
    5b24:	4c 89 e5             	mov    rbp,r12
    5b27:	49 89 c4             	mov    r12,rax
    5b2a:	48 c1 c0 03          	rol    rax,0x3
    5b2e:	48 31 e8             	xor    rax,rbp
    5b31:	49 c1 ec 06          	shr    r12,0x6
    5b35:	4c 89 d5             	mov    rbp,r10
    5b38:	4c 31 e0             	xor    rax,r12
    5b3b:	4c 01 d8             	add    rax,r11
    5b3e:	49 bb 63 5a c9 c5 b3 	movabs r11,0x391c0cb3c5c95a63
    5b45:	0c 1c 39 
    5b48:	49 89 c4             	mov    r12,rax
    5b4b:	48 89 f8             	mov    rax,rdi
    5b4e:	48 31 d0             	xor    rax,rdx
    5b51:	4d 01 e3             	add    r11,r12
    5b54:	4c 89 a4 24 80 00 00 	mov    QWORD PTR [rsp+0x80],r12
    5b5b:	00 
    5b5c:	48 21 c8             	and    rax,rcx
    5b5f:	4d 01 d9             	add    r9,r11
    5b62:	4c 8b 64 24 68       	mov    r12,QWORD PTR [rsp+0x68]
    5b67:	48 31 f8             	xor    rax,rdi
    5b6a:	49 01 c1             	add    r9,rax
    5b6d:	48 89 c8             	mov    rax,rcx
    5b70:	48 c1 c8 0e          	ror    rax,0xe
    5b74:	49 89 c3             	mov    r11,rax
    5b77:	48 89 c8             	mov    rax,rcx
    5b7a:	48 c1 c8 12          	ror    rax,0x12
    5b7e:	4c 31 d8             	xor    rax,r11
    5b81:	49 89 cb             	mov    r11,rcx
    5b84:	49 c1 c3 17          	rol    r11,0x17
    5b88:	4c 31 d8             	xor    rax,r11
    5b8b:	4c 21 c5             	and    rbp,r8
    5b8e:	4c 01 c8             	add    rax,r9
    5b91:	4d 89 c1             	mov    r9,r8
    5b94:	49 c1 c9 1c          	ror    r9,0x1c
    5b98:	48 01 c6             	add    rsi,rax
    5b9b:	4d 89 cb             	mov    r11,r9
    5b9e:	4d 89 c1             	mov    r9,r8
    5ba1:	49 c1 c1 1e          	rol    r9,0x1e
    5ba5:	4d 31 d9             	xor    r9,r11
    5ba8:	4d 89 c3             	mov    r11,r8
    5bab:	49 c1 c3 19          	rol    r11,0x19
    5baf:	4d 31 d9             	xor    r9,r11
    5bb2:	4d 89 d3             	mov    r11,r10
    5bb5:	4d 09 c3             	or     r11,r8
    5bb8:	49 21 db             	and    r11,rbx
    5bbb:	49 09 eb             	or     r11,rbp
    5bbe:	4d 01 d9             	add    r9,r11
    5bc1:	4d 89 e3             	mov    r11,r12
    5bc4:	49 01 c1             	add    r9,rax
    5bc7:	4c 89 e0             	mov    rax,r12
    5bca:	49 c1 cb 08          	ror    r11,0x8
    5bce:	48 d1 c8             	ror    rax,1
    5bd1:	49 31 c3             	xor    r11,rax
    5bd4:	4c 89 e0             	mov    rax,r12
    5bd7:	48 c1 e8 07          	shr    rax,0x7
    5bdb:	49 31 c3             	xor    r11,rax
    5bde:	4c 89 e8             	mov    rax,r13
    5be1:	49 c1 cd 13          	ror    r13,0x13
    5be5:	4d 01 f3             	add    r11,r14
    5be8:	4c 03 9c 24 c8 00 00 	add    r11,QWORD PTR [rsp+0xc8]
    5bef:	00 
    5bf0:	4c 89 ed             	mov    rbp,r13
    5bf3:	49 89 c5             	mov    r13,rax
    5bf6:	48 c1 c0 03          	rol    rax,0x3
